                                      1 ;--------------------------------------------------------
                                      2 ; File Created by SDCC : free open source ANSI-C Compiler
                                      3 ; Version 4.2.0 #13081 (Linux)
                                      4 ;--------------------------------------------------------
                                      5 	.module screen
                                      6 	.optsdcc -mmcs51 --model-large
                                      7 	
                                      8 ;--------------------------------------------------------
                                      9 ; Public variables in this module
                                     10 ;--------------------------------------------------------
                                     11 	.globl _loadFixedTempOTPLUT
                                     12 	.globl _wdtOn
                                     13 	.globl _timerDelay
                                     14 	.globl _timerGet
                                     15 	.globl _sleepForMsec
                                     16 	.globl _pr
                                     17 	.globl _spiTXByte
                                     18 	.globl _spiByte
                                     19 	.globl _barcodeNextBar
                                     20 	.globl _barcodeIsDone
                                     21 	.globl _mathPrvMul8x8
                                     22 	.globl ___memcpy
                                     23 	.globl _memset
                                     24 	.globl _UART_TXE
                                     25 	.globl _UART_RXF
                                     26 	.globl _IEN_EA
                                     27 	.globl _IEN_RF2
                                     28 	.globl _IEN_RF1
                                     29 	.globl _IEN_TMR1
                                     30 	.globl _IEN_TMR0
                                     31 	.globl _IEN_UART0
                                     32 	.globl _P2_7
                                     33 	.globl _P2_6
                                     34 	.globl _P2_5
                                     35 	.globl _P2_4
                                     36 	.globl _P2_3
                                     37 	.globl _P2_2
                                     38 	.globl _P2_1
                                     39 	.globl _P2_0
                                     40 	.globl _P1_7
                                     41 	.globl _P1_6
                                     42 	.globl _P1_5
                                     43 	.globl _P1_4
                                     44 	.globl _P1_3
                                     45 	.globl _P1_2
                                     46 	.globl _P1_1
                                     47 	.globl _P1_0
                                     48 	.globl _P0_7
                                     49 	.globl _P0_6
                                     50 	.globl _P0_5
                                     51 	.globl _P0_4
                                     52 	.globl _P0_3
                                     53 	.globl _P0_2
                                     54 	.globl _P0_1
                                     55 	.globl _P0_0
                                     56 	.globl _CFGPAGE
                                     57 	.globl _TCON2
                                     58 	.globl _SETTINGS
                                     59 	.globl _TRIGGER
                                     60 	.globl _UNK_C1
                                     61 	.globl _RADIO_GOTLEN
                                     62 	.globl _RADIO_INITSEQ3
                                     63 	.globl _RADIO_RXLEN
                                     64 	.globl _RADIO_RXPTRH
                                     65 	.globl _RADIO_RXPTRL
                                     66 	.globl _RADIO_INITSEQ5
                                     67 	.globl _RADIO_INITSEQ4
                                     68 	.globl _RADIO_INITSEQ0
                                     69 	.globl _RADIO_TXLEN
                                     70 	.globl _RADIO_INITSEQ2
                                     71 	.globl _RADIO_INITSEQ1
                                     72 	.globl _RADIO_TXPTRH
                                     73 	.globl _RADIO_TXPTRL
                                     74 	.globl _TEMPCAL6
                                     75 	.globl _TEMPCAL5
                                     76 	.globl _TEMPCAL4
                                     77 	.globl _TEMPCAL3
                                     78 	.globl _TEMPRETL
                                     79 	.globl _TEMPRETH
                                     80 	.globl _TEMPCFG
                                     81 	.globl _TEMPCAL2
                                     82 	.globl _TEMPCAL1
                                     83 	.globl _FWRTHREE
                                     84 	.globl _FWRLENH
                                     85 	.globl _FWRLENL
                                     86 	.globl _FWRDSTH
                                     87 	.globl _FWRDSTL
                                     88 	.globl _FWRSRCH
                                     89 	.globl _FWRSRCL
                                     90 	.globl _FPGNO
                                     91 	.globl _T1
                                     92 	.globl _T0
                                     93 	.globl _TH1
                                     94 	.globl _TH0
                                     95 	.globl _TL1
                                     96 	.globl _TL0
                                     97 	.globl _TMOD
                                     98 	.globl _TCON
                                     99 	.globl _UARTBRGH
                                    100 	.globl _UARTBRGL
                                    101 	.globl _UARTBUF
                                    102 	.globl _UARTSTA
                                    103 	.globl _I2CUNKNOWN
                                    104 	.globl _I2CSPEED
                                    105 	.globl _I2CCTL
                                    106 	.globl _I2CBUF
                                    107 	.globl _I2CSTATE
                                    108 	.globl _SPIRX
                                    109 	.globl _SPITX
                                    110 	.globl _SPIENA
                                    111 	.globl _SPICFG
                                    112 	.globl _SPIUNKNOWN
                                    113 	.globl _WDTCONF
                                    114 	.globl _WDTRSTVALH
                                    115 	.globl _WDTRSTVALM
                                    116 	.globl _WDTRSTVALL
                                    117 	.globl _WDTPET
                                    118 	.globl _WDTENA
                                    119 	.globl _RESET
                                    120 	.globl _CLKEN
                                    121 	.globl _CLKSPEED
                                    122 	.globl _IEN1
                                    123 	.globl _IEN0
                                    124 	.globl _XPAGE
                                    125 	.globl _P2PULL
                                    126 	.globl _P1PULL
                                    127 	.globl _P0PULL
                                    128 	.globl _P2DIR
                                    129 	.globl _P1DIR
                                    130 	.globl _P0DIR
                                    131 	.globl _P2FUNC
                                    132 	.globl _P1FUNC
                                    133 	.globl _P0FUNC
                                    134 	.globl _P2CHSTA
                                    135 	.globl _P1CHSTA
                                    136 	.globl _P0CHSTA
                                    137 	.globl _P2INTEN
                                    138 	.globl _P1INTEN
                                    139 	.globl _P0INTEN
                                    140 	.globl _P2LVLSEL
                                    141 	.globl _P1LVLSEL
                                    142 	.globl _P0LVLSEL
                                    143 	.globl _P2
                                    144 	.globl _P1
                                    145 	.globl _P0
                                    146 	.globl _PERFMON4
                                    147 	.globl _PCL
                                    148 	.globl _PCH
                                    149 	.globl _PERFMON1
                                    150 	.globl _PERFMON0
                                    151 	.globl _PCON
                                    152 	.globl _DPS
                                    153 	.globl _DPH1
                                    154 	.globl _DPL1
                                    155 	.globl _DPH
                                    156 	.globl _DPL
                                    157 	.globl _ACC
                                    158 	.globl _B
                                    159 	.globl _waveform7
                                    160 	.globl _waveform10
                                    161 	.globl _customLUT
                                    162 	.globl _epdGPIOActive
                                    163 	.globl _dispLutSize
                                    164 	.globl _epdPrintBegin_PARM_5
                                    165 	.globl _epdPrintBegin_PARM_4
                                    166 	.globl _epdPrintBegin_PARM_3
                                    167 	.globl _epdPrintBegin_PARM_2
                                    168 	.globl _printBarcode_PARM_3
                                    169 	.globl _printBarcode_PARM_2
                                    170 	.globl _loadRawBitmap_PARM_4
                                    171 	.globl _loadRawBitmap_PARM_3
                                    172 	.globl _loadRawBitmap_PARM_2
                                    173 	.globl _drawLineVertical_PARM_4
                                    174 	.globl _drawLineVertical_PARM_3
                                    175 	.globl _drawLineVertical_PARM_2
                                    176 	.globl _drawLineHorizontal_PARM_4
                                    177 	.globl _drawLineHorizontal_PARM_3
                                    178 	.globl _drawLineHorizontal_PARM_2
                                    179 	.globl _setColorMode_PARM_2
                                    180 	.globl _setPosXY_PARM_2
                                    181 	.globl _setWindowY_PARM_2
                                    182 	.globl _setWindowX_PARM_2
                                    183 	.globl _epdConfigGPIO
                                    184 	.globl _epdEnterSleep
                                    185 	.globl _epdSetup
                                    186 	.globl _epdGetBattery
                                    187 	.globl _selectLUT
                                    188 	.globl _setWindowX
                                    189 	.globl _setWindowY
                                    190 	.globl _setPosXY
                                    191 	.globl _setColorMode
                                    192 	.globl _fillWindowWithPattern
                                    193 	.globl _clearWindow
                                    194 	.globl _clearScreen
                                    195 	.globl _draw
                                    196 	.globl _drawNoWait
                                    197 	.globl _drawWithSleep
                                    198 	.globl _epdWaitRdy
                                    199 	.globl _drawLineHorizontal
                                    200 	.globl _drawLineVertical
                                    201 	.globl _beginFullscreenImage
                                    202 	.globl _beginWriteFramebuffer
                                    203 	.globl _endWriteFramebuffer
                                    204 	.globl _loadRawBitmap
                                    205 	.globl _printBarcode
                                    206 	.globl _writeCharEPD
                                    207 	.globl _epdPrintBegin
                                    208 	.globl _epdPrintEnd
                                    209 ;--------------------------------------------------------
                                    210 ; special function registers
                                    211 ;--------------------------------------------------------
                                    212 	.area RSEG    (ABS,DATA)
      000000                        213 	.org 0x0000
                           0000F0   214 _B	=	0x00f0
                           0000E0   215 _ACC	=	0x00e0
                           000082   216 _DPL	=	0x0082
                           000083   217 _DPH	=	0x0083
                           000084   218 _DPL1	=	0x0084
                           000085   219 _DPH1	=	0x0085
                           000092   220 _DPS	=	0x0092
                           000087   221 _PCON	=	0x0087
                           0000B2   222 _PERFMON0	=	0x00b2
                           0000B3   223 _PERFMON1	=	0x00b3
                           0000B4   224 _PCH	=	0x00b4
                           0000B5   225 _PCL	=	0x00b5
                           0000B6   226 _PERFMON4	=	0x00b6
                           000080   227 _P0	=	0x0080
                           000090   228 _P1	=	0x0090
                           0000A0   229 _P2	=	0x00a0
                           0000A3   230 _P0LVLSEL	=	0x00a3
                           0000A4   231 _P1LVLSEL	=	0x00a4
                           0000A5   232 _P2LVLSEL	=	0x00a5
                           0000A6   233 _P0INTEN	=	0x00a6
                           0000A7   234 _P1INTEN	=	0x00a7
                           0000A9   235 _P2INTEN	=	0x00a9
                           0000AA   236 _P0CHSTA	=	0x00aa
                           0000AB   237 _P1CHSTA	=	0x00ab
                           0000AC   238 _P2CHSTA	=	0x00ac
                           0000AD   239 _P0FUNC	=	0x00ad
                           0000AE   240 _P1FUNC	=	0x00ae
                           0000AF   241 _P2FUNC	=	0x00af
                           0000B9   242 _P0DIR	=	0x00b9
                           0000BA   243 _P1DIR	=	0x00ba
                           0000BB   244 _P2DIR	=	0x00bb
                           0000BC   245 _P0PULL	=	0x00bc
                           0000BD   246 _P1PULL	=	0x00bd
                           0000BE   247 _P2PULL	=	0x00be
                           0000A0   248 _XPAGE	=	0x00a0
                           0000A8   249 _IEN0	=	0x00a8
                           0000A1   250 _IEN1	=	0x00a1
                           00008E   251 _CLKSPEED	=	0x008e
                           0000B7   252 _CLKEN	=	0x00b7
                           00008F   253 _RESET	=	0x008f
                           0000BA   254 _WDTENA	=	0x00ba
                           0000BB   255 _WDTPET	=	0x00bb
                           0000BC   256 _WDTRSTVALL	=	0x00bc
                           0000BD   257 _WDTRSTVALM	=	0x00bd
                           0000BE   258 _WDTRSTVALH	=	0x00be
                           0000BF   259 _WDTCONF	=	0x00bf
                           0000EB   260 _SPIUNKNOWN	=	0x00eb
                           0000EC   261 _SPICFG	=	0x00ec
                           0000ED   262 _SPIENA	=	0x00ed
                           0000EE   263 _SPITX	=	0x00ee
                           0000EF   264 _SPIRX	=	0x00ef
                           000091   265 _I2CSTATE	=	0x0091
                           000094   266 _I2CBUF	=	0x0094
                           000095   267 _I2CCTL	=	0x0095
                           000096   268 _I2CSPEED	=	0x0096
                           0000A2   269 _I2CUNKNOWN	=	0x00a2
                           000098   270 _UARTSTA	=	0x0098
                           000099   271 _UARTBUF	=	0x0099
                           00009A   272 _UARTBRGL	=	0x009a
                           00009B   273 _UARTBRGH	=	0x009b
                           000088   274 _TCON	=	0x0088
                           000089   275 _TMOD	=	0x0089
                           00008A   276 _TL0	=	0x008a
                           00008B   277 _TL1	=	0x008b
                           00008C   278 _TH0	=	0x008c
                           00008D   279 _TH1	=	0x008d
                           008C8A   280 _T0	=	0x8c8a
                           008D8B   281 _T1	=	0x8d8b
                           0000D8   282 _FPGNO	=	0x00d8
                           0000D9   283 _FWRSRCL	=	0x00d9
                           0000DA   284 _FWRSRCH	=	0x00da
                           0000DB   285 _FWRDSTL	=	0x00db
                           0000DC   286 _FWRDSTH	=	0x00dc
                           0000DD   287 _FWRLENL	=	0x00dd
                           0000DE   288 _FWRLENH	=	0x00de
                           0000DF   289 _FWRTHREE	=	0x00df
                           0000E6   290 _TEMPCAL1	=	0x00e6
                           0000E7   291 _TEMPCAL2	=	0x00e7
                           0000F7   292 _TEMPCFG	=	0x00f7
                           0000F8   293 _TEMPRETH	=	0x00f8
                           0000F9   294 _TEMPRETL	=	0x00f9
                           0000FB   295 _TEMPCAL3	=	0x00fb
                           0000FC   296 _TEMPCAL4	=	0x00fc
                           0000FD   297 _TEMPCAL5	=	0x00fd
                           0000FE   298 _TEMPCAL6	=	0x00fe
                           0000C9   299 _RADIO_TXPTRL	=	0x00c9
                           0000CA   300 _RADIO_TXPTRH	=	0x00ca
                           0000CB   301 _RADIO_INITSEQ1	=	0x00cb
                           0000CC   302 _RADIO_INITSEQ2	=	0x00cc
                           0000CD   303 _RADIO_TXLEN	=	0x00cd
                           0000CE   304 _RADIO_INITSEQ0	=	0x00ce
                           0000D1   305 _RADIO_INITSEQ4	=	0x00d1
                           0000D2   306 _RADIO_INITSEQ5	=	0x00d2
                           0000D3   307 _RADIO_RXPTRL	=	0x00d3
                           0000D4   308 _RADIO_RXPTRH	=	0x00d4
                           0000D5   309 _RADIO_RXLEN	=	0x00d5
                           0000D6   310 _RADIO_INITSEQ3	=	0x00d6
                           0000FA   311 _RADIO_GOTLEN	=	0x00fa
                           0000C1   312 _UNK_C1	=	0x00c1
                           0000D7   313 _TRIGGER	=	0x00d7
                           0000C7   314 _SETTINGS	=	0x00c7
                           0000CF   315 _TCON2	=	0x00cf
                           0000FF   316 _CFGPAGE	=	0x00ff
                                    317 ;--------------------------------------------------------
                                    318 ; special function bits
                                    319 ;--------------------------------------------------------
                                    320 	.area RSEG    (ABS,DATA)
      000000                        321 	.org 0x0000
                           000080   322 _P0_0	=	0x0080
                           000081   323 _P0_1	=	0x0081
                           000082   324 _P0_2	=	0x0082
                           000083   325 _P0_3	=	0x0083
                           000084   326 _P0_4	=	0x0084
                           000085   327 _P0_5	=	0x0085
                           000086   328 _P0_6	=	0x0086
                           000087   329 _P0_7	=	0x0087
                           000090   330 _P1_0	=	0x0090
                           000091   331 _P1_1	=	0x0091
                           000092   332 _P1_2	=	0x0092
                           000093   333 _P1_3	=	0x0093
                           000094   334 _P1_4	=	0x0094
                           000095   335 _P1_5	=	0x0095
                           000096   336 _P1_6	=	0x0096
                           000097   337 _P1_7	=	0x0097
                           0000A0   338 _P2_0	=	0x00a0
                           0000A1   339 _P2_1	=	0x00a1
                           0000A2   340 _P2_2	=	0x00a2
                           0000A3   341 _P2_3	=	0x00a3
                           0000A4   342 _P2_4	=	0x00a4
                           0000A5   343 _P2_5	=	0x00a5
                           0000A6   344 _P2_6	=	0x00a6
                           0000A7   345 _P2_7	=	0x00a7
                           0000A8   346 _IEN_UART0	=	0x00a8
                           0000A9   347 _IEN_TMR0	=	0x00a9
                           0000AB   348 _IEN_TMR1	=	0x00ab
                           0000AC   349 _IEN_RF1	=	0x00ac
                           0000AD   350 _IEN_RF2	=	0x00ad
                           0000AF   351 _IEN_EA	=	0x00af
                           000098   352 _UART_RXF	=	0x0098
                           000099   353 _UART_TXE	=	0x0099
                                    354 ;--------------------------------------------------------
                                    355 ; overlayable register banks
                                    356 ;--------------------------------------------------------
                                    357 	.area REG_BANK_0	(REL,OVR,DATA)
      000000                        358 	.ds 8
                                    359 ;--------------------------------------------------------
                                    360 ; overlayable bit register bank
                                    361 ;--------------------------------------------------------
                                    362 	.area BIT_BANK	(REL,OVR,DATA)
      000023                        363 bits:
      000023                        364 	.ds 1
                           008000   365 	b0 = bits[0]
                           008100   366 	b1 = bits[1]
                           008200   367 	b2 = bits[2]
                           008300   368 	b3 = bits[3]
                           008400   369 	b4 = bits[4]
                           008500   370 	b5 = bits[5]
                           008600   371 	b6 = bits[6]
                           008700   372 	b7 = bits[7]
                                    373 ;--------------------------------------------------------
                                    374 ; internal ram data
                                    375 ;--------------------------------------------------------
                                    376 	.area DSEG    (DATA)
      000024                        377 _epdBusyWait_sloc0_1_0:
      000024                        378 	.ds 4
      000028                        379 _drawLineVertical_sloc0_1_0:
      000028                        380 	.ds 2
      00002A                        381 _loadRawBitmap_sloc0_1_0:
      00002A                        382 	.ds 2
      00002C                        383 _epdPrintBegin_sloc0_1_0:
      00002C                        384 	.ds 2
                                    385 ;--------------------------------------------------------
                                    386 ; overlayable items in internal ram
                                    387 ;--------------------------------------------------------
                                    388 ;--------------------------------------------------------
                                    389 ; indirectly addressable internal ram data
                                    390 ;--------------------------------------------------------
                                    391 	.area ISEG    (DATA)
                           000000   392 _R0	=	0x0000
                           000001   393 _R1	=	0x0001
                           000002   394 _R2	=	0x0002
                           000003   395 _R3	=	0x0003
                           000004   396 _R4	=	0x0004
                           000005   397 _R5	=	0x0005
                           000006   398 _R6	=	0x0006
                           000007   399 _R7	=	0x0007
                                    400 ;--------------------------------------------------------
                                    401 ; absolute internal ram data
                                    402 ;--------------------------------------------------------
                                    403 	.area IABS    (ABS,DATA)
                                    404 	.area IABS    (ABS,DATA)
                                    405 ;--------------------------------------------------------
                                    406 ; bit data
                                    407 ;--------------------------------------------------------
                                    408 	.area BSEG    (BIT)
                                    409 ;--------------------------------------------------------
                                    410 ; paged external ram data
                                    411 ;--------------------------------------------------------
                                    412 	.area PSEG    (PAG,XDATA)
                                    413 ;--------------------------------------------------------
                                    414 ; external ram data
                                    415 ;--------------------------------------------------------
                                    416 	.area XSEG    (XDATA)
                           00DF48   417 _RADIO_command	=	0xdf48
                           00DF70   418 _RADIO_calibration_70	=	0xdf70
                           00DF71   419 _RADIO_calibration_71	=	0xdf71
                           00DF80   420 _RADIO_FLAGS	=	0xdf80
                           00DF81   421 _RADIO_calibration_81	=	0xdf81
                           00DF83   422 _RADIO_unk_83	=	0xdf83
                           00DF84   423 _RADIO_currentRSSI	=	0xdf84
                           00DF86   424 _RADIO_calibration_86	=	0xdf86
                           00DF88   425 _RADIO_ownMac_7	=	0xdf88
                           00DF89   426 _RADIO_ownMac_6	=	0xdf89
                           00DF8A   427 _RADIO_ownMac_5	=	0xdf8a
                           00DF8B   428 _RADIO_ownMac_4	=	0xdf8b
                           00DF8C   429 _RADIO_ownMac_3	=	0xdf8c
                           00DF8D   430 _RADIO_ownMac_2	=	0xdf8d
                           00DF8E   431 _RADIO_ownMac_1	=	0xdf8e
                           00DF8F   432 _RADIO_ownMac_0	=	0xdf8f
                           00DF90   433 _RADIO_PANID_Hi	=	0xdf90
                           00DF91   434 _RADIO_PANID_Lo	=	0xdf91
                           00DF92   435 _RADIO_ownShortAddress_Hi	=	0xdf92
                           00DF93   436 _RADIO_ownShortAddress_Lo	=	0xdf93
                           00DF94   437 _RADIO_calibration_94	=	0xdf94
                           00DF95   438 _RADIO_calibration_95	=	0xdf95
                           00DF96   439 _RADIO_calibration_96	=	0xdf96
                           00DF98   440 _RADIO_rxFirstByte	=	0xdf98
                           00DF9B   441 _RADIO_curRfState	=	0xdf9b
                           00DF9D   442 _RADIO_calibration_9D	=	0xdf9d
                           00DFA1   443 _RADIO_calibration_A1	=	0xdfa1
                           00DFA5   444 _RADIO_unk_rxAckSta	=	0xdfa5
                           00DFA6   445 _RADIO_unk_A6	=	0xdfa6
                           00DFAD   446 _RADIO_IRQ4_pending	=	0xdfad
                           00DFAF   447 _RADIO_unk_AF	=	0xdfaf
                           00DFC0   448 _RADIO_channel	=	0xdfc0
                           00DFC1   449 _RADIO_unk_C1	=	0xdfc1
                           00DFC2   450 _RADIO_calibration_C2	=	0xdfc2
                           00DFC3   451 _RADIO_calibration_C3	=	0xdfc3
                           00DFC4   452 _RADIO_calibration_C4	=	0xdfc4
                           00DFC5   453 _RADIO_calibration_C5	=	0xdfc5
                           00DFC6   454 _RADIO_calibration_C6	=	0xdfc6
                           00DFC7   455 _RADIO_calibration_C7	=	0xdfc7
                           00DFC8   456 _RADIO_unk_C8	=	0xdfc8
                           00DFC9   457 _RADIO_txPower	=	0xdfc9
                           00DFCA   458 _RADIO_unk_CA	=	0xdfca
                           00DFCB   459 _RADIO_perChannelSetting2	=	0xdfcb
                           00DFCD   460 _RADIO_unk_CD	=	0xdfcd
                           00DFCE   461 _RADIO_unk_CE	=	0xdfce
                           00DFCF   462 _RADIO_calibration_CF	=	0xdfcf
                           00DFD0   463 _RADIO_calibration_D0	=	0xdfd0
                           00DFD1   464 _RADIO_calibration_D1	=	0xdfd1
                           00DFD2   465 _RADIO_calibration_D2	=	0xdfd2
                           00DFD3   466 _RADIO_calibration_D3	=	0xdfd3
                           00DFD4   467 _RADIO_calibration_D4	=	0xdfd4
                           00DFD5   468 _RADIO_calibration_D5	=	0xdfd5
                           00DFD7   469 _RADIO_unk_D7	=	0xdfd7
                           00DFD8   470 _RADIO_unk_D8	=	0xdfd8
                           00DFD9   471 _RADIO_SleepTimerHi	=	0xdfd9
                           00DFDA   472 _RADIO_SleepTimerMid	=	0xdfda
                           00DFDB   473 _RADIO_SleepTimerLo	=	0xdfdb
                           00DFE2   474 _RADIO_unk_E2	=	0xdfe2
                           00DFF0   475 _RADIO_unk_F0	=	0xdff0
                           00DFF3   476 _RADIO_SleepTimerSettings	=	0xdff3
                           00DFF4   477 _RADIO_RadioPowerCtl	=	0xdff4
                           00DFFB   478 _RADIO_Wake_Reason	=	0xdffb
                           00DFFD   479 _RADIO_perChannelSetting1	=	0xdffd
      00E58A                        480 _rbuffer:
      00E58A                        481 	.ds 32
      00E5AA                        482 _waveformbuffer:
      00E5AA                        483 	.ds 128
      00E62A                        484 _epdBusySleep_timeout_65536_120:
      00E62A                        485 	.ds 4
      00E62E                        486 _epdBusySleep_tmp_P2FUNC_65536_121:
      00E62E                        487 	.ds 1
      00E62F                        488 _epdBusySleep_tmp_P2DIR_65536_121:
      00E62F                        489 	.ds 1
      00E630                        490 _epdBusySleep_tmp_P2PULL_65536_121:
      00E630                        491 	.ds 1
      00E631                        492 _epdBusySleep_tmp_P2LVLSEL_65536_121:
      00E631                        493 	.ds 1
      00E632                        494 _epdBusyWait_timeout_65536_123:
      00E632                        495 	.ds 4
      00E636                        496 _commandReadBegin_cmd_65536_126:
      00E636                        497 	.ds 1
      00E637                        498 _epdReadByte_val_65536_132:
      00E637                        499 	.ds 1
      00E638                        500 _shortCommand_cmd_65536_135:
      00E638                        501 	.ds 1
      00E639                        502 _shortCommand1_PARM_2:
      00E639                        503 	.ds 1
      00E63A                        504 _shortCommand1_cmd_65536_140:
      00E63A                        505 	.ds 1
      00E63B                        506 _shortCommand2_PARM_2:
      00E63B                        507 	.ds 1
      00E63C                        508 _shortCommand2_PARM_3:
      00E63C                        509 	.ds 1
      00E63D                        510 _shortCommand2_cmd_65536_146:
      00E63D                        511 	.ds 1
      00E63E                        512 _commandBegin_cmd_65536_152:
      00E63E                        513 	.ds 1
      00E63F                        514 _epdConfigGPIO_setup_65536_158:
      00E63F                        515 	.ds 1
      00E640                        516 _epdGetBattery_voltage_65536_168:
      00E640                        517 	.ds 2
      00E642                        518 _getLutSize_ref_65536_180:
      00E642                        519 	.ds 1
      00E643                        520 _lutGroupDisable_group_65536_186:
      00E643                        521 	.ds 1
      00E644                        522 _lutGroupSpeedup_PARM_2:
      00E644                        523 	.ds 1
      00E645                        524 _lutGroupSpeedup_group_65536_190:
      00E645                        525 	.ds 1
      00E646                        526 _lutGroupRepeat_PARM_2:
      00E646                        527 	.ds 1
      00E647                        528 _lutGroupRepeat_group_65536_198:
      00E647                        529 	.ds 1
      00E648                        530 _lutGroupRepeatReduce_PARM_2:
      00E648                        531 	.ds 1
      00E649                        532 _lutGroupRepeatReduce_group_65536_202:
      00E649                        533 	.ds 1
      00E64A                        534 _selectLUT_lut_65536_206:
      00E64A                        535 	.ds 1
      00E64B                        536 _setWindowX_PARM_2:
      00E64B                        537 	.ds 2
      00E64D                        538 _setWindowX_start_65536_216:
      00E64D                        539 	.ds 2
      00E64F                        540 _setWindowY_PARM_2:
      00E64F                        541 	.ds 2
      00E651                        542 _setWindowY_start_65536_218:
      00E651                        543 	.ds 2
      00E653                        544 _setPosXY_PARM_2:
      00E653                        545 	.ds 2
      00E655                        546 _setPosXY_x_65536_221:
      00E655                        547 	.ds 2
      00E657                        548 _setColorMode_PARM_2:
      00E657                        549 	.ds 1
      00E658                        550 _setColorMode_red_65536_224:
      00E658                        551 	.ds 1
      00E659                        552 _fillWindowWithPattern_color_65536_226:
      00E659                        553 	.ds 1
      00E65A                        554 _clearWindow_color_65536_230:
      00E65A                        555 	.ds 1
      00E65B                        556 _drawWithSleep_tmp_P2FUNC_65537_238:
      00E65B                        557 	.ds 1
      00E65C                        558 _drawWithSleep_tmp_P2DIR_65537_238:
      00E65C                        559 	.ds 1
      00E65D                        560 _drawWithSleep_tmp_P2PULL_65537_238:
      00E65D                        561 	.ds 1
      00E65E                        562 _drawWithSleep_tmp_P2LVLSEL_65537_238:
      00E65E                        563 	.ds 1
      00E65F                        564 _drawLineHorizontal_PARM_2:
      00E65F                        565 	.ds 2
      00E661                        566 _drawLineHorizontal_PARM_3:
      00E661                        567 	.ds 2
      00E663                        568 _drawLineHorizontal_PARM_4:
      00E663                        569 	.ds 2
      00E665                        570 _drawLineHorizontal_color_65536_241:
      00E665                        571 	.ds 1
      00E666                        572 _drawLineVertical_PARM_2:
      00E666                        573 	.ds 2
      00E668                        574 _drawLineVertical_PARM_3:
      00E668                        575 	.ds 2
      00E66A                        576 _drawLineVertical_PARM_4:
      00E66A                        577 	.ds 2
      00E66C                        578 _drawLineVertical_color_65536_245:
      00E66C                        579 	.ds 1
      00E66D                        580 _beginWriteFramebuffer_color_65536_254:
      00E66D                        581 	.ds 1
      00E66E                        582 _loadRawBitmap_PARM_2:
      00E66E                        583 	.ds 2
      00E670                        584 _loadRawBitmap_PARM_3:
      00E670                        585 	.ds 2
      00E672                        586 _loadRawBitmap_PARM_4:
      00E672                        587 	.ds 1
      00E673                        588 _loadRawBitmap_bmp_65536_261:
      00E673                        589 	.ds 3
      00E676                        590 _loadRawBitmap_xsize_65536_262:
      00E676                        591 	.ds 2
      00E678                        592 _loadRawBitmap_size_65537_263:
      00E678                        593 	.ds 2
      00E67A                        594 _printBarcode_PARM_2:
      00E67A                        595 	.ds 2
      00E67C                        596 _printBarcode_PARM_3:
      00E67C                        597 	.ds 2
      00E67E                        598 _printBarcode_string_65536_268:
      00E67E                        599 	.ds 3
      00E681                        600 _printBarcode_bci_65537_270:
      00E681                        601 	.ds 9
      00E68A                        602 _pushXFontBytesToEPD_PARM_2:
      00E68A                        603 	.ds 1
      00E68B                        604 _pushXFontBytesToEPD_byte1_65536_275:
      00E68B                        605 	.ds 1
      00E68C                        606 _pushXFontBytesToEPD_offset_131072_277:
      00E68C                        607 	.ds 1
      00E68D                        608 _pushXFontBytesToEPD_offset_131072_282:
      00E68D                        609 	.ds 1
      00E68E                        610 _bufferByteShift_byte_65536_292:
      00E68E                        611 	.ds 1
      00E68F                        612 _pushYFontBytesToEPD_PARM_2:
      00E68F                        613 	.ds 1
      00E690                        614 _pushYFontBytesToEPD_byte1_65536_297:
      00E690                        615 	.ds 1
      00E691                        616 _pushYFontBytesToEPD_c_262144_301:
      00E691                        617 	.ds 1
      00E692                        618 _writeCharEPD_c_65536_309:
      00E692                        619 	.ds 1
      00E693                        620 _writeCharEPD_empty_65536_310:
      00E693                        621 	.ds 1
      00E694                        622 _writeCharEPD_begin_65537_318:
      00E694                        623 	.ds 1
      00E695                        624 _writeCharEPD_end_65538_320:
      00E695                        625 	.ds 1
      00E696                        626 _writeCharEPD_pos_131074_322:
      00E696                        627 	.ds 1
      00E697                        628 _epdPrintBegin_PARM_2:
      00E697                        629 	.ds 2
      00E699                        630 _epdPrintBegin_PARM_3:
      00E699                        631 	.ds 1
      00E69A                        632 _epdPrintBegin_PARM_4:
      00E69A                        633 	.ds 1
      00E69B                        634 _epdPrintBegin_PARM_5:
      00E69B                        635 	.ds 1
      00E69C                        636 _epdPrintBegin_x_65536_328:
      00E69C                        637 	.ds 2
      00E69E                        638 _epdPrintBegin_extra_131072_330:
      00E69E                        639 	.ds 1
                                    640 ;--------------------------------------------------------
                                    641 ; absolute external ram data
                                    642 ;--------------------------------------------------------
                                    643 	.area XABS    (ABS,XDATA)
                                    644 ;--------------------------------------------------------
                                    645 ; external initialized ram data
                                    646 ;--------------------------------------------------------
                                    647 	.area XISEG   (XDATA)
      00FD0D                        648 _epdCharSize:
      00FD0D                        649 	.ds 1
      00FD0E                        650 _directionY:
      00FD0E                        651 	.ds 1
      00FD0F                        652 _fontCurXpos:
      00FD0F                        653 	.ds 2
      00FD11                        654 _fontCurYpos:
      00FD11                        655 	.ds 2
      00FD13                        656 _currentLut:
      00FD13                        657 	.ds 1
      00FD14                        658 _dispLutSize::
      00FD14                        659 	.ds 1
      00FD15                        660 _isInited:
      00FD15                        661 	.ds 1
      00FD16                        662 _epdGPIOActive::
      00FD16                        663 	.ds 1
      00FD17                        664 _customLUT::
      00FD17                        665 	.ds 128
      00FD97                        666 _waveform10::
      00FD97                        667 	.ds 3
      00FD9A                        668 _waveform7::
      00FD9A                        669 	.ds 3
                                    670 	.area HOME    (CODE)
                                    671 	.area GSINIT0 (CODE)
                                    672 	.area GSINIT1 (CODE)
                                    673 	.area GSINIT2 (CODE)
                                    674 	.area GSINIT3 (CODE)
                                    675 	.area GSINIT4 (CODE)
                                    676 	.area GSINIT5 (CODE)
                                    677 	.area GSINIT  (CODE)
                                    678 	.area GSFINAL (CODE)
                                    679 	.area CSEG    (CODE)
                                    680 ;--------------------------------------------------------
                                    681 ; global & static initialisations
                                    682 ;--------------------------------------------------------
                                    683 	.area HOME    (CODE)
                                    684 	.area GSINIT  (CODE)
                                    685 	.area GSFINAL (CODE)
                                    686 	.area GSINIT  (CODE)
                                    687 ;--------------------------------------------------------
                                    688 ; Home
                                    689 ;--------------------------------------------------------
                                    690 	.area HOME    (CODE)
                                    691 	.area HOME    (CODE)
                                    692 ;--------------------------------------------------------
                                    693 ; code
                                    694 ;--------------------------------------------------------
                                    695 	.area CSEG    (CODE)
                                    696 ;------------------------------------------------------------
                                    697 ;Allocation info for local variables in function 'epdBusySleep'
                                    698 ;------------------------------------------------------------
                                    699 ;timeout                   Allocated with name '_epdBusySleep_timeout_65536_120'
                                    700 ;tmp_P2FUNC                Allocated with name '_epdBusySleep_tmp_P2FUNC_65536_121'
                                    701 ;tmp_P2DIR                 Allocated with name '_epdBusySleep_tmp_P2DIR_65536_121'
                                    702 ;tmp_P2PULL                Allocated with name '_epdBusySleep_tmp_P2PULL_65536_121'
                                    703 ;tmp_P2LVLSEL              Allocated with name '_epdBusySleep_tmp_P2LVLSEL_65536_121'
                                    704 ;------------------------------------------------------------
                                    705 ;	board/zbs29_BW_ssd1619/screen.c:98: static void epdBusySleep(uint32_t timeout) {
                                    706 ;	-----------------------------------------
                                    707 ;	 function epdBusySleep
                                    708 ;	-----------------------------------------
      007C07                        709 _epdBusySleep:
                           000007   710 	ar7 = 0x07
                           000006   711 	ar6 = 0x06
                           000005   712 	ar5 = 0x05
                           000004   713 	ar4 = 0x04
                           000003   714 	ar3 = 0x03
                           000002   715 	ar2 = 0x02
                           000001   716 	ar1 = 0x01
                           000000   717 	ar0 = 0x00
      007C07 C0 07            [24]  718 	push	ar7
      007C09 C0 06            [24]  719 	push	ar6
      007C0B C0 05            [24]  720 	push	ar5
      007C0D C0 04            [24]  721 	push	ar4
      007C0F AF 82            [24]  722 	mov	r7,dpl
      007C11 AE 83            [24]  723 	mov	r6,dph
      007C13 AD F0            [24]  724 	mov	r5,b
      007C15 FC               [12]  725 	mov	r4,a
      007C16 90 E6 2A         [24]  726 	mov	dptr,#_epdBusySleep_timeout_65536_120
      007C19 EF               [12]  727 	mov	a,r7
      007C1A F0               [24]  728 	movx	@dptr,a
      007C1B EE               [12]  729 	mov	a,r6
      007C1C A3               [24]  730 	inc	dptr
      007C1D F0               [24]  731 	movx	@dptr,a
      007C1E ED               [12]  732 	mov	a,r5
      007C1F A3               [24]  733 	inc	dptr
      007C20 F0               [24]  734 	movx	@dptr,a
      007C21 EC               [12]  735 	mov	a,r4
      007C22 A3               [24]  736 	inc	dptr
      007C23 F0               [24]  737 	movx	@dptr,a
                                    738 ;	board/zbs29_BW_ssd1619/screen.c:99: uint8_t tmp_P2FUNC = P2FUNC;
      007C24 90 E6 2E         [24]  739 	mov	dptr,#_epdBusySleep_tmp_P2FUNC_65536_121
      007C27 E5 AF            [12]  740 	mov	a,_P2FUNC
      007C29 F0               [24]  741 	movx	@dptr,a
                                    742 ;	board/zbs29_BW_ssd1619/screen.c:100: uint8_t tmp_P2DIR = P2DIR;
      007C2A 90 E6 2F         [24]  743 	mov	dptr,#_epdBusySleep_tmp_P2DIR_65536_121
      007C2D E5 BB            [12]  744 	mov	a,_P2DIR
      007C2F F0               [24]  745 	movx	@dptr,a
                                    746 ;	board/zbs29_BW_ssd1619/screen.c:101: uint8_t tmp_P2PULL = P2PULL;
      007C30 90 E6 30         [24]  747 	mov	dptr,#_epdBusySleep_tmp_P2PULL_65536_121
      007C33 E5 BE            [12]  748 	mov	a,_P2PULL
      007C35 F0               [24]  749 	movx	@dptr,a
                                    750 ;	board/zbs29_BW_ssd1619/screen.c:102: uint8_t tmp_P2LVLSEL = P2LVLSEL;
      007C36 90 E6 31         [24]  751 	mov	dptr,#_epdBusySleep_tmp_P2LVLSEL_65536_121
      007C39 E5 A5            [12]  752 	mov	a,_P2LVLSEL
      007C3B F0               [24]  753 	movx	@dptr,a
                                    754 ;	board/zbs29_BW_ssd1619/screen.c:103: P2FUNC &= 0xfd;
      007C3C 53 AF FD         [24]  755 	anl	_P2FUNC,#0xfd
                                    756 ;	board/zbs29_BW_ssd1619/screen.c:104: P2DIR |= 2;
      007C3F 43 BB 02         [24]  757 	orl	_P2DIR,#0x02
                                    758 ;	board/zbs29_BW_ssd1619/screen.c:105: P2PULL |= 2;
      007C42 43 BE 02         [24]  759 	orl	_P2PULL,#0x02
                                    760 ;	board/zbs29_BW_ssd1619/screen.c:106: P2LVLSEL |= 2;
      007C45 43 A5 02         [24]  761 	orl	_P2LVLSEL,#0x02
                                    762 ;	board/zbs29_BW_ssd1619/screen.c:108: P2CHSTA &= 0xfd;
      007C48 53 AC FD         [24]  763 	anl	_P2CHSTA,#0xfd
                                    764 ;	board/zbs29_BW_ssd1619/screen.c:109: P2INTEN |= 2;
      007C4B 43 A9 02         [24]  765 	orl	_P2INTEN,#0x02
                                    766 ;	board/zbs29_BW_ssd1619/screen.c:110: P2CHSTA &= 0xfd;
      007C4E 53 AC FD         [24]  767 	anl	_P2CHSTA,#0xfd
                                    768 ;	board/zbs29_BW_ssd1619/screen.c:111: sleepForMsec(timeout);
      007C51 90 E6 2A         [24]  769 	mov	dptr,#_epdBusySleep_timeout_65536_120
      007C54 E0               [24]  770 	movx	a,@dptr
      007C55 FC               [12]  771 	mov	r4,a
      007C56 A3               [24]  772 	inc	dptr
      007C57 E0               [24]  773 	movx	a,@dptr
      007C58 FD               [12]  774 	mov	r5,a
      007C59 A3               [24]  775 	inc	dptr
      007C5A E0               [24]  776 	movx	a,@dptr
      007C5B FE               [12]  777 	mov	r6,a
      007C5C A3               [24]  778 	inc	dptr
      007C5D E0               [24]  779 	movx	a,@dptr
      007C5E FF               [12]  780 	mov	r7,a
      007C5F 8C 82            [24]  781 	mov	dpl,r4
      007C61 8D 83            [24]  782 	mov	dph,r5
      007C63 8E F0            [24]  783 	mov	b,r6
      007C65 C0 07            [24]  784 	push	ar7
      007C67 C0 06            [24]  785 	push	ar6
      007C69 C0 05            [24]  786 	push	ar5
      007C6B C0 04            [24]  787 	push	ar4
      007C6D C0 03            [24]  788 	push	ar3
      007C6F C0 02            [24]  789 	push	ar2
      007C71 C0 01            [24]  790 	push	ar1
      007C73 C0 00            [24]  791 	push	ar0
      007C75 12 5A E7         [24]  792 	lcall	_sleepForMsec
      007C78 D0 00            [24]  793 	pop	ar0
      007C7A D0 01            [24]  794 	pop	ar1
      007C7C D0 02            [24]  795 	pop	ar2
      007C7E D0 03            [24]  796 	pop	ar3
      007C80 D0 04            [24]  797 	pop	ar4
      007C82 D0 05            [24]  798 	pop	ar5
      007C84 D0 06            [24]  799 	pop	ar6
      007C86 D0 07            [24]  800 	pop	ar7
                                    801 ;	board/zbs29_BW_ssd1619/screen.c:112: wdtOn();
      007C88 12 5A 4C         [24]  802 	lcall	_wdtOn
                                    803 ;	board/zbs29_BW_ssd1619/screen.c:113: P2CHSTA &= 0xfd;
      007C8B 53 AC FD         [24]  804 	anl	_P2CHSTA,#0xfd
                                    805 ;	board/zbs29_BW_ssd1619/screen.c:114: P2INTEN &= 0xfd;
      007C8E 53 A9 FD         [24]  806 	anl	_P2INTEN,#0xfd
                                    807 ;	board/zbs29_BW_ssd1619/screen.c:116: P2FUNC = tmp_P2FUNC;
      007C91 90 E6 2E         [24]  808 	mov	dptr,#_epdBusySleep_tmp_P2FUNC_65536_121
      007C94 E0               [24]  809 	movx	a,@dptr
      007C95 F5 AF            [12]  810 	mov	_P2FUNC,a
                                    811 ;	board/zbs29_BW_ssd1619/screen.c:117: P2DIR = tmp_P2DIR;
      007C97 90 E6 2F         [24]  812 	mov	dptr,#_epdBusySleep_tmp_P2DIR_65536_121
      007C9A E0               [24]  813 	movx	a,@dptr
      007C9B F5 BB            [12]  814 	mov	_P2DIR,a
                                    815 ;	board/zbs29_BW_ssd1619/screen.c:118: P2PULL = tmp_P2PULL;
      007C9D 90 E6 30         [24]  816 	mov	dptr,#_epdBusySleep_tmp_P2PULL_65536_121
      007CA0 E0               [24]  817 	movx	a,@dptr
      007CA1 F5 BE            [12]  818 	mov	_P2PULL,a
                                    819 ;	board/zbs29_BW_ssd1619/screen.c:119: P2LVLSEL = tmp_P2LVLSEL;
      007CA3 90 E6 31         [24]  820 	mov	dptr,#_epdBusySleep_tmp_P2LVLSEL_65536_121
      007CA6 E0               [24]  821 	movx	a,@dptr
      007CA7 F5 A5            [12]  822 	mov	_P2LVLSEL,a
                                    823 ;	board/zbs29_BW_ssd1619/screen.c:120: eepromPrvDeselect();
      007CA9 00               [12]  824 	nop
      007CAA 00               [12]  825 	nop
      007CAB 00               [12]  826 	nop
                                    827 ;	assignBit
      007CAC D2 91            [12]  828 	setb	_P1_1
      007CAE 00               [12]  829 	nop
      007CAF 00               [12]  830 	nop
      007CB0 00               [12]  831 	nop
                                    832 ;	board/zbs29_BW_ssd1619/screen.c:121: }
      007CB1 D0 04            [24]  833 	pop	ar4
      007CB3 D0 05            [24]  834 	pop	ar5
      007CB5 D0 06            [24]  835 	pop	ar6
      007CB7 D0 07            [24]  836 	pop	ar7
      007CB9 22               [24]  837 	ret
                                    838 ;------------------------------------------------------------
                                    839 ;Allocation info for local variables in function 'epdBusyWait'
                                    840 ;------------------------------------------------------------
                                    841 ;sloc0                     Allocated with name '_epdBusyWait_sloc0_1_0'
                                    842 ;timeout                   Allocated with name '_epdBusyWait_timeout_65536_123'
                                    843 ;start                     Allocated with name '_epdBusyWait_start_65536_124'
                                    844 ;------------------------------------------------------------
                                    845 ;	board/zbs29_BW_ssd1619/screen.c:122: static void epdBusyWait(uint32_t timeout) {
                                    846 ;	-----------------------------------------
                                    847 ;	 function epdBusyWait
                                    848 ;	-----------------------------------------
      007CBA                        849 _epdBusyWait:
      007CBA C0 07            [24]  850 	push	ar7
      007CBC C0 06            [24]  851 	push	ar6
      007CBE C0 05            [24]  852 	push	ar5
      007CC0 C0 04            [24]  853 	push	ar4
      007CC2 C0 03            [24]  854 	push	ar3
      007CC4 C0 02            [24]  855 	push	ar2
      007CC6 C0 01            [24]  856 	push	ar1
      007CC8 C0 00            [24]  857 	push	ar0
      007CCA AF 82            [24]  858 	mov	r7,dpl
      007CCC AE 83            [24]  859 	mov	r6,dph
      007CCE AD F0            [24]  860 	mov	r5,b
      007CD0 FC               [12]  861 	mov	r4,a
      007CD1 90 E6 32         [24]  862 	mov	dptr,#_epdBusyWait_timeout_65536_123
      007CD4 EF               [12]  863 	mov	a,r7
      007CD5 F0               [24]  864 	movx	@dptr,a
      007CD6 EE               [12]  865 	mov	a,r6
      007CD7 A3               [24]  866 	inc	dptr
      007CD8 F0               [24]  867 	movx	@dptr,a
      007CD9 ED               [12]  868 	mov	a,r5
      007CDA A3               [24]  869 	inc	dptr
      007CDB F0               [24]  870 	movx	@dptr,a
      007CDC EC               [12]  871 	mov	a,r4
      007CDD A3               [24]  872 	inc	dptr
      007CDE F0               [24]  873 	movx	@dptr,a
                                    874 ;	board/zbs29_BW_ssd1619/screen.c:123: uint32_t __xdata start = timerGet();
      007CDF 12 5D 3B         [24]  875 	lcall	_timerGet
      007CE2 AC 82            [24]  876 	mov	r4,dpl
      007CE4 AD 83            [24]  877 	mov	r5,dph
      007CE6 AE F0            [24]  878 	mov	r6,b
      007CE8 FF               [12]  879 	mov	r7,a
                                    880 ;	board/zbs29_BW_ssd1619/screen.c:125: while (timerGet() - start < timeout) {
      007CE9 90 E6 32         [24]  881 	mov	dptr,#_epdBusyWait_timeout_65536_123
      007CEC E0               [24]  882 	movx	a,@dptr
      007CED F5 24            [12]  883 	mov	_epdBusyWait_sloc0_1_0,a
      007CEF A3               [24]  884 	inc	dptr
      007CF0 E0               [24]  885 	movx	a,@dptr
      007CF1 F5 25            [12]  886 	mov	(_epdBusyWait_sloc0_1_0 + 1),a
      007CF3 A3               [24]  887 	inc	dptr
      007CF4 E0               [24]  888 	movx	a,@dptr
      007CF5 F5 26            [12]  889 	mov	(_epdBusyWait_sloc0_1_0 + 2),a
      007CF7 A3               [24]  890 	inc	dptr
      007CF8 E0               [24]  891 	movx	a,@dptr
      007CF9 F5 27            [12]  892 	mov	(_epdBusyWait_sloc0_1_0 + 3),a
      007CFB                        893 00103$:
      007CFB 12 5D 3B         [24]  894 	lcall	_timerGet
      007CFE A8 82            [24]  895 	mov	r0,dpl
      007D00 A9 83            [24]  896 	mov	r1,dph
      007D02 AA F0            [24]  897 	mov	r2,b
      007D04 FB               [12]  898 	mov	r3,a
      007D05 E8               [12]  899 	mov	a,r0
      007D06 C3               [12]  900 	clr	c
      007D07 9C               [12]  901 	subb	a,r4
      007D08 F8               [12]  902 	mov	r0,a
      007D09 E9               [12]  903 	mov	a,r1
      007D0A 9D               [12]  904 	subb	a,r5
      007D0B F9               [12]  905 	mov	r1,a
      007D0C EA               [12]  906 	mov	a,r2
      007D0D 9E               [12]  907 	subb	a,r6
      007D0E FA               [12]  908 	mov	r2,a
      007D0F EB               [12]  909 	mov	a,r3
      007D10 9F               [12]  910 	subb	a,r7
      007D11 FB               [12]  911 	mov	r3,a
      007D12 C3               [12]  912 	clr	c
      007D13 E8               [12]  913 	mov	a,r0
      007D14 95 24            [12]  914 	subb	a,_epdBusyWait_sloc0_1_0
      007D16 E9               [12]  915 	mov	a,r1
      007D17 95 25            [12]  916 	subb	a,(_epdBusyWait_sloc0_1_0 + 1)
      007D19 EA               [12]  917 	mov	a,r2
      007D1A 95 26            [12]  918 	subb	a,(_epdBusyWait_sloc0_1_0 + 2)
      007D1C EB               [12]  919 	mov	a,r3
      007D1D 95 27            [12]  920 	subb	a,(_epdBusyWait_sloc0_1_0 + 3)
      007D1F 50 05            [24]  921 	jnc	00105$
                                    922 ;	board/zbs29_BW_ssd1619/screen.c:126: if (!P2_1)
      007D21 20 A1 D7         [24]  923 	jb	_P2_1,00103$
                                    924 ;	board/zbs29_BW_ssd1619/screen.c:127: return;
      007D24 80 32            [24]  925 	sjmp	00109$
      007D26                        926 00105$:
                                    927 ;	board/zbs29_BW_ssd1619/screen.c:129: pr("screen timeout %lu ticks :(\n", timerGet() - start);
      007D26 12 5D 3B         [24]  928 	lcall	_timerGet
      007D29 A8 82            [24]  929 	mov	r0,dpl
      007D2B A9 83            [24]  930 	mov	r1,dph
      007D2D AA F0            [24]  931 	mov	r2,b
      007D2F FB               [12]  932 	mov	r3,a
      007D30 E8               [12]  933 	mov	a,r0
      007D31 C3               [12]  934 	clr	c
      007D32 9C               [12]  935 	subb	a,r4
      007D33 FC               [12]  936 	mov	r4,a
      007D34 E9               [12]  937 	mov	a,r1
      007D35 9D               [12]  938 	subb	a,r5
      007D36 FD               [12]  939 	mov	r5,a
      007D37 EA               [12]  940 	mov	a,r2
      007D38 9E               [12]  941 	subb	a,r6
      007D39 FE               [12]  942 	mov	r6,a
      007D3A EB               [12]  943 	mov	a,r3
      007D3B 9F               [12]  944 	subb	a,r7
      007D3C FF               [12]  945 	mov	r7,a
      007D3D C0 04            [24]  946 	push	ar4
      007D3F C0 05            [24]  947 	push	ar5
      007D41 C0 06            [24]  948 	push	ar6
      007D43 C0 07            [24]  949 	push	ar7
      007D45 74 29            [12]  950 	mov	a,#___str_0
      007D47 C0 E0            [24]  951 	push	acc
      007D49 74 D6            [12]  952 	mov	a,#(___str_0 >> 8)
      007D4B C0 E0            [24]  953 	push	acc
      007D4D 12 71 BC         [24]  954 	lcall	_pr
      007D50 E5 81            [12]  955 	mov	a,sp
      007D52 24 FA            [12]  956 	add	a,#0xfa
      007D54 F5 81            [12]  957 	mov	sp,a
                                    958 ;	board/zbs29_BW_ssd1619/screen.c:130: while (1)
      007D56                        959 00107$:
      007D56 80 FE            [24]  960 	sjmp	00107$
      007D58                        961 00109$:
                                    962 ;	board/zbs29_BW_ssd1619/screen.c:132: }
      007D58 D0 00            [24]  963 	pop	ar0
      007D5A D0 01            [24]  964 	pop	ar1
      007D5C D0 02            [24]  965 	pop	ar2
      007D5E D0 03            [24]  966 	pop	ar3
      007D60 D0 04            [24]  967 	pop	ar4
      007D62 D0 05            [24]  968 	pop	ar5
      007D64 D0 06            [24]  969 	pop	ar6
      007D66 D0 07            [24]  970 	pop	ar7
      007D68 22               [24]  971 	ret
                                    972 ;------------------------------------------------------------
                                    973 ;Allocation info for local variables in function 'commandReadBegin'
                                    974 ;------------------------------------------------------------
                                    975 ;cmd                       Allocated with name '_commandReadBegin_cmd_65536_126'
                                    976 ;------------------------------------------------------------
                                    977 ;	board/zbs29_BW_ssd1619/screen.c:133: static void commandReadBegin(uint8_t cmd) {
                                    978 ;	-----------------------------------------
                                    979 ;	 function commandReadBegin
                                    980 ;	-----------------------------------------
      007D69                        981 _commandReadBegin:
      007D69 E5 82            [12]  982 	mov	a,dpl
      007D6B 90 E6 36         [24]  983 	mov	dptr,#_commandReadBegin_cmd_65536_126
      007D6E F0               [24]  984 	movx	@dptr,a
                                    985 ;	board/zbs29_BW_ssd1619/screen.c:134: epdSelect();
                                    986 ;	assignBit
      007D6F C2 97            [12]  987 	clr	_P1_7
                                    988 ;	board/zbs29_BW_ssd1619/screen.c:135: markCommand();
                                    989 ;	assignBit
      007D71 C2 A2            [12]  990 	clr	_P2_2
                                    991 ;	board/zbs29_BW_ssd1619/screen.c:136: spiByte(cmd);  // dump LUT
      007D73 90 E6 36         [24]  992 	mov	dptr,#_commandReadBegin_cmd_65536_126
      007D76 E0               [24]  993 	movx	a,@dptr
      007D77 F5 82            [12]  994 	mov	dpl,a
      007D79 12 5C 8F         [24]  995 	lcall	_spiByte
                                    996 ;	board/zbs29_BW_ssd1619/screen.c:138: P0DIR = (P0DIR & ~(1 << 0)) | (1 << 1);
      007D7C 74 FE            [12]  997 	mov	a,#0xfe
      007D7E 55 B9            [12]  998 	anl	a,_P0DIR
      007D80 44 02            [12]  999 	orl	a,#0x02
      007D82 F5 B9            [12] 1000 	mov	_P0DIR,a
                                   1001 ;	board/zbs29_BW_ssd1619/screen.c:139: P0 &= ~(1 << 0);
      007D84 53 80 FE         [24] 1002 	anl	_P0,#0xfe
                                   1003 ;	board/zbs29_BW_ssd1619/screen.c:140: P0FUNC &= ~((1 << 0) | (1 << 1));
      007D87 53 AD FC         [24] 1004 	anl	_P0FUNC,#0xfc
                                   1005 ;	board/zbs29_BW_ssd1619/screen.c:141: P2_2 = 1;
                                   1006 ;	assignBit
      007D8A D2 A2            [12] 1007 	setb	_P2_2
                                   1008 ;	board/zbs29_BW_ssd1619/screen.c:142: }
      007D8C 22               [24] 1009 	ret
                                   1010 ;------------------------------------------------------------
                                   1011 ;Allocation info for local variables in function 'commandReadEnd'
                                   1012 ;------------------------------------------------------------
                                   1013 ;	board/zbs29_BW_ssd1619/screen.c:143: static void commandReadEnd() {
                                   1014 ;	-----------------------------------------
                                   1015 ;	 function commandReadEnd
                                   1016 ;	-----------------------------------------
      007D8D                       1017 _commandReadEnd:
                                   1018 ;	board/zbs29_BW_ssd1619/screen.c:145: P0FUNC |= (1 << 0) | (1 << 1);
      007D8D 43 AD 03         [24] 1019 	orl	_P0FUNC,#0x03
                                   1020 ;	board/zbs29_BW_ssd1619/screen.c:146: epdDeselect();
                                   1021 ;	assignBit
      007D90 D2 97            [12] 1022 	setb	_P1_7
                                   1023 ;	board/zbs29_BW_ssd1619/screen.c:147: }
      007D92 22               [24] 1024 	ret
                                   1025 ;------------------------------------------------------------
                                   1026 ;Allocation info for local variables in function 'epdReadByte'
                                   1027 ;------------------------------------------------------------
                                   1028 ;val                       Allocated with name '_epdReadByte_val_65536_132'
                                   1029 ;i                         Allocated with name '_epdReadByte_i_65536_132'
                                   1030 ;------------------------------------------------------------
                                   1031 ;	board/zbs29_BW_ssd1619/screen.c:149: static uint8_t epdReadByte() {
                                   1032 ;	-----------------------------------------
                                   1033 ;	 function epdReadByte
                                   1034 ;	-----------------------------------------
      007D93                       1035 _epdReadByte:
      007D93 C0 07            [24] 1036 	push	ar7
      007D95 C0 06            [24] 1037 	push	ar6
                                   1038 ;	board/zbs29_BW_ssd1619/screen.c:150: uint8_t val = 0, i;
      007D97 90 E6 37         [24] 1039 	mov	dptr,#_epdReadByte_val_65536_132
      007D9A E4               [12] 1040 	clr	a
      007D9B F0               [24] 1041 	movx	@dptr,a
                                   1042 ;	board/zbs29_BW_ssd1619/screen.c:152: for (i = 0; i < 8; i++) {
      007D9C 7F 00            [12] 1043 	mov	r7,#0x00
      007D9E                       1044 00104$:
                                   1045 ;	board/zbs29_BW_ssd1619/screen.c:153: P0_0 = 1;
                                   1046 ;	assignBit
      007D9E D2 80            [12] 1047 	setb	_P0_0
                                   1048 ;	board/zbs29_BW_ssd1619/screen.c:154: __asm__("nop\nnop\nnop\nnop\nnop\nnop\n");
      007DA0 00               [12] 1049 	nop
      007DA1 00               [12] 1050 	nop
      007DA2 00               [12] 1051 	nop
      007DA3 00               [12] 1052 	nop
      007DA4 00               [12] 1053 	nop
      007DA5 00               [12] 1054 	nop
                                   1055 ;	board/zbs29_BW_ssd1619/screen.c:155: val <<= 1;
      007DA6 90 E6 37         [24] 1056 	mov	dptr,#_epdReadByte_val_65536_132
      007DA9 E0               [24] 1057 	movx	a,@dptr
      007DAA 25 E0            [12] 1058 	add	a,acc
      007DAC FE               [12] 1059 	mov	r6,a
      007DAD F0               [24] 1060 	movx	@dptr,a
                                   1061 ;	board/zbs29_BW_ssd1619/screen.c:156: if (P0_1)
      007DAE 30 81 07         [24] 1062 	jnb	_P0_1,00102$
                                   1063 ;	board/zbs29_BW_ssd1619/screen.c:157: val++;
      007DB1 90 E6 37         [24] 1064 	mov	dptr,#_epdReadByte_val_65536_132
      007DB4 E0               [24] 1065 	movx	a,@dptr
      007DB5 24 01            [12] 1066 	add	a,#0x01
      007DB7 F0               [24] 1067 	movx	@dptr,a
      007DB8                       1068 00102$:
                                   1069 ;	board/zbs29_BW_ssd1619/screen.c:158: P0_0 = 0;
                                   1070 ;	assignBit
      007DB8 C2 80            [12] 1071 	clr	_P0_0
                                   1072 ;	board/zbs29_BW_ssd1619/screen.c:159: __asm__("nop\nnop\nnop\nnop\nnop\nnop\n");
      007DBA 00               [12] 1073 	nop
      007DBB 00               [12] 1074 	nop
      007DBC 00               [12] 1075 	nop
      007DBD 00               [12] 1076 	nop
      007DBE 00               [12] 1077 	nop
      007DBF 00               [12] 1078 	nop
                                   1079 ;	board/zbs29_BW_ssd1619/screen.c:152: for (i = 0; i < 8; i++) {
      007DC0 0F               [12] 1080 	inc	r7
      007DC1 BF 08 00         [24] 1081 	cjne	r7,#0x08,00122$
      007DC4                       1082 00122$:
      007DC4 40 D8            [24] 1083 	jc	00104$
                                   1084 ;	board/zbs29_BW_ssd1619/screen.c:162: return val;
      007DC6 90 E6 37         [24] 1085 	mov	dptr,#_epdReadByte_val_65536_132
      007DC9 E0               [24] 1086 	movx	a,@dptr
      007DCA F5 82            [12] 1087 	mov	dpl,a
                                   1088 ;	board/zbs29_BW_ssd1619/screen.c:163: }
      007DCC D0 06            [24] 1089 	pop	ar6
      007DCE D0 07            [24] 1090 	pop	ar7
      007DD0 22               [24] 1091 	ret
                                   1092 ;------------------------------------------------------------
                                   1093 ;Allocation info for local variables in function 'shortCommand'
                                   1094 ;------------------------------------------------------------
                                   1095 ;cmd                       Allocated with name '_shortCommand_cmd_65536_135'
                                   1096 ;------------------------------------------------------------
                                   1097 ;	board/zbs29_BW_ssd1619/screen.c:164: static void shortCommand(uint8_t cmd) {
                                   1098 ;	-----------------------------------------
                                   1099 ;	 function shortCommand
                                   1100 ;	-----------------------------------------
      007DD1                       1101 _shortCommand:
      007DD1 E5 82            [12] 1102 	mov	a,dpl
      007DD3 90 E6 38         [24] 1103 	mov	dptr,#_shortCommand_cmd_65536_135
      007DD6 F0               [24] 1104 	movx	@dptr,a
                                   1105 ;	board/zbs29_BW_ssd1619/screen.c:165: epdSelect();
                                   1106 ;	assignBit
      007DD7 C2 97            [12] 1107 	clr	_P1_7
                                   1108 ;	board/zbs29_BW_ssd1619/screen.c:166: markCommand();
                                   1109 ;	assignBit
      007DD9 C2 A2            [12] 1110 	clr	_P2_2
                                   1111 ;	board/zbs29_BW_ssd1619/screen.c:167: spiTXByte(cmd);
      007DDB 90 E6 38         [24] 1112 	mov	dptr,#_shortCommand_cmd_65536_135
      007DDE E0               [24] 1113 	movx	a,@dptr
      007DDF F5 82            [12] 1114 	mov	dpl,a
      007DE1 12 5C C3         [24] 1115 	lcall	_spiTXByte
                                   1116 ;	board/zbs29_BW_ssd1619/screen.c:168: epdDeselect();
                                   1117 ;	assignBit
      007DE4 D2 97            [12] 1118 	setb	_P1_7
                                   1119 ;	board/zbs29_BW_ssd1619/screen.c:169: }
      007DE6 22               [24] 1120 	ret
                                   1121 ;------------------------------------------------------------
                                   1122 ;Allocation info for local variables in function 'shortCommand1'
                                   1123 ;------------------------------------------------------------
                                   1124 ;arg                       Allocated with name '_shortCommand1_PARM_2'
                                   1125 ;cmd                       Allocated with name '_shortCommand1_cmd_65536_140'
                                   1126 ;------------------------------------------------------------
                                   1127 ;	board/zbs29_BW_ssd1619/screen.c:170: static void shortCommand1(uint8_t cmd, uint8_t arg) {
                                   1128 ;	-----------------------------------------
                                   1129 ;	 function shortCommand1
                                   1130 ;	-----------------------------------------
      007DE7                       1131 _shortCommand1:
      007DE7 E5 82            [12] 1132 	mov	a,dpl
      007DE9 90 E6 3A         [24] 1133 	mov	dptr,#_shortCommand1_cmd_65536_140
      007DEC F0               [24] 1134 	movx	@dptr,a
                                   1135 ;	board/zbs29_BW_ssd1619/screen.c:171: epdSelect();
                                   1136 ;	assignBit
      007DED C2 97            [12] 1137 	clr	_P1_7
                                   1138 ;	board/zbs29_BW_ssd1619/screen.c:172: markCommand();
                                   1139 ;	assignBit
      007DEF C2 A2            [12] 1140 	clr	_P2_2
                                   1141 ;	board/zbs29_BW_ssd1619/screen.c:173: spiTXByte(cmd);
      007DF1 90 E6 3A         [24] 1142 	mov	dptr,#_shortCommand1_cmd_65536_140
      007DF4 E0               [24] 1143 	movx	a,@dptr
      007DF5 F5 82            [12] 1144 	mov	dpl,a
      007DF7 12 5C C3         [24] 1145 	lcall	_spiTXByte
                                   1146 ;	board/zbs29_BW_ssd1619/screen.c:174: markData();
                                   1147 ;	assignBit
      007DFA D2 A2            [12] 1148 	setb	_P2_2
                                   1149 ;	board/zbs29_BW_ssd1619/screen.c:175: spiTXByte(arg);
      007DFC 90 E6 39         [24] 1150 	mov	dptr,#_shortCommand1_PARM_2
      007DFF E0               [24] 1151 	movx	a,@dptr
      007E00 F5 82            [12] 1152 	mov	dpl,a
      007E02 12 5C C3         [24] 1153 	lcall	_spiTXByte
                                   1154 ;	board/zbs29_BW_ssd1619/screen.c:176: epdDeselect();
                                   1155 ;	assignBit
      007E05 D2 97            [12] 1156 	setb	_P1_7
                                   1157 ;	board/zbs29_BW_ssd1619/screen.c:177: }
      007E07 22               [24] 1158 	ret
                                   1159 ;------------------------------------------------------------
                                   1160 ;Allocation info for local variables in function 'shortCommand2'
                                   1161 ;------------------------------------------------------------
                                   1162 ;arg1                      Allocated with name '_shortCommand2_PARM_2'
                                   1163 ;arg2                      Allocated with name '_shortCommand2_PARM_3'
                                   1164 ;cmd                       Allocated with name '_shortCommand2_cmd_65536_146'
                                   1165 ;------------------------------------------------------------
                                   1166 ;	board/zbs29_BW_ssd1619/screen.c:178: static void shortCommand2(uint8_t cmd, uint8_t arg1, uint8_t arg2) {
                                   1167 ;	-----------------------------------------
                                   1168 ;	 function shortCommand2
                                   1169 ;	-----------------------------------------
      007E08                       1170 _shortCommand2:
      007E08 E5 82            [12] 1171 	mov	a,dpl
      007E0A 90 E6 3D         [24] 1172 	mov	dptr,#_shortCommand2_cmd_65536_146
      007E0D F0               [24] 1173 	movx	@dptr,a
                                   1174 ;	board/zbs29_BW_ssd1619/screen.c:179: epdSelect();
                                   1175 ;	assignBit
      007E0E C2 97            [12] 1176 	clr	_P1_7
                                   1177 ;	board/zbs29_BW_ssd1619/screen.c:180: markCommand();
                                   1178 ;	assignBit
      007E10 C2 A2            [12] 1179 	clr	_P2_2
                                   1180 ;	board/zbs29_BW_ssd1619/screen.c:181: spiTXByte(cmd);
      007E12 90 E6 3D         [24] 1181 	mov	dptr,#_shortCommand2_cmd_65536_146
      007E15 E0               [24] 1182 	movx	a,@dptr
      007E16 F5 82            [12] 1183 	mov	dpl,a
      007E18 12 5C C3         [24] 1184 	lcall	_spiTXByte
                                   1185 ;	board/zbs29_BW_ssd1619/screen.c:182: markData();
                                   1186 ;	assignBit
      007E1B D2 A2            [12] 1187 	setb	_P2_2
                                   1188 ;	board/zbs29_BW_ssd1619/screen.c:183: spiTXByte(arg1);
      007E1D 90 E6 3B         [24] 1189 	mov	dptr,#_shortCommand2_PARM_2
      007E20 E0               [24] 1190 	movx	a,@dptr
      007E21 F5 82            [12] 1191 	mov	dpl,a
      007E23 12 5C C3         [24] 1192 	lcall	_spiTXByte
                                   1193 ;	board/zbs29_BW_ssd1619/screen.c:184: spiTXByte(arg2);
      007E26 90 E6 3C         [24] 1194 	mov	dptr,#_shortCommand2_PARM_3
      007E29 E0               [24] 1195 	movx	a,@dptr
      007E2A F5 82            [12] 1196 	mov	dpl,a
      007E2C 12 5C C3         [24] 1197 	lcall	_spiTXByte
                                   1198 ;	board/zbs29_BW_ssd1619/screen.c:185: epdDeselect();
                                   1199 ;	assignBit
      007E2F D2 97            [12] 1200 	setb	_P1_7
                                   1201 ;	board/zbs29_BW_ssd1619/screen.c:186: }
      007E31 22               [24] 1202 	ret
                                   1203 ;------------------------------------------------------------
                                   1204 ;Allocation info for local variables in function 'commandBegin'
                                   1205 ;------------------------------------------------------------
                                   1206 ;cmd                       Allocated with name '_commandBegin_cmd_65536_152'
                                   1207 ;------------------------------------------------------------
                                   1208 ;	board/zbs29_BW_ssd1619/screen.c:187: static void commandBegin(uint8_t cmd) {
                                   1209 ;	-----------------------------------------
                                   1210 ;	 function commandBegin
                                   1211 ;	-----------------------------------------
      007E32                       1212 _commandBegin:
      007E32 E5 82            [12] 1213 	mov	a,dpl
      007E34 90 E6 3E         [24] 1214 	mov	dptr,#_commandBegin_cmd_65536_152
      007E37 F0               [24] 1215 	movx	@dptr,a
                                   1216 ;	board/zbs29_BW_ssd1619/screen.c:188: epdSelect();
                                   1217 ;	assignBit
      007E38 C2 97            [12] 1218 	clr	_P1_7
                                   1219 ;	board/zbs29_BW_ssd1619/screen.c:189: markCommand();
                                   1220 ;	assignBit
      007E3A C2 A2            [12] 1221 	clr	_P2_2
                                   1222 ;	board/zbs29_BW_ssd1619/screen.c:190: spiTXByte(cmd);
      007E3C 90 E6 3E         [24] 1223 	mov	dptr,#_commandBegin_cmd_65536_152
      007E3F E0               [24] 1224 	movx	a,@dptr
      007E40 F5 82            [12] 1225 	mov	dpl,a
      007E42 12 5C C3         [24] 1226 	lcall	_spiTXByte
                                   1227 ;	board/zbs29_BW_ssd1619/screen.c:191: markData();
                                   1228 ;	assignBit
      007E45 D2 A2            [12] 1229 	setb	_P2_2
                                   1230 ;	board/zbs29_BW_ssd1619/screen.c:192: }
      007E47 22               [24] 1231 	ret
                                   1232 ;------------------------------------------------------------
                                   1233 ;Allocation info for local variables in function 'epdReset'
                                   1234 ;------------------------------------------------------------
                                   1235 ;	board/zbs29_BW_ssd1619/screen.c:193: static void epdReset() {
                                   1236 ;	-----------------------------------------
                                   1237 ;	 function epdReset
                                   1238 ;	-----------------------------------------
      007E48                       1239 _epdReset:
                                   1240 ;	board/zbs29_BW_ssd1619/screen.c:194: timerDelay(TIMER_TICKS_PER_SECOND / 100);
      007E48 90 34 15         [24] 1241 	mov	dptr,#0x3415
      007E4B E4               [12] 1242 	clr	a
      007E4C F5 F0            [12] 1243 	mov	b,a
      007E4E 12 5D B9         [24] 1244 	lcall	_timerDelay
                                   1245 ;	board/zbs29_BW_ssd1619/screen.c:195: P2_0 = 0;
                                   1246 ;	assignBit
      007E51 C2 A0            [12] 1247 	clr	_P2_0
                                   1248 ;	board/zbs29_BW_ssd1619/screen.c:196: timerDelay(TIMER_TICKS_PER_SECOND / 100);
      007E53 90 34 15         [24] 1249 	mov	dptr,#0x3415
      007E56 E4               [12] 1250 	clr	a
      007E57 F5 F0            [12] 1251 	mov	b,a
      007E59 12 5D B9         [24] 1252 	lcall	_timerDelay
                                   1253 ;	board/zbs29_BW_ssd1619/screen.c:197: P2_0 = 1;
                                   1254 ;	assignBit
      007E5C D2 A0            [12] 1255 	setb	_P2_0
                                   1256 ;	board/zbs29_BW_ssd1619/screen.c:198: timerDelay(TIMER_TICKS_PER_SECOND / 100);
      007E5E 90 34 15         [24] 1257 	mov	dptr,#0x3415
      007E61 E4               [12] 1258 	clr	a
      007E62 F5 F0            [12] 1259 	mov	b,a
      007E64 12 5D B9         [24] 1260 	lcall	_timerDelay
                                   1261 ;	board/zbs29_BW_ssd1619/screen.c:200: shortCommand(CMD_SOFT_RESET);  // software reset
      007E67 75 82 12         [24] 1262 	mov	dpl,#0x12
      007E6A 12 7D D1         [24] 1263 	lcall	_shortCommand
                                   1264 ;	board/zbs29_BW_ssd1619/screen.c:201: timerDelay(TIMER_TICKS_PER_SECOND / 100);
      007E6D 90 34 15         [24] 1265 	mov	dptr,#0x3415
      007E70 E4               [12] 1266 	clr	a
      007E71 F5 F0            [12] 1267 	mov	b,a
                                   1268 ;	board/zbs29_BW_ssd1619/screen.c:204: }
      007E73 02 5D B9         [24] 1269 	ljmp	_timerDelay
                                   1270 ;------------------------------------------------------------
                                   1271 ;Allocation info for local variables in function 'epdConfigGPIO'
                                   1272 ;------------------------------------------------------------
                                   1273 ;setup                     Allocated with name '_epdConfigGPIO_setup_65536_158'
                                   1274 ;------------------------------------------------------------
                                   1275 ;	board/zbs29_BW_ssd1619/screen.c:205: void epdConfigGPIO(bool setup) {
                                   1276 ;	-----------------------------------------
                                   1277 ;	 function epdConfigGPIO
                                   1278 ;	-----------------------------------------
      007E76                       1279 _epdConfigGPIO:
      007E76 E5 82            [12] 1280 	mov	a,dpl
      007E78 90 E6 3F         [24] 1281 	mov	dptr,#_epdConfigGPIO_setup_65536_158
      007E7B F0               [24] 1282 	movx	@dptr,a
                                   1283 ;	board/zbs29_BW_ssd1619/screen.c:215: if (epdGPIOActive == setup) return;
      007E7C 90 FD 16         [24] 1284 	mov	dptr,#_epdGPIOActive
      007E7F E0               [24] 1285 	movx	a,@dptr
      007E80 FF               [12] 1286 	mov	r7,a
      007E81 90 E6 3F         [24] 1287 	mov	dptr,#_epdConfigGPIO_setup_65536_158
      007E84 E0               [24] 1288 	movx	a,@dptr
      007E85 FE               [12] 1289 	mov	r6,a
      007E86 EF               [12] 1290 	mov	a,r7
      007E87 B5 06 01         [24] 1291 	cjne	a,ar6,00102$
      007E8A 22               [24] 1292 	ret
      007E8B                       1293 00102$:
                                   1294 ;	board/zbs29_BW_ssd1619/screen.c:216: if (setup) {
      007E8B EE               [12] 1295 	mov	a,r6
      007E8C 60 0F            [24] 1296 	jz	00104$
                                   1297 ;	board/zbs29_BW_ssd1619/screen.c:217: P2DIR |= (1 << 1);                // busy as input
      007E8E 43 BB 02         [24] 1298 	orl	_P2DIR,#0x02
                                   1299 ;	board/zbs29_BW_ssd1619/screen.c:218: P2DIR &= ~((1 << 2) | (1 << 0));  // D/C and Reset as output
      007E91 53 BB FA         [24] 1300 	anl	_P2DIR,#0xfa
                                   1301 ;	board/zbs29_BW_ssd1619/screen.c:219: P1DIR &= ~((1 << 7) | (1 << 2) | (1 << 5));  // select and bs1 as output
      007E94 53 BA 5B         [24] 1302 	anl	_P1DIR,#0x5b
                                   1303 ;	board/zbs29_BW_ssd1619/screen.c:221: P1_5 = 0;
                                   1304 ;	assignBit
      007E97 C2 95            [12] 1305 	clr	_P1_5
                                   1306 ;	board/zbs29_BW_ssd1619/screen.c:222: P1_7 = 1;                         // deselect EPD
                                   1307 ;	assignBit
      007E99 D2 97            [12] 1308 	setb	_P1_7
      007E9B 80 0C            [24] 1309 	sjmp	00105$
      007E9D                       1310 00104$:
                                   1311 ;	board/zbs29_BW_ssd1619/screen.c:224: P2DIR |= ((1 << 2) | (1 << 0));  // DC and Reset as input
      007E9D 43 BB 05         [24] 1312 	orl	_P2DIR,#0x05
                                   1313 ;	board/zbs29_BW_ssd1619/screen.c:225: P2 &= ~((1 << 2) | (1 << 0));
      007EA0 53 A0 FA         [24] 1314 	anl	_P2,#0xfa
                                   1315 ;	board/zbs29_BW_ssd1619/screen.c:226: P1DIR |= ((1 << 7) | (1 << 2));  // Select and BS1 as input
      007EA3 43 BA 84         [24] 1316 	orl	_P1DIR,#0x84
                                   1317 ;	board/zbs29_BW_ssd1619/screen.c:227: P2 &= ~((1 << 7));
      007EA6 53 A0 7F         [24] 1318 	anl	_P2,#0x7f
      007EA9                       1319 00105$:
                                   1320 ;	board/zbs29_BW_ssd1619/screen.c:229: epdGPIOActive = setup;
      007EA9 90 E6 3F         [24] 1321 	mov	dptr,#_epdConfigGPIO_setup_65536_158
      007EAC E0               [24] 1322 	movx	a,@dptr
      007EAD 90 FD 16         [24] 1323 	mov	dptr,#_epdGPIOActive
      007EB0 F0               [24] 1324 	movx	@dptr,a
                                   1325 ;	board/zbs29_BW_ssd1619/screen.c:230: }
      007EB1 22               [24] 1326 	ret
                                   1327 ;------------------------------------------------------------
                                   1328 ;Allocation info for local variables in function 'epdEnterSleep'
                                   1329 ;------------------------------------------------------------
                                   1330 ;	board/zbs29_BW_ssd1619/screen.c:231: void epdEnterSleep() {
                                   1331 ;	-----------------------------------------
                                   1332 ;	 function epdEnterSleep
                                   1333 ;	-----------------------------------------
      007EB2                       1334 _epdEnterSleep:
                                   1335 ;	board/zbs29_BW_ssd1619/screen.c:232: P2_0 = 0;
                                   1336 ;	assignBit
      007EB2 C2 A0            [12] 1337 	clr	_P2_0
                                   1338 ;	board/zbs29_BW_ssd1619/screen.c:233: timerDelay(10);
      007EB4 90 00 0A         [24] 1339 	mov	dptr,#(0x0a&0x00ff)
      007EB7 E4               [12] 1340 	clr	a
      007EB8 F5 F0            [12] 1341 	mov	b,a
      007EBA 12 5D B9         [24] 1342 	lcall	_timerDelay
                                   1343 ;	board/zbs29_BW_ssd1619/screen.c:234: P2_0 = 1;
                                   1344 ;	assignBit
      007EBD D2 A0            [12] 1345 	setb	_P2_0
                                   1346 ;	board/zbs29_BW_ssd1619/screen.c:235: timerDelay(50);
      007EBF 90 00 32         [24] 1347 	mov	dptr,#(0x32&0x00ff)
      007EC2 E4               [12] 1348 	clr	a
      007EC3 F5 F0            [12] 1349 	mov	b,a
      007EC5 12 5D B9         [24] 1350 	lcall	_timerDelay
                                   1351 ;	board/zbs29_BW_ssd1619/screen.c:236: epdReset();
      007EC8 12 7E 48         [24] 1352 	lcall	_epdReset
                                   1353 ;	board/zbs29_BW_ssd1619/screen.c:237: shortCommand(CMD_SOFT_RESET2);
      007ECB 75 82 13         [24] 1354 	mov	dpl,#0x13
      007ECE 12 7D D1         [24] 1355 	lcall	_shortCommand
                                   1356 ;	board/zbs29_BW_ssd1619/screen.c:238: epdBusyWait(TIMER_TICKS_PER_MS * 15);
      007ED1 90 4E 1B         [24] 1357 	mov	dptr,#0x4e1b
      007ED4 E4               [12] 1358 	clr	a
      007ED5 F5 F0            [12] 1359 	mov	b,a
      007ED7 12 7C BA         [24] 1360 	lcall	_epdBusyWait
                                   1361 ;	board/zbs29_BW_ssd1619/screen.c:239: shortCommand1(CMD_ENTER_SLEEP, 0x03);
      007EDA 90 E6 39         [24] 1362 	mov	dptr,#_shortCommand1_PARM_2
      007EDD 74 03            [12] 1363 	mov	a,#0x03
      007EDF F0               [24] 1364 	movx	@dptr,a
      007EE0 75 82 10         [24] 1365 	mov	dpl,#0x10
      007EE3 12 7D E7         [24] 1366 	lcall	_shortCommand1
                                   1367 ;	board/zbs29_BW_ssd1619/screen.c:240: isInited = false;
      007EE6 90 FD 15         [24] 1368 	mov	dptr,#_isInited
      007EE9 E4               [12] 1369 	clr	a
      007EEA F0               [24] 1370 	movx	@dptr,a
                                   1371 ;	board/zbs29_BW_ssd1619/screen.c:241: }
      007EEB 22               [24] 1372 	ret
                                   1373 ;------------------------------------------------------------
                                   1374 ;Allocation info for local variables in function 'epdSetup'
                                   1375 ;------------------------------------------------------------
                                   1376 ;	board/zbs29_BW_ssd1619/screen.c:242: void epdSetup() {
                                   1377 ;	-----------------------------------------
                                   1378 ;	 function epdSetup
                                   1379 ;	-----------------------------------------
      007EEC                       1380 _epdSetup:
                                   1381 ;	board/zbs29_BW_ssd1619/screen.c:243: epdReset();
      007EEC 12 7E 48         [24] 1382 	lcall	_epdReset
                                   1383 ;	board/zbs29_BW_ssd1619/screen.c:244: shortCommand1(CMD_ANALOG_BLK_CTRL, 0x54);
      007EEF 90 E6 39         [24] 1384 	mov	dptr,#_shortCommand1_PARM_2
      007EF2 74 54            [12] 1385 	mov	a,#0x54
      007EF4 F0               [24] 1386 	movx	@dptr,a
      007EF5 75 82 74         [24] 1387 	mov	dpl,#0x74
      007EF8 12 7D E7         [24] 1388 	lcall	_shortCommand1
                                   1389 ;	board/zbs29_BW_ssd1619/screen.c:245: shortCommand1(CMD_DIGITAL_BLK_CTRL, 0x3B);
      007EFB 90 E6 39         [24] 1390 	mov	dptr,#_shortCommand1_PARM_2
      007EFE 74 3B            [12] 1391 	mov	a,#0x3b
      007F00 F0               [24] 1392 	movx	@dptr,a
      007F01 75 82 7E         [24] 1393 	mov	dpl,#0x7e
      007F04 12 7D E7         [24] 1394 	lcall	_shortCommand1
                                   1395 ;	board/zbs29_BW_ssd1619/screen.c:246: shortCommand2(CMD_UNKNOWN_1, 0x04, 0x63);
      007F07 90 E6 3B         [24] 1396 	mov	dptr,#_shortCommand2_PARM_2
      007F0A 74 04            [12] 1397 	mov	a,#0x04
      007F0C F0               [24] 1398 	movx	@dptr,a
      007F0D 90 E6 3C         [24] 1399 	mov	dptr,#_shortCommand2_PARM_3
      007F10 74 63            [12] 1400 	mov	a,#0x63
      007F12 F0               [24] 1401 	movx	@dptr,a
      007F13 75 82 2B         [24] 1402 	mov	dpl,#0x2b
      007F16 12 7E 08         [24] 1403 	lcall	_shortCommand2
                                   1404 ;	board/zbs29_BW_ssd1619/screen.c:248: commandBegin(CMD_SOFT_START_CTRL);
      007F19 75 82 0C         [24] 1405 	mov	dpl,#0x0c
      007F1C 12 7E 32         [24] 1406 	lcall	_commandBegin
                                   1407 ;	board/zbs29_BW_ssd1619/screen.c:249: epdSend(0x8f);
      007F1F 75 82 8F         [24] 1408 	mov	dpl,#0x8f
      007F22 12 5C C3         [24] 1409 	lcall	_spiTXByte
                                   1410 ;	board/zbs29_BW_ssd1619/screen.c:250: epdSend(0x8f);
      007F25 75 82 8F         [24] 1411 	mov	dpl,#0x8f
      007F28 12 5C C3         [24] 1412 	lcall	_spiTXByte
                                   1413 ;	board/zbs29_BW_ssd1619/screen.c:251: epdSend(0x8f);
      007F2B 75 82 8F         [24] 1414 	mov	dpl,#0x8f
      007F2E 12 5C C3         [24] 1415 	lcall	_spiTXByte
                                   1416 ;	board/zbs29_BW_ssd1619/screen.c:252: epdSend(0x3f);
      007F31 75 82 3F         [24] 1417 	mov	dpl,#0x3f
      007F34 12 5C C3         [24] 1418 	lcall	_spiTXByte
                                   1419 ;	board/zbs29_BW_ssd1619/screen.c:253: commandEnd();
                                   1420 ;	assignBit
      007F37 D2 97            [12] 1421 	setb	_P1_7
                                   1422 ;	board/zbs29_BW_ssd1619/screen.c:255: commandBegin(CMD_DRV_OUTPUT_CTRL);
      007F39 75 82 01         [24] 1423 	mov	dpl,#0x01
      007F3C 12 7E 32         [24] 1424 	lcall	_commandBegin
                                   1425 ;	board/zbs29_BW_ssd1619/screen.c:256: epdSend((SCREEN_HEIGHT - 1) & 0xff);
      007F3F 75 82 27         [24] 1426 	mov	dpl,#0x27
      007F42 12 5C C3         [24] 1427 	lcall	_spiTXByte
                                   1428 ;	board/zbs29_BW_ssd1619/screen.c:257: epdSend((SCREEN_HEIGHT - 1) >> 8);
      007F45 75 82 01         [24] 1429 	mov	dpl,#0x01
      007F48 12 5C C3         [24] 1430 	lcall	_spiTXByte
                                   1431 ;	board/zbs29_BW_ssd1619/screen.c:258: epdSend(0x00);
      007F4B 75 82 00         [24] 1432 	mov	dpl,#0x00
      007F4E 12 5C C3         [24] 1433 	lcall	_spiTXByte
                                   1434 ;	board/zbs29_BW_ssd1619/screen.c:259: commandEnd();
                                   1435 ;	assignBit
      007F51 D2 97            [12] 1436 	setb	_P1_7
                                   1437 ;	board/zbs29_BW_ssd1619/screen.c:263: shortCommand1(CMD_BORDER_WAVEFORM_CTRL, 0x01);
      007F53 90 E6 39         [24] 1438 	mov	dptr,#_shortCommand1_PARM_2
      007F56 74 01            [12] 1439 	mov	a,#0x01
      007F58 F0               [24] 1440 	movx	@dptr,a
      007F59 75 82 3C         [24] 1441 	mov	dpl,#0x3c
      007F5C 12 7D E7         [24] 1442 	lcall	_shortCommand1
                                   1443 ;	board/zbs29_BW_ssd1619/screen.c:264: shortCommand1(CMD_TEMP_SENSOR_CONTROL, 0x80);
      007F5F 90 E6 39         [24] 1444 	mov	dptr,#_shortCommand1_PARM_2
      007F62 74 80            [12] 1445 	mov	a,#0x80
      007F64 F0               [24] 1446 	movx	@dptr,a
      007F65 75 82 18         [24] 1447 	mov	dpl,#0x18
      007F68 12 7D E7         [24] 1448 	lcall	_shortCommand1
                                   1449 ;	board/zbs29_BW_ssd1619/screen.c:265: shortCommand1(CMD_DISP_UPDATE_CTRL2, 0xB1);  // mode 1 (i2C)
      007F6B 90 E6 39         [24] 1450 	mov	dptr,#_shortCommand1_PARM_2
      007F6E 74 B1            [12] 1451 	mov	a,#0xb1
      007F70 F0               [24] 1452 	movx	@dptr,a
      007F71 75 82 22         [24] 1453 	mov	dpl,#0x22
      007F74 12 7D E7         [24] 1454 	lcall	_shortCommand1
                                   1455 ;	board/zbs29_BW_ssd1619/screen.c:267: shortCommand(CMD_ACTIVATION);
      007F77 75 82 20         [24] 1456 	mov	dpl,#0x20
      007F7A 12 7D D1         [24] 1457 	lcall	_shortCommand
                                   1458 ;	board/zbs29_BW_ssd1619/screen.c:268: epdBusyWait(TIMER_TICKS_PER_SECOND);
      007F7D 90 58 55         [24] 1459 	mov	dptr,#0x5855
      007F80 75 F0 14         [24] 1460 	mov	b,#0x14
      007F83 E4               [12] 1461 	clr	a
      007F84 12 7C BA         [24] 1462 	lcall	_epdBusyWait
                                   1463 ;	board/zbs29_BW_ssd1619/screen.c:269: isInited = true;
      007F87 90 FD 15         [24] 1464 	mov	dptr,#_isInited
      007F8A 74 01            [12] 1465 	mov	a,#0x01
      007F8C F0               [24] 1466 	movx	@dptr,a
                                   1467 ;	board/zbs29_BW_ssd1619/screen.c:270: currentLut = EPD_LUT_DEFAULT;
      007F8D 90 FD 13         [24] 1468 	mov	dptr,#_currentLut
      007F90 E4               [12] 1469 	clr	a
      007F91 F0               [24] 1470 	movx	@dptr,a
                                   1471 ;	board/zbs29_BW_ssd1619/screen.c:271: }
      007F92 22               [24] 1472 	ret
                                   1473 ;------------------------------------------------------------
                                   1474 ;Allocation info for local variables in function 'epdGetStatus'
                                   1475 ;------------------------------------------------------------
                                   1476 ;sta                       Allocated with name '_epdGetStatus_sta_65536_166'
                                   1477 ;------------------------------------------------------------
                                   1478 ;	board/zbs29_BW_ssd1619/screen.c:272: static uint8_t epdGetStatus() {
                                   1479 ;	-----------------------------------------
                                   1480 ;	 function epdGetStatus
                                   1481 ;	-----------------------------------------
      007F93                       1482 _epdGetStatus:
                                   1483 ;	board/zbs29_BW_ssd1619/screen.c:274: commandReadBegin(0x2F);
      007F93 75 82 2F         [24] 1484 	mov	dpl,#0x2f
      007F96 12 7D 69         [24] 1485 	lcall	_commandReadBegin
                                   1486 ;	board/zbs29_BW_ssd1619/screen.c:275: sta = epdReadByte();
      007F99 12 7D 93         [24] 1487 	lcall	_epdReadByte
      007F9C AF 82            [24] 1488 	mov	r7,dpl
                                   1489 ;	board/zbs29_BW_ssd1619/screen.c:276: commandReadEnd();
      007F9E C0 07            [24] 1490 	push	ar7
      007FA0 12 7D 8D         [24] 1491 	lcall	_commandReadEnd
      007FA3 D0 07            [24] 1492 	pop	ar7
                                   1493 ;	board/zbs29_BW_ssd1619/screen.c:277: return sta;
      007FA5 8F 82            [24] 1494 	mov	dpl,r7
                                   1495 ;	board/zbs29_BW_ssd1619/screen.c:278: }
      007FA7 22               [24] 1496 	ret
                                   1497 ;------------------------------------------------------------
                                   1498 ;Allocation info for local variables in function 'epdGetBattery'
                                   1499 ;------------------------------------------------------------
                                   1500 ;voltage                   Allocated with name '_epdGetBattery_voltage_65536_168'
                                   1501 ;val                       Allocated with name '_epdGetBattery_val_65536_168'
                                   1502 ;------------------------------------------------------------
                                   1503 ;	board/zbs29_BW_ssd1619/screen.c:279: uint16_t epdGetBattery(void) {
                                   1504 ;	-----------------------------------------
                                   1505 ;	 function epdGetBattery
                                   1506 ;	-----------------------------------------
      007FA8                       1507 _epdGetBattery:
                                   1508 ;	board/zbs29_BW_ssd1619/screen.c:280: uint16_t voltage = 2600;
      007FA8 90 E6 40         [24] 1509 	mov	dptr,#_epdGetBattery_voltage_65536_168
      007FAB 74 28            [12] 1510 	mov	a,#0x28
      007FAD F0               [24] 1511 	movx	@dptr,a
      007FAE 74 0A            [12] 1512 	mov	a,#0x0a
      007FB0 A3               [24] 1513 	inc	dptr
      007FB1 F0               [24] 1514 	movx	@dptr,a
                                   1515 ;	board/zbs29_BW_ssd1619/screen.c:283: epdReset(); 
      007FB2 12 7E 48         [24] 1516 	lcall	_epdReset
                                   1517 ;	board/zbs29_BW_ssd1619/screen.c:285: shortCommand1(CMD_DISP_UPDATE_CTRL2, SCREEN_CMD_CLOCK_ON | SCREEN_CMD_ANALOG_ON);
      007FB5 90 E6 39         [24] 1518 	mov	dptr,#_shortCommand1_PARM_2
      007FB8 74 C0            [12] 1519 	mov	a,#0xc0
      007FBA F0               [24] 1520 	movx	@dptr,a
      007FBB 75 82 22         [24] 1521 	mov	dpl,#0x22
      007FBE 12 7D E7         [24] 1522 	lcall	_shortCommand1
                                   1523 ;	board/zbs29_BW_ssd1619/screen.c:286: shortCommand(CMD_ACTIVATION);
      007FC1 75 82 20         [24] 1524 	mov	dpl,#0x20
      007FC4 12 7D D1         [24] 1525 	lcall	_shortCommand
                                   1526 ;	board/zbs29_BW_ssd1619/screen.c:287: epdBusyWait(TIMER_TICKS_PER_MS * 1000);
      007FC7 90 57 08         [24] 1527 	mov	dptr,#0x5708
      007FCA 75 F0 14         [24] 1528 	mov	b,#0x14
      007FCD E4               [12] 1529 	clr	a
      007FCE 12 7C BA         [24] 1530 	lcall	_epdBusyWait
                                   1531 ;	board/zbs29_BW_ssd1619/screen.c:289: for (val = 3; val < 8; val++) {
      007FD1 7F 03            [12] 1532 	mov	r7,#0x03
      007FD3                       1533 00104$:
                                   1534 ;	board/zbs29_BW_ssd1619/screen.c:290: shortCommand1(CMD_SETUP_VOLT_DETECT, val);
      007FD3 90 E6 39         [24] 1535 	mov	dptr,#_shortCommand1_PARM_2
      007FD6 EF               [12] 1536 	mov	a,r7
      007FD7 F0               [24] 1537 	movx	@dptr,a
      007FD8 75 82 15         [24] 1538 	mov	dpl,#0x15
      007FDB C0 07            [24] 1539 	push	ar7
      007FDD 12 7D E7         [24] 1540 	lcall	_shortCommand1
                                   1541 ;	board/zbs29_BW_ssd1619/screen.c:291: epdBusyWait(TIMER_TICKS_PER_MS * 1000);
      007FE0 90 57 08         [24] 1542 	mov	dptr,#0x5708
      007FE3 75 F0 14         [24] 1543 	mov	b,#0x14
      007FE6 E4               [12] 1544 	clr	a
      007FE7 12 7C BA         [24] 1545 	lcall	_epdBusyWait
                                   1546 ;	board/zbs29_BW_ssd1619/screen.c:292: if (epdGetStatus() & 0x10) {  // set if voltage is less than threshold ( == 1.9 + val / 10)
      007FEA 12 7F 93         [24] 1547 	lcall	_epdGetStatus
      007FED E5 82            [12] 1548 	mov	a,dpl
      007FEF D0 07            [24] 1549 	pop	ar7
      007FF1 30 E4 21         [24] 1550 	jnb	acc.4,00105$
                                   1551 ;	board/zbs29_BW_ssd1619/screen.c:293: voltage = 1850 + mathPrvMul8x8(val, 100);
      007FF4 74 64            [12] 1552 	mov	a,#0x64
      007FF6 C0 E0            [24] 1553 	push	acc
      007FF8 8F 82            [24] 1554 	mov	dpl,r7
      007FFA 12 75 04         [24] 1555 	lcall	_mathPrvMul8x8
      007FFD AD 82            [24] 1556 	mov	r5,dpl
      007FFF AE 83            [24] 1557 	mov	r6,dph
      008001 15 81            [12] 1558 	dec	sp
      008003 74 3A            [12] 1559 	mov	a,#0x3a
      008005 2D               [12] 1560 	add	a,r5
      008006 FD               [12] 1561 	mov	r5,a
      008007 74 07            [12] 1562 	mov	a,#0x07
      008009 3E               [12] 1563 	addc	a,r6
      00800A FE               [12] 1564 	mov	r6,a
      00800B 90 E6 40         [24] 1565 	mov	dptr,#_epdGetBattery_voltage_65536_168
      00800E ED               [12] 1566 	mov	a,r5
      00800F F0               [24] 1567 	movx	@dptr,a
      008010 EE               [12] 1568 	mov	a,r6
      008011 A3               [24] 1569 	inc	dptr
      008012 F0               [24] 1570 	movx	@dptr,a
                                   1571 ;	board/zbs29_BW_ssd1619/screen.c:294: break;
      008013 80 06            [24] 1572 	sjmp	00103$
      008015                       1573 00105$:
                                   1574 ;	board/zbs29_BW_ssd1619/screen.c:289: for (val = 3; val < 8; val++) {
      008015 0F               [12] 1575 	inc	r7
      008016 BF 08 00         [24] 1576 	cjne	r7,#0x08,00117$
      008019                       1577 00117$:
      008019 40 B8            [24] 1578 	jc	00104$
      00801B                       1579 00103$:
                                   1580 ;	board/zbs29_BW_ssd1619/screen.c:299: shortCommand1(CMD_ENTER_SLEEP, 0x03);
      00801B 90 E6 39         [24] 1581 	mov	dptr,#_shortCommand1_PARM_2
      00801E 74 03            [12] 1582 	mov	a,#0x03
      008020 F0               [24] 1583 	movx	@dptr,a
      008021 75 82 10         [24] 1584 	mov	dpl,#0x10
      008024 12 7D E7         [24] 1585 	lcall	_shortCommand1
                                   1586 ;	board/zbs29_BW_ssd1619/screen.c:300: return voltage;
      008027 90 E6 40         [24] 1587 	mov	dptr,#_epdGetBattery_voltage_65536_168
      00802A E0               [24] 1588 	movx	a,@dptr
      00802B FE               [12] 1589 	mov	r6,a
      00802C A3               [24] 1590 	inc	dptr
      00802D E0               [24] 1591 	movx	a,@dptr
                                   1592 ;	board/zbs29_BW_ssd1619/screen.c:301: }
      00802E 8E 82            [24] 1593 	mov	dpl,r6
      008030 F5 83            [12] 1594 	mov	dph,a
      008032 22               [24] 1595 	ret
                                   1596 ;------------------------------------------------------------
                                   1597 ;Allocation info for local variables in function 'loadFixedTempOTPLUT'
                                   1598 ;------------------------------------------------------------
                                   1599 ;	board/zbs29_BW_ssd1619/screen.c:303: void loadFixedTempOTPLUT() {
                                   1600 ;	-----------------------------------------
                                   1601 ;	 function loadFixedTempOTPLUT
                                   1602 ;	-----------------------------------------
      008033                       1603 _loadFixedTempOTPLUT:
                                   1604 ;	board/zbs29_BW_ssd1619/screen.c:304: shortCommand1(0x18, 0x48);                   // external temp sensor
      008033 90 E6 39         [24] 1605 	mov	dptr,#_shortCommand1_PARM_2
      008036 74 48            [12] 1606 	mov	a,#0x48
      008038 F0               [24] 1607 	movx	@dptr,a
      008039 75 82 18         [24] 1608 	mov	dpl,#0x18
      00803C 12 7D E7         [24] 1609 	lcall	_shortCommand1
                                   1610 ;	board/zbs29_BW_ssd1619/screen.c:305: shortCommand2(0x1A, 0x05, 0x00);             // < temp register
      00803F 90 E6 3B         [24] 1611 	mov	dptr,#_shortCommand2_PARM_2
      008042 74 05            [12] 1612 	mov	a,#0x05
      008044 F0               [24] 1613 	movx	@dptr,a
      008045 90 E6 3C         [24] 1614 	mov	dptr,#_shortCommand2_PARM_3
      008048 E4               [12] 1615 	clr	a
      008049 F0               [24] 1616 	movx	@dptr,a
      00804A 75 82 1A         [24] 1617 	mov	dpl,#0x1a
      00804D 12 7E 08         [24] 1618 	lcall	_shortCommand2
                                   1619 ;	board/zbs29_BW_ssd1619/screen.c:306: shortCommand1(CMD_DISP_UPDATE_CTRL2, 0xB1);  // mode 1 (i2C)
      008050 90 E6 39         [24] 1620 	mov	dptr,#_shortCommand1_PARM_2
      008053 74 B1            [12] 1621 	mov	a,#0xb1
      008055 F0               [24] 1622 	movx	@dptr,a
      008056 75 82 22         [24] 1623 	mov	dpl,#0x22
      008059 12 7D E7         [24] 1624 	lcall	_shortCommand1
                                   1625 ;	board/zbs29_BW_ssd1619/screen.c:307: shortCommand(CMD_ACTIVATION);
      00805C 75 82 20         [24] 1626 	mov	dpl,#0x20
      00805F 12 7D D1         [24] 1627 	lcall	_shortCommand
                                   1628 ;	board/zbs29_BW_ssd1619/screen.c:308: epdBusyWait(TIMER_TICKS_PER_SECOND);
      008062 90 58 55         [24] 1629 	mov	dptr,#0x5855
      008065 75 F0 14         [24] 1630 	mov	b,#0x14
      008068 E4               [12] 1631 	clr	a
                                   1632 ;	board/zbs29_BW_ssd1619/screen.c:309: }
      008069 02 7C BA         [24] 1633 	ljmp	_epdBusyWait
                                   1634 ;------------------------------------------------------------
                                   1635 ;Allocation info for local variables in function 'writeLut'
                                   1636 ;------------------------------------------------------------
                                   1637 ;i                         Allocated with name '_writeLut_i_131072_174'
                                   1638 ;------------------------------------------------------------
                                   1639 ;	board/zbs29_BW_ssd1619/screen.c:310: static void writeLut() {
                                   1640 ;	-----------------------------------------
                                   1641 ;	 function writeLut
                                   1642 ;	-----------------------------------------
      00806C                       1643 _writeLut:
                                   1644 ;	board/zbs29_BW_ssd1619/screen.c:311: commandBegin(CMD_WRITE_LUT);
      00806C 75 82 32         [24] 1645 	mov	dpl,#0x32
      00806F 12 7E 32         [24] 1646 	lcall	_commandBegin
                                   1647 ;	board/zbs29_BW_ssd1619/screen.c:312: for (uint8_t i = 0; i < (dispLutSize * 10); i++)
      008072 7F 00            [12] 1648 	mov	r7,#0x00
      008074                       1649 00106$:
      008074 90 FD 14         [24] 1650 	mov	dptr,#_dispLutSize
      008077 E0               [24] 1651 	movx	a,@dptr
      008078 90 E7 3D         [24] 1652 	mov	dptr,#__mulint_PARM_2
      00807B F0               [24] 1653 	movx	@dptr,a
      00807C E4               [12] 1654 	clr	a
      00807D A3               [24] 1655 	inc	dptr
      00807E F0               [24] 1656 	movx	@dptr,a
      00807F 90 00 0A         [24] 1657 	mov	dptr,#0x000a
      008082 C0 07            [24] 1658 	push	ar7
      008084 12 AA B1         [24] 1659 	lcall	__mulint
      008087 AD 82            [24] 1660 	mov	r5,dpl
      008089 AE 83            [24] 1661 	mov	r6,dph
      00808B D0 07            [24] 1662 	pop	ar7
      00808D 8F 03            [24] 1663 	mov	ar3,r7
      00808F 7C 00            [12] 1664 	mov	r4,#0x00
      008091 C3               [12] 1665 	clr	c
      008092 EB               [12] 1666 	mov	a,r3
      008093 9D               [12] 1667 	subb	a,r5
      008094 EC               [12] 1668 	mov	a,r4
      008095 64 80            [12] 1669 	xrl	a,#0x80
      008097 8E F0            [24] 1670 	mov	b,r6
      008099 63 F0 80         [24] 1671 	xrl	b,#0x80
      00809C 95 F0            [12] 1672 	subb	a,b
      00809E 50 14            [24] 1673 	jnc	00102$
                                   1674 ;	board/zbs29_BW_ssd1619/screen.c:313: epdSend(waveformbuffer[i]);
      0080A0 EF               [12] 1675 	mov	a,r7
      0080A1 24 AA            [12] 1676 	add	a,#_waveformbuffer
      0080A3 F5 82            [12] 1677 	mov	dpl,a
      0080A5 E4               [12] 1678 	clr	a
      0080A6 34 E5            [12] 1679 	addc	a,#(_waveformbuffer >> 8)
      0080A8 F5 83            [12] 1680 	mov	dph,a
      0080AA E0               [24] 1681 	movx	a,@dptr
      0080AB FE               [12] 1682 	mov	r6,a
      0080AC F5 82            [12] 1683 	mov	dpl,a
      0080AE 12 5C C3         [24] 1684 	lcall	_spiTXByte
                                   1685 ;	board/zbs29_BW_ssd1619/screen.c:312: for (uint8_t i = 0; i < (dispLutSize * 10); i++)
      0080B1 0F               [12] 1686 	inc	r7
                                   1687 ;	board/zbs29_BW_ssd1619/screen.c:314: commandEnd();
      0080B2 80 C0            [24] 1688 	sjmp	00106$
      0080B4                       1689 00102$:
                                   1690 ;	assignBit
      0080B4 D2 97            [12] 1691 	setb	_P1_7
                                   1692 ;	board/zbs29_BW_ssd1619/screen.c:315: }
      0080B6 22               [24] 1693 	ret
                                   1694 ;------------------------------------------------------------
                                   1695 ;Allocation info for local variables in function 'readLut'
                                   1696 ;------------------------------------------------------------
                                   1697 ;checksum                  Allocated with name '_readLut_checksum_65537_177'
                                   1698 ;ident                     Allocated with name '_readLut_ident_65537_177'
                                   1699 ;shortl                    Allocated with name '_readLut_shortl_65537_177'
                                   1700 ;c                         Allocated with name '_readLut_c_131073_178'
                                   1701 ;------------------------------------------------------------
                                   1702 ;	board/zbs29_BW_ssd1619/screen.c:316: static void readLut() {
                                   1703 ;	-----------------------------------------
                                   1704 ;	 function readLut
                                   1705 ;	-----------------------------------------
      0080B7                       1706 _readLut:
                                   1707 ;	board/zbs29_BW_ssd1619/screen.c:317: commandReadBegin(0x33);
      0080B7 75 82 33         [24] 1708 	mov	dpl,#0x33
      0080BA 12 7D 69         [24] 1709 	lcall	_commandReadBegin
                                   1710 ;	board/zbs29_BW_ssd1619/screen.c:321: for (uint16_t c = 0; c < LUT_BUFFER_SIZE; c++) {
      0080BD 7E 00            [12] 1711 	mov	r6,#0x00
      0080BF 7F 00            [12] 1712 	mov	r7,#0x00
      0080C1                       1713 00103$:
      0080C1 8E 04            [24] 1714 	mov	ar4,r6
      0080C3 8F 05            [24] 1715 	mov	ar5,r7
      0080C5 C3               [12] 1716 	clr	c
      0080C6 EC               [12] 1717 	mov	a,r4
      0080C7 94 80            [12] 1718 	subb	a,#0x80
      0080C9 ED               [12] 1719 	mov	a,r5
      0080CA 94 00            [12] 1720 	subb	a,#0x00
      0080CC 50 1A            [24] 1721 	jnc	00101$
                                   1722 ;	board/zbs29_BW_ssd1619/screen.c:322: waveformbuffer[c] = epdReadByte();
      0080CE EE               [12] 1723 	mov	a,r6
      0080CF 24 AA            [12] 1724 	add	a,#_waveformbuffer
      0080D1 FC               [12] 1725 	mov	r4,a
      0080D2 EF               [12] 1726 	mov	a,r7
      0080D3 34 E5            [12] 1727 	addc	a,#(_waveformbuffer >> 8)
      0080D5 FD               [12] 1728 	mov	r5,a
      0080D6 12 7D 93         [24] 1729 	lcall	_epdReadByte
      0080D9 AB 82            [24] 1730 	mov	r3,dpl
      0080DB 8C 82            [24] 1731 	mov	dpl,r4
      0080DD 8D 83            [24] 1732 	mov	dph,r5
      0080DF EB               [12] 1733 	mov	a,r3
      0080E0 F0               [24] 1734 	movx	@dptr,a
                                   1735 ;	board/zbs29_BW_ssd1619/screen.c:321: for (uint16_t c = 0; c < LUT_BUFFER_SIZE; c++) {
      0080E1 0E               [12] 1736 	inc	r6
      0080E2 BE 00 DC         [24] 1737 	cjne	r6,#0x00,00103$
      0080E5 0F               [12] 1738 	inc	r7
      0080E6 80 D9            [24] 1739 	sjmp	00103$
      0080E8                       1740 00101$:
                                   1741 ;	board/zbs29_BW_ssd1619/screen.c:324: commandReadEnd();
                                   1742 ;	board/zbs29_BW_ssd1619/screen.c:325: }
      0080E8 02 7D 8D         [24] 1743 	ljmp	_commandReadEnd
                                   1744 ;------------------------------------------------------------
                                   1745 ;Allocation info for local variables in function 'getLutSize'
                                   1746 ;------------------------------------------------------------
                                   1747 ;ref                       Allocated with name '_getLutSize_ref_65536_180'
                                   1748 ;c                         Allocated with name '_getLutSize_c_131072_181'
                                   1749 ;check                     Allocated with name '_getLutSize_check_196608_182'
                                   1750 ;d                         Allocated with name '_getLutSize_d_262144_183'
                                   1751 ;------------------------------------------------------------
                                   1752 ;	board/zbs29_BW_ssd1619/screen.c:326: static uint8_t getLutSize() {
                                   1753 ;	-----------------------------------------
                                   1754 ;	 function getLutSize
                                   1755 ;	-----------------------------------------
      0080EB                       1756 _getLutSize:
                                   1757 ;	board/zbs29_BW_ssd1619/screen.c:327: uint8_t ref = 0;
      0080EB 90 E6 42         [24] 1758 	mov	dptr,#_getLutSize_ref_65536_180
      0080EE E4               [12] 1759 	clr	a
      0080EF F0               [24] 1760 	movx	@dptr,a
                                   1761 ;	board/zbs29_BW_ssd1619/screen.c:328: for (uint8_t c = (LUT_BUFFER_SIZE - 4); c > 16; c--) {
      0080F0 7F 7C            [12] 1762 	mov	r7,#0x7c
      0080F2                       1763 00110$:
      0080F2 EF               [12] 1764 	mov	a,r7
      0080F3 24 EF            [12] 1765 	add	a,#0xff - 0x10
      0080F5 50 3F            [24] 1766 	jnc	00105$
                                   1767 ;	board/zbs29_BW_ssd1619/screen.c:329: uint8_t check = waveformbuffer[c];
      0080F7 EF               [12] 1768 	mov	a,r7
      0080F8 24 AA            [12] 1769 	add	a,#_waveformbuffer
      0080FA F5 82            [12] 1770 	mov	dpl,a
      0080FC E4               [12] 1771 	clr	a
      0080FD 34 E5            [12] 1772 	addc	a,#(_waveformbuffer >> 8)
      0080FF F5 83            [12] 1773 	mov	dph,a
      008101 E0               [24] 1774 	movx	a,@dptr
      008102 FE               [12] 1775 	mov	r6,a
                                   1776 ;	board/zbs29_BW_ssd1619/screen.c:330: for (uint8_t d = 1; d < 4; d++) {
      008103 7D 01            [12] 1777 	mov	r5,#0x01
      008105                       1778 00107$:
      008105 BD 04 00         [24] 1779 	cjne	r5,#0x04,00135$
      008108                       1780 00135$:
      008108 50 29            [24] 1781 	jnc	00111$
                                   1782 ;	board/zbs29_BW_ssd1619/screen.c:331: if (waveformbuffer[c + d] != check) {
      00810A 8F 03            [24] 1783 	mov	ar3,r7
      00810C 7C 00            [12] 1784 	mov	r4,#0x00
      00810E 8D 01            [24] 1785 	mov	ar1,r5
      008110 7A 00            [12] 1786 	mov	r2,#0x00
      008112 E9               [12] 1787 	mov	a,r1
      008113 2B               [12] 1788 	add	a,r3
      008114 FB               [12] 1789 	mov	r3,a
      008115 EA               [12] 1790 	mov	a,r2
      008116 3C               [12] 1791 	addc	a,r4
      008117 FC               [12] 1792 	mov	r4,a
      008118 EB               [12] 1793 	mov	a,r3
      008119 24 AA            [12] 1794 	add	a,#_waveformbuffer
      00811B F5 82            [12] 1795 	mov	dpl,a
      00811D EC               [12] 1796 	mov	a,r4
      00811E 34 E5            [12] 1797 	addc	a,#(_waveformbuffer >> 8)
      008120 F5 83            [12] 1798 	mov	dph,a
      008122 E0               [24] 1799 	movx	a,@dptr
      008123 FC               [12] 1800 	mov	r4,a
      008124 B5 06 02         [24] 1801 	cjne	a,ar6,00137$
      008127 80 07            [24] 1802 	sjmp	00108$
      008129                       1803 00137$:
                                   1804 ;	board/zbs29_BW_ssd1619/screen.c:332: ref = c;
      008129 90 E6 42         [24] 1805 	mov	dptr,#_getLutSize_ref_65536_180
      00812C EF               [12] 1806 	mov	a,r7
      00812D F0               [24] 1807 	movx	@dptr,a
                                   1808 ;	board/zbs29_BW_ssd1619/screen.c:333: goto end;
      00812E 80 06            [24] 1809 	sjmp	00105$
      008130                       1810 00108$:
                                   1811 ;	board/zbs29_BW_ssd1619/screen.c:330: for (uint8_t d = 1; d < 4; d++) {
      008130 0D               [12] 1812 	inc	r5
      008131 80 D2            [24] 1813 	sjmp	00107$
      008133                       1814 00111$:
                                   1815 ;	board/zbs29_BW_ssd1619/screen.c:328: for (uint8_t c = (LUT_BUFFER_SIZE - 4); c > 16; c--) {
      008133 1F               [12] 1816 	dec	r7
                                   1817 ;	board/zbs29_BW_ssd1619/screen.c:337: end:;
      008134 80 BC            [24] 1818 	sjmp	00110$
      008136                       1819 00105$:
                                   1820 ;	board/zbs29_BW_ssd1619/screen.c:338: return ref + 1;
      008136 90 E6 42         [24] 1821 	mov	dptr,#_getLutSize_ref_65536_180
      008139 E0               [24] 1822 	movx	a,@dptr
      00813A FF               [12] 1823 	mov	r7,a
      00813B 0F               [12] 1824 	inc	r7
      00813C 8F 82            [24] 1825 	mov	dpl,r7
                                   1826 ;	board/zbs29_BW_ssd1619/screen.c:339: }
      00813E 22               [24] 1827 	ret
                                   1828 ;------------------------------------------------------------
                                   1829 ;Allocation info for local variables in function 'lutGroupDisable'
                                   1830 ;------------------------------------------------------------
                                   1831 ;group                     Allocated with name '_lutGroupDisable_group_65536_186'
                                   1832 ;------------------------------------------------------------
                                   1833 ;	board/zbs29_BW_ssd1619/screen.c:340: static void lutGroupDisable(uint8_t group) {
                                   1834 ;	-----------------------------------------
                                   1835 ;	 function lutGroupDisable
                                   1836 ;	-----------------------------------------
      00813F                       1837 _lutGroupDisable:
      00813F E5 82            [12] 1838 	mov	a,dpl
      008141 90 E6 43         [24] 1839 	mov	dptr,#_lutGroupDisable_group_65536_186
      008144 F0               [24] 1840 	movx	@dptr,a
                                   1841 ;	board/zbs29_BW_ssd1619/screen.c:341: if (dispLutSize == 7) {
      008145 90 FD 14         [24] 1842 	mov	dptr,#_dispLutSize
      008148 E0               [24] 1843 	movx	a,@dptr
      008149 FF               [12] 1844 	mov	r7,a
      00814A BF 07 36         [24] 1845 	cjne	r7,#0x07,00102$
                                   1846 ;	board/zbs29_BW_ssd1619/screen.c:342: memset(&(waveform7->group[group]), 0x00, 5);
      00814D 90 FD 9A         [24] 1847 	mov	dptr,#_waveform7
      008150 E0               [24] 1848 	movx	a,@dptr
      008151 FD               [12] 1849 	mov	r5,a
      008152 A3               [24] 1850 	inc	dptr
      008153 E0               [24] 1851 	movx	a,@dptr
      008154 FE               [12] 1852 	mov	r6,a
      008155 A3               [24] 1853 	inc	dptr
      008156 E0               [24] 1854 	movx	a,@dptr
      008157 FF               [12] 1855 	mov	r7,a
      008158 74 23            [12] 1856 	mov	a,#0x23
      00815A 2D               [12] 1857 	add	a,r5
      00815B FD               [12] 1858 	mov	r5,a
      00815C E4               [12] 1859 	clr	a
      00815D 3E               [12] 1860 	addc	a,r6
      00815E FE               [12] 1861 	mov	r6,a
      00815F 90 E6 43         [24] 1862 	mov	dptr,#_lutGroupDisable_group_65536_186
      008162 E0               [24] 1863 	movx	a,@dptr
      008163 75 F0 05         [24] 1864 	mov	b,#0x05
      008166 A4               [48] 1865 	mul	ab
      008167 2D               [12] 1866 	add	a,r5
      008168 FD               [12] 1867 	mov	r5,a
      008169 E4               [12] 1868 	clr	a
      00816A 3E               [12] 1869 	addc	a,r6
      00816B FE               [12] 1870 	mov	r6,a
      00816C 90 E7 2E         [24] 1871 	mov	dptr,#_memset_PARM_2
      00816F E4               [12] 1872 	clr	a
      008170 F0               [24] 1873 	movx	@dptr,a
      008171 90 E7 2F         [24] 1874 	mov	dptr,#_memset_PARM_3
      008174 74 05            [12] 1875 	mov	a,#0x05
      008176 F0               [24] 1876 	movx	@dptr,a
      008177 E4               [12] 1877 	clr	a
      008178 A3               [24] 1878 	inc	dptr
      008179 F0               [24] 1879 	movx	@dptr,a
      00817A 8D 82            [24] 1880 	mov	dpl,r5
      00817C 8E 83            [24] 1881 	mov	dph,r6
      00817E 8F F0            [24] 1882 	mov	b,r7
      008180 02 A9 AC         [24] 1883 	ljmp	_memset
      008183                       1884 00102$:
                                   1885 ;	board/zbs29_BW_ssd1619/screen.c:344: memset(&(waveform10->group[group]), 0x00, 5);
      008183 90 FD 97         [24] 1886 	mov	dptr,#_waveform10
      008186 E0               [24] 1887 	movx	a,@dptr
      008187 FD               [12] 1888 	mov	r5,a
      008188 A3               [24] 1889 	inc	dptr
      008189 E0               [24] 1890 	movx	a,@dptr
      00818A FE               [12] 1891 	mov	r6,a
      00818B A3               [24] 1892 	inc	dptr
      00818C E0               [24] 1893 	movx	a,@dptr
      00818D FF               [12] 1894 	mov	r7,a
      00818E 74 32            [12] 1895 	mov	a,#0x32
      008190 2D               [12] 1896 	add	a,r5
      008191 FD               [12] 1897 	mov	r5,a
      008192 E4               [12] 1898 	clr	a
      008193 3E               [12] 1899 	addc	a,r6
      008194 FE               [12] 1900 	mov	r6,a
      008195 90 E6 43         [24] 1901 	mov	dptr,#_lutGroupDisable_group_65536_186
      008198 E0               [24] 1902 	movx	a,@dptr
      008199 75 F0 05         [24] 1903 	mov	b,#0x05
      00819C A4               [48] 1904 	mul	ab
      00819D 2D               [12] 1905 	add	a,r5
      00819E FD               [12] 1906 	mov	r5,a
      00819F E4               [12] 1907 	clr	a
      0081A0 3E               [12] 1908 	addc	a,r6
      0081A1 FE               [12] 1909 	mov	r6,a
      0081A2 90 E7 2E         [24] 1910 	mov	dptr,#_memset_PARM_2
      0081A5 E4               [12] 1911 	clr	a
      0081A6 F0               [24] 1912 	movx	@dptr,a
      0081A7 90 E7 2F         [24] 1913 	mov	dptr,#_memset_PARM_3
      0081AA 74 05            [12] 1914 	mov	a,#0x05
      0081AC F0               [24] 1915 	movx	@dptr,a
      0081AD E4               [12] 1916 	clr	a
      0081AE A3               [24] 1917 	inc	dptr
      0081AF F0               [24] 1918 	movx	@dptr,a
      0081B0 8D 82            [24] 1919 	mov	dpl,r5
      0081B2 8E 83            [24] 1920 	mov	dph,r6
      0081B4 8F F0            [24] 1921 	mov	b,r7
                                   1922 ;	board/zbs29_BW_ssd1619/screen.c:346: }
      0081B6 02 A9 AC         [24] 1923 	ljmp	_memset
                                   1924 ;------------------------------------------------------------
                                   1925 ;Allocation info for local variables in function 'lutGroupSpeedup'
                                   1926 ;------------------------------------------------------------
                                   1927 ;speed                     Allocated with name '_lutGroupSpeedup_PARM_2'
                                   1928 ;group                     Allocated with name '_lutGroupSpeedup_group_65536_190'
                                   1929 ;i                         Allocated with name '_lutGroupSpeedup_i_196608_193'
                                   1930 ;i                         Allocated with name '_lutGroupSpeedup_i_196608_196'
                                   1931 ;------------------------------------------------------------
                                   1932 ;	board/zbs29_BW_ssd1619/screen.c:347: static void lutGroupSpeedup(uint8_t group, uint8_t speed) {
                                   1933 ;	-----------------------------------------
                                   1934 ;	 function lutGroupSpeedup
                                   1935 ;	-----------------------------------------
      0081B9                       1936 _lutGroupSpeedup:
      0081B9 E5 82            [12] 1937 	mov	a,dpl
      0081BB 90 E6 45         [24] 1938 	mov	dptr,#_lutGroupSpeedup_group_65536_190
      0081BE F0               [24] 1939 	movx	@dptr,a
                                   1940 ;	board/zbs29_BW_ssd1619/screen.c:348: if (dispLutSize == 7) {
      0081BF 90 FD 14         [24] 1941 	mov	dptr,#_dispLutSize
      0081C2 E0               [24] 1942 	movx	a,@dptr
      0081C3 FF               [12] 1943 	mov	r7,a
      0081C4 BF 07 4F         [24] 1944 	cjne	r7,#0x07,00118$
                                   1945 ;	board/zbs29_BW_ssd1619/screen.c:349: for (uint8_t i = 0; i < 4; i++) {
      0081C7 90 E6 45         [24] 1946 	mov	dptr,#_lutGroupSpeedup_group_65536_190
      0081CA E0               [24] 1947 	movx	a,@dptr
      0081CB 75 F0 05         [24] 1948 	mov	b,#0x05
      0081CE A4               [48] 1949 	mul	ab
      0081CF FF               [12] 1950 	mov	r7,a
      0081D0 90 E6 44         [24] 1951 	mov	dptr,#_lutGroupSpeedup_PARM_2
      0081D3 E0               [24] 1952 	movx	a,@dptr
      0081D4 FE               [12] 1953 	mov	r6,a
      0081D5 7D 00            [12] 1954 	mov	r5,#0x00
      0081D7                       1955 00107$:
      0081D7 BD 04 00         [24] 1956 	cjne	r5,#0x04,00138$
      0081DA                       1957 00138$:
      0081DA 40 01            [24] 1958 	jc	00139$
      0081DC 22               [24] 1959 	ret
      0081DD                       1960 00139$:
                                   1961 ;	board/zbs29_BW_ssd1619/screen.c:350: waveform7->group[group].phaselength[i] = 1 + (waveform7->group[group].phaselength[i] / speed);
      0081DD 90 FD 9A         [24] 1962 	mov	dptr,#_waveform7
      0081E0 E0               [24] 1963 	movx	a,@dptr
      0081E1 FA               [12] 1964 	mov	r2,a
      0081E2 A3               [24] 1965 	inc	dptr
      0081E3 E0               [24] 1966 	movx	a,@dptr
      0081E4 FB               [12] 1967 	mov	r3,a
      0081E5 A3               [24] 1968 	inc	dptr
      0081E6 E0               [24] 1969 	movx	a,@dptr
      0081E7 FC               [12] 1970 	mov	r4,a
      0081E8 74 23            [12] 1971 	mov	a,#0x23
      0081EA 2A               [12] 1972 	add	a,r2
      0081EB FA               [12] 1973 	mov	r2,a
      0081EC E4               [12] 1974 	clr	a
      0081ED 3B               [12] 1975 	addc	a,r3
      0081EE FB               [12] 1976 	mov	r3,a
      0081EF EF               [12] 1977 	mov	a,r7
      0081F0 2A               [12] 1978 	add	a,r2
      0081F1 FA               [12] 1979 	mov	r2,a
      0081F2 E4               [12] 1980 	clr	a
      0081F3 3B               [12] 1981 	addc	a,r3
      0081F4 FB               [12] 1982 	mov	r3,a
      0081F5 ED               [12] 1983 	mov	a,r5
      0081F6 2A               [12] 1984 	add	a,r2
      0081F7 FA               [12] 1985 	mov	r2,a
      0081F8 E4               [12] 1986 	clr	a
      0081F9 3B               [12] 1987 	addc	a,r3
      0081FA FB               [12] 1988 	mov	r3,a
      0081FB 8A 82            [24] 1989 	mov	dpl,r2
      0081FD 8B 83            [24] 1990 	mov	dph,r3
      0081FF 8C F0            [24] 1991 	mov	b,r4
      008201 12 AE F7         [24] 1992 	lcall	__gptrget
      008204 8E F0            [24] 1993 	mov	b,r6
      008206 84               [48] 1994 	div	ab
      008207 F9               [12] 1995 	mov	r1,a
      008208 09               [12] 1996 	inc	r1
      008209 8A 82            [24] 1997 	mov	dpl,r2
      00820B 8B 83            [24] 1998 	mov	dph,r3
      00820D 8C F0            [24] 1999 	mov	b,r4
      00820F E9               [12] 2000 	mov	a,r1
      008210 12 AA 96         [24] 2001 	lcall	__gptrput
                                   2002 ;	board/zbs29_BW_ssd1619/screen.c:349: for (uint8_t i = 0; i < 4; i++) {
      008213 0D               [12] 2003 	inc	r5
                                   2004 ;	board/zbs29_BW_ssd1619/screen.c:353: for (uint8_t i = 0; i < 4; i++) {
      008214 80 C1            [24] 2005 	sjmp	00107$
      008216                       2006 00118$:
      008216 90 E6 45         [24] 2007 	mov	dptr,#_lutGroupSpeedup_group_65536_190
      008219 E0               [24] 2008 	movx	a,@dptr
      00821A 75 F0 05         [24] 2009 	mov	b,#0x05
      00821D A4               [48] 2010 	mul	ab
      00821E FF               [12] 2011 	mov	r7,a
      00821F 90 E6 44         [24] 2012 	mov	dptr,#_lutGroupSpeedup_PARM_2
      008222 E0               [24] 2013 	movx	a,@dptr
      008223 FE               [12] 2014 	mov	r6,a
      008224 7D 00            [12] 2015 	mov	r5,#0x00
      008226                       2016 00110$:
      008226 BD 04 00         [24] 2017 	cjne	r5,#0x04,00140$
      008229                       2018 00140$:
      008229 50 39            [24] 2019 	jnc	00112$
                                   2020 ;	board/zbs29_BW_ssd1619/screen.c:354: waveform10->group[group].phaselength[i] = 1 + (waveform10->group[group].phaselength[i] / speed);
      00822B 90 FD 97         [24] 2021 	mov	dptr,#_waveform10
      00822E E0               [24] 2022 	movx	a,@dptr
      00822F FA               [12] 2023 	mov	r2,a
      008230 A3               [24] 2024 	inc	dptr
      008231 E0               [24] 2025 	movx	a,@dptr
      008232 FB               [12] 2026 	mov	r3,a
      008233 A3               [24] 2027 	inc	dptr
      008234 E0               [24] 2028 	movx	a,@dptr
      008235 FC               [12] 2029 	mov	r4,a
      008236 74 32            [12] 2030 	mov	a,#0x32
      008238 2A               [12] 2031 	add	a,r2
      008239 FA               [12] 2032 	mov	r2,a
      00823A E4               [12] 2033 	clr	a
      00823B 3B               [12] 2034 	addc	a,r3
      00823C FB               [12] 2035 	mov	r3,a
      00823D EF               [12] 2036 	mov	a,r7
      00823E 2A               [12] 2037 	add	a,r2
      00823F FA               [12] 2038 	mov	r2,a
      008240 E4               [12] 2039 	clr	a
      008241 3B               [12] 2040 	addc	a,r3
      008242 FB               [12] 2041 	mov	r3,a
      008243 ED               [12] 2042 	mov	a,r5
      008244 2A               [12] 2043 	add	a,r2
      008245 FA               [12] 2044 	mov	r2,a
      008246 E4               [12] 2045 	clr	a
      008247 3B               [12] 2046 	addc	a,r3
      008248 FB               [12] 2047 	mov	r3,a
      008249 8A 82            [24] 2048 	mov	dpl,r2
      00824B 8B 83            [24] 2049 	mov	dph,r3
      00824D 8C F0            [24] 2050 	mov	b,r4
      00824F 12 AE F7         [24] 2051 	lcall	__gptrget
      008252 8E F0            [24] 2052 	mov	b,r6
      008254 84               [48] 2053 	div	ab
      008255 F9               [12] 2054 	mov	r1,a
      008256 09               [12] 2055 	inc	r1
      008257 8A 82            [24] 2056 	mov	dpl,r2
      008259 8B 83            [24] 2057 	mov	dph,r3
      00825B 8C F0            [24] 2058 	mov	b,r4
      00825D E9               [12] 2059 	mov	a,r1
      00825E 12 AA 96         [24] 2060 	lcall	__gptrput
                                   2061 ;	board/zbs29_BW_ssd1619/screen.c:353: for (uint8_t i = 0; i < 4; i++) {
      008261 0D               [12] 2062 	inc	r5
      008262 80 C2            [24] 2063 	sjmp	00110$
      008264                       2064 00112$:
                                   2065 ;	board/zbs29_BW_ssd1619/screen.c:357: }
      008264 22               [24] 2066 	ret
                                   2067 ;------------------------------------------------------------
                                   2068 ;Allocation info for local variables in function 'lutGroupRepeat'
                                   2069 ;------------------------------------------------------------
                                   2070 ;repeat                    Allocated with name '_lutGroupRepeat_PARM_2'
                                   2071 ;group                     Allocated with name '_lutGroupRepeat_group_65536_198'
                                   2072 ;------------------------------------------------------------
                                   2073 ;	board/zbs29_BW_ssd1619/screen.c:358: static void lutGroupRepeat(uint8_t group, uint8_t repeat) {
                                   2074 ;	-----------------------------------------
                                   2075 ;	 function lutGroupRepeat
                                   2076 ;	-----------------------------------------
      008265                       2077 _lutGroupRepeat:
      008265 E5 82            [12] 2078 	mov	a,dpl
      008267 90 E6 47         [24] 2079 	mov	dptr,#_lutGroupRepeat_group_65536_198
      00826A F0               [24] 2080 	movx	@dptr,a
                                   2081 ;	board/zbs29_BW_ssd1619/screen.c:359: if (dispLutSize == 7) {
      00826B 90 FD 14         [24] 2082 	mov	dptr,#_dispLutSize
      00826E E0               [24] 2083 	movx	a,@dptr
      00826F FF               [12] 2084 	mov	r7,a
      008270 BF 07 33         [24] 2085 	cjne	r7,#0x07,00102$
                                   2086 ;	board/zbs29_BW_ssd1619/screen.c:360: waveform7->group[group].repeat = repeat;
      008273 90 FD 9A         [24] 2087 	mov	dptr,#_waveform7
      008276 E0               [24] 2088 	movx	a,@dptr
      008277 FD               [12] 2089 	mov	r5,a
      008278 A3               [24] 2090 	inc	dptr
      008279 E0               [24] 2091 	movx	a,@dptr
      00827A FE               [12] 2092 	mov	r6,a
      00827B A3               [24] 2093 	inc	dptr
      00827C E0               [24] 2094 	movx	a,@dptr
      00827D FF               [12] 2095 	mov	r7,a
      00827E 74 23            [12] 2096 	mov	a,#0x23
      008280 2D               [12] 2097 	add	a,r5
      008281 FD               [12] 2098 	mov	r5,a
      008282 E4               [12] 2099 	clr	a
      008283 3E               [12] 2100 	addc	a,r6
      008284 FE               [12] 2101 	mov	r6,a
      008285 90 E6 47         [24] 2102 	mov	dptr,#_lutGroupRepeat_group_65536_198
      008288 E0               [24] 2103 	movx	a,@dptr
      008289 75 F0 05         [24] 2104 	mov	b,#0x05
      00828C A4               [48] 2105 	mul	ab
      00828D 2D               [12] 2106 	add	a,r5
      00828E FD               [12] 2107 	mov	r5,a
      00828F E4               [12] 2108 	clr	a
      008290 3E               [12] 2109 	addc	a,r6
      008291 FE               [12] 2110 	mov	r6,a
      008292 74 04            [12] 2111 	mov	a,#0x04
      008294 2D               [12] 2112 	add	a,r5
      008295 FD               [12] 2113 	mov	r5,a
      008296 E4               [12] 2114 	clr	a
      008297 3E               [12] 2115 	addc	a,r6
      008298 FE               [12] 2116 	mov	r6,a
      008299 90 E6 46         [24] 2117 	mov	dptr,#_lutGroupRepeat_PARM_2
      00829C E0               [24] 2118 	movx	a,@dptr
      00829D 8D 82            [24] 2119 	mov	dpl,r5
      00829F 8E 83            [24] 2120 	mov	dph,r6
      0082A1 8F F0            [24] 2121 	mov	b,r7
      0082A3 02 AA 96         [24] 2122 	ljmp	__gptrput
      0082A6                       2123 00102$:
                                   2124 ;	board/zbs29_BW_ssd1619/screen.c:362: waveform10->group[group].repeat = repeat;
      0082A6 90 FD 97         [24] 2125 	mov	dptr,#_waveform10
      0082A9 E0               [24] 2126 	movx	a,@dptr
      0082AA FD               [12] 2127 	mov	r5,a
      0082AB A3               [24] 2128 	inc	dptr
      0082AC E0               [24] 2129 	movx	a,@dptr
      0082AD FE               [12] 2130 	mov	r6,a
      0082AE A3               [24] 2131 	inc	dptr
      0082AF E0               [24] 2132 	movx	a,@dptr
      0082B0 FF               [12] 2133 	mov	r7,a
      0082B1 74 32            [12] 2134 	mov	a,#0x32
      0082B3 2D               [12] 2135 	add	a,r5
      0082B4 FD               [12] 2136 	mov	r5,a
      0082B5 E4               [12] 2137 	clr	a
      0082B6 3E               [12] 2138 	addc	a,r6
      0082B7 FE               [12] 2139 	mov	r6,a
      0082B8 90 E6 47         [24] 2140 	mov	dptr,#_lutGroupRepeat_group_65536_198
      0082BB E0               [24] 2141 	movx	a,@dptr
      0082BC 75 F0 05         [24] 2142 	mov	b,#0x05
      0082BF A4               [48] 2143 	mul	ab
      0082C0 2D               [12] 2144 	add	a,r5
      0082C1 FD               [12] 2145 	mov	r5,a
      0082C2 E4               [12] 2146 	clr	a
      0082C3 3E               [12] 2147 	addc	a,r6
      0082C4 FE               [12] 2148 	mov	r6,a
      0082C5 74 04            [12] 2149 	mov	a,#0x04
      0082C7 2D               [12] 2150 	add	a,r5
      0082C8 FD               [12] 2151 	mov	r5,a
      0082C9 E4               [12] 2152 	clr	a
      0082CA 3E               [12] 2153 	addc	a,r6
      0082CB FE               [12] 2154 	mov	r6,a
      0082CC 90 E6 46         [24] 2155 	mov	dptr,#_lutGroupRepeat_PARM_2
      0082CF E0               [24] 2156 	movx	a,@dptr
      0082D0 8D 82            [24] 2157 	mov	dpl,r5
      0082D2 8E 83            [24] 2158 	mov	dph,r6
      0082D4 8F F0            [24] 2159 	mov	b,r7
                                   2160 ;	board/zbs29_BW_ssd1619/screen.c:364: }
      0082D6 02 AA 96         [24] 2161 	ljmp	__gptrput
                                   2162 ;------------------------------------------------------------
                                   2163 ;Allocation info for local variables in function 'lutGroupRepeatReduce'
                                   2164 ;------------------------------------------------------------
                                   2165 ;factor                    Allocated with name '_lutGroupRepeatReduce_PARM_2'
                                   2166 ;group                     Allocated with name '_lutGroupRepeatReduce_group_65536_202'
                                   2167 ;------------------------------------------------------------
                                   2168 ;	board/zbs29_BW_ssd1619/screen.c:365: static void lutGroupRepeatReduce(uint8_t group, uint8_t factor) {
                                   2169 ;	-----------------------------------------
                                   2170 ;	 function lutGroupRepeatReduce
                                   2171 ;	-----------------------------------------
      0082D9                       2172 _lutGroupRepeatReduce:
      0082D9 E5 82            [12] 2173 	mov	a,dpl
      0082DB 90 E6 49         [24] 2174 	mov	dptr,#_lutGroupRepeatReduce_group_65536_202
      0082DE F0               [24] 2175 	movx	@dptr,a
                                   2176 ;	board/zbs29_BW_ssd1619/screen.c:366: if (dispLutSize == 7) {
      0082DF 90 FD 14         [24] 2177 	mov	dptr,#_dispLutSize
      0082E2 E0               [24] 2178 	movx	a,@dptr
      0082E3 FF               [12] 2179 	mov	r7,a
      0082E4 BF 07 42         [24] 2180 	cjne	r7,#0x07,00102$
                                   2181 ;	board/zbs29_BW_ssd1619/screen.c:367: waveform7->group[group].repeat = waveform7->group[group].repeat / factor;
      0082E7 90 FD 9A         [24] 2182 	mov	dptr,#_waveform7
      0082EA E0               [24] 2183 	movx	a,@dptr
      0082EB FD               [12] 2184 	mov	r5,a
      0082EC A3               [24] 2185 	inc	dptr
      0082ED E0               [24] 2186 	movx	a,@dptr
      0082EE FE               [12] 2187 	mov	r6,a
      0082EF A3               [24] 2188 	inc	dptr
      0082F0 E0               [24] 2189 	movx	a,@dptr
      0082F1 FF               [12] 2190 	mov	r7,a
      0082F2 74 23            [12] 2191 	mov	a,#0x23
      0082F4 2D               [12] 2192 	add	a,r5
      0082F5 FD               [12] 2193 	mov	r5,a
      0082F6 E4               [12] 2194 	clr	a
      0082F7 3E               [12] 2195 	addc	a,r6
      0082F8 FE               [12] 2196 	mov	r6,a
      0082F9 90 E6 49         [24] 2197 	mov	dptr,#_lutGroupRepeatReduce_group_65536_202
      0082FC E0               [24] 2198 	movx	a,@dptr
      0082FD 75 F0 05         [24] 2199 	mov	b,#0x05
      008300 A4               [48] 2200 	mul	ab
      008301 2D               [12] 2201 	add	a,r5
      008302 FD               [12] 2202 	mov	r5,a
      008303 E4               [12] 2203 	clr	a
      008304 3E               [12] 2204 	addc	a,r6
      008305 FE               [12] 2205 	mov	r6,a
      008306 74 04            [12] 2206 	mov	a,#0x04
      008308 2D               [12] 2207 	add	a,r5
      008309 FD               [12] 2208 	mov	r5,a
      00830A E4               [12] 2209 	clr	a
      00830B 3E               [12] 2210 	addc	a,r6
      00830C FE               [12] 2211 	mov	r6,a
      00830D 8D 82            [24] 2212 	mov	dpl,r5
      00830F 8E 83            [24] 2213 	mov	dph,r6
      008311 8F F0            [24] 2214 	mov	b,r7
      008313 12 AE F7         [24] 2215 	lcall	__gptrget
      008316 FC               [12] 2216 	mov	r4,a
      008317 90 E6 48         [24] 2217 	mov	dptr,#_lutGroupRepeatReduce_PARM_2
      00831A E0               [24] 2218 	movx	a,@dptr
      00831B FB               [12] 2219 	mov	r3,a
      00831C 8B F0            [24] 2220 	mov	b,r3
      00831E EC               [12] 2221 	mov	a,r4
      00831F 84               [48] 2222 	div	ab
      008320 8D 82            [24] 2223 	mov	dpl,r5
      008322 8E 83            [24] 2224 	mov	dph,r6
      008324 8F F0            [24] 2225 	mov	b,r7
      008326 02 AA 96         [24] 2226 	ljmp	__gptrput
      008329                       2227 00102$:
                                   2228 ;	board/zbs29_BW_ssd1619/screen.c:369: waveform10->group[group].repeat = waveform10->group[group].repeat / factor;
      008329 90 FD 97         [24] 2229 	mov	dptr,#_waveform10
      00832C E0               [24] 2230 	movx	a,@dptr
      00832D FD               [12] 2231 	mov	r5,a
      00832E A3               [24] 2232 	inc	dptr
      00832F E0               [24] 2233 	movx	a,@dptr
      008330 FE               [12] 2234 	mov	r6,a
      008331 A3               [24] 2235 	inc	dptr
      008332 E0               [24] 2236 	movx	a,@dptr
      008333 FF               [12] 2237 	mov	r7,a
      008334 74 32            [12] 2238 	mov	a,#0x32
      008336 2D               [12] 2239 	add	a,r5
      008337 FD               [12] 2240 	mov	r5,a
      008338 E4               [12] 2241 	clr	a
      008339 3E               [12] 2242 	addc	a,r6
      00833A FE               [12] 2243 	mov	r6,a
      00833B 90 E6 49         [24] 2244 	mov	dptr,#_lutGroupRepeatReduce_group_65536_202
      00833E E0               [24] 2245 	movx	a,@dptr
      00833F 75 F0 05         [24] 2246 	mov	b,#0x05
      008342 A4               [48] 2247 	mul	ab
      008343 2D               [12] 2248 	add	a,r5
      008344 FD               [12] 2249 	mov	r5,a
      008345 E4               [12] 2250 	clr	a
      008346 3E               [12] 2251 	addc	a,r6
      008347 FE               [12] 2252 	mov	r6,a
      008348 74 04            [12] 2253 	mov	a,#0x04
      00834A 2D               [12] 2254 	add	a,r5
      00834B FD               [12] 2255 	mov	r5,a
      00834C E4               [12] 2256 	clr	a
      00834D 3E               [12] 2257 	addc	a,r6
      00834E FE               [12] 2258 	mov	r6,a
      00834F 8D 82            [24] 2259 	mov	dpl,r5
      008351 8E 83            [24] 2260 	mov	dph,r6
      008353 8F F0            [24] 2261 	mov	b,r7
      008355 12 AE F7         [24] 2262 	lcall	__gptrget
      008358 FC               [12] 2263 	mov	r4,a
      008359 90 E6 48         [24] 2264 	mov	dptr,#_lutGroupRepeatReduce_PARM_2
      00835C E0               [24] 2265 	movx	a,@dptr
      00835D FB               [12] 2266 	mov	r3,a
      00835E 8B F0            [24] 2267 	mov	b,r3
      008360 EC               [12] 2268 	mov	a,r4
      008361 84               [48] 2269 	div	ab
      008362 8D 82            [24] 2270 	mov	dpl,r5
      008364 8E 83            [24] 2271 	mov	dph,r6
      008366 8F F0            [24] 2272 	mov	b,r7
                                   2273 ;	board/zbs29_BW_ssd1619/screen.c:371: }
      008368 02 AA 96         [24] 2274 	ljmp	__gptrput
                                   2275 ;------------------------------------------------------------
                                   2276 ;Allocation info for local variables in function 'selectLUT'
                                   2277 ;------------------------------------------------------------
                                   2278 ;lut                       Allocated with name '_selectLUT_lut_65536_206'
                                   2279 ;------------------------------------------------------------
                                   2280 ;	board/zbs29_BW_ssd1619/screen.c:372: void selectLUT(uint8_t lut) {
                                   2281 ;	-----------------------------------------
                                   2282 ;	 function selectLUT
                                   2283 ;	-----------------------------------------
      00836B                       2284 _selectLUT:
      00836B E5 82            [12] 2285 	mov	a,dpl
      00836D 90 E6 4A         [24] 2286 	mov	dptr,#_selectLUT_lut_65536_206
      008370 F0               [24] 2287 	movx	@dptr,a
                                   2288 ;	board/zbs29_BW_ssd1619/screen.c:373: if (currentLut == lut) {
      008371 90 FD 13         [24] 2289 	mov	dptr,#_currentLut
      008374 E0               [24] 2290 	movx	a,@dptr
      008375 FF               [12] 2291 	mov	r7,a
      008376 90 E6 4A         [24] 2292 	mov	dptr,#_selectLUT_lut_65536_206
      008379 E0               [24] 2293 	movx	a,@dptr
      00837A FE               [12] 2294 	mov	r6,a
      00837B EF               [12] 2295 	mov	a,r7
      00837C B5 06 01         [24] 2296 	cjne	a,ar6,00102$
                                   2297 ;	board/zbs29_BW_ssd1619/screen.c:374: return;
      00837F 22               [24] 2298 	ret
      008380                       2299 00102$:
                                   2300 ;	board/zbs29_BW_ssd1619/screen.c:377: if (currentLut != EPD_LUT_DEFAULT) {
      008380 EF               [12] 2301 	mov	a,r7
      008381 60 1C            [24] 2302 	jz	00104$
                                   2303 ;	board/zbs29_BW_ssd1619/screen.c:379: shortCommand1(CMD_DISP_UPDATE_CTRL2, 0xB1);  // mode 1?
      008383 90 E6 39         [24] 2304 	mov	dptr,#_shortCommand1_PARM_2
      008386 74 B1            [12] 2305 	mov	a,#0xb1
      008388 F0               [24] 2306 	movx	@dptr,a
      008389 75 82 22         [24] 2307 	mov	dpl,#0x22
      00838C 12 7D E7         [24] 2308 	lcall	_shortCommand1
                                   2309 ;	board/zbs29_BW_ssd1619/screen.c:380: shortCommand(CMD_ACTIVATION);
      00838F 75 82 20         [24] 2310 	mov	dpl,#0x20
      008392 12 7D D1         [24] 2311 	lcall	_shortCommand
                                   2312 ;	board/zbs29_BW_ssd1619/screen.c:381: epdBusyWait(TIMER_TICKS_PER_SECOND);
      008395 90 58 55         [24] 2313 	mov	dptr,#0x5855
      008398 75 F0 14         [24] 2314 	mov	b,#0x14
      00839B E4               [12] 2315 	clr	a
      00839C 12 7C BA         [24] 2316 	lcall	_epdBusyWait
      00839F                       2317 00104$:
                                   2318 ;	board/zbs29_BW_ssd1619/screen.c:384: currentLut = lut;
      00839F 90 E6 4A         [24] 2319 	mov	dptr,#_selectLUT_lut_65536_206
      0083A2 E0               [24] 2320 	movx	a,@dptr
      0083A3 FF               [12] 2321 	mov	r7,a
      0083A4 90 FD 13         [24] 2322 	mov	dptr,#_currentLut
      0083A7 F0               [24] 2323 	movx	@dptr,a
                                   2324 ;	board/zbs29_BW_ssd1619/screen.c:387: if (lut == EPD_LUT_DEFAULT) {
      0083A8 EF               [12] 2325 	mov	a,r7
      0083A9 70 01            [24] 2326 	jnz	00106$
                                   2327 ;	board/zbs29_BW_ssd1619/screen.c:388: return;
      0083AB 22               [24] 2328 	ret
      0083AC                       2329 00106$:
                                   2330 ;	board/zbs29_BW_ssd1619/screen.c:392: readLut();
      0083AC 12 80 B7         [24] 2331 	lcall	_readLut
                                   2332 ;	board/zbs29_BW_ssd1619/screen.c:394: if (dispLutSize == 0) {
      0083AF 90 FD 14         [24] 2333 	mov	dptr,#_dispLutSize
      0083B2 E0               [24] 2334 	movx	a,@dptr
      0083B3 70 68            [24] 2335 	jnz	00108$
                                   2336 ;	board/zbs29_BW_ssd1619/screen.c:395: dispLutSize = getLutSize();
      0083B5 12 80 EB         [24] 2337 	lcall	_getLutSize
      0083B8 AF 82            [24] 2338 	mov	r7,dpl
                                   2339 ;	board/zbs29_BW_ssd1619/screen.c:396: dispLutSize /= 10;
      0083BA 7E 00            [12] 2340 	mov	r6,#0x00
      0083BC 90 E7 58         [24] 2341 	mov	dptr,#__divsint_PARM_2
      0083BF 74 0A            [12] 2342 	mov	a,#0x0a
      0083C1 F0               [24] 2343 	movx	@dptr,a
      0083C2 E4               [12] 2344 	clr	a
      0083C3 A3               [24] 2345 	inc	dptr
      0083C4 F0               [24] 2346 	movx	@dptr,a
      0083C5 8F 82            [24] 2347 	mov	dpl,r7
      0083C7 8E 83            [24] 2348 	mov	dph,r6
      0083C9 12 AE 6D         [24] 2349 	lcall	__divsint
      0083CC AE 82            [24] 2350 	mov	r6,dpl
      0083CE 90 FD 14         [24] 2351 	mov	dptr,#_dispLutSize
      0083D1 EE               [12] 2352 	mov	a,r6
      0083D2 F0               [24] 2353 	movx	@dptr,a
                                   2354 ;	board/zbs29_BW_ssd1619/screen.c:397: pr("lut size = %d\n", dispLutSize);
      0083D3 7F 00            [12] 2355 	mov	r7,#0x00
      0083D5 C0 06            [24] 2356 	push	ar6
      0083D7 C0 07            [24] 2357 	push	ar7
      0083D9 74 46            [12] 2358 	mov	a,#___str_1
      0083DB C0 E0            [24] 2359 	push	acc
      0083DD 74 D6            [12] 2360 	mov	a,#(___str_1 >> 8)
      0083DF C0 E0            [24] 2361 	push	acc
      0083E1 12 71 BC         [24] 2362 	lcall	_pr
      0083E4 E5 81            [12] 2363 	mov	a,sp
      0083E6 24 FC            [12] 2364 	add	a,#0xfc
      0083E8 F5 81            [12] 2365 	mov	sp,a
                                   2366 ;	board/zbs29_BW_ssd1619/screen.c:401: memcpy(customLUT, waveformbuffer, dispLutSize * 10);
      0083EA 90 FD 14         [24] 2367 	mov	dptr,#_dispLutSize
      0083ED E0               [24] 2368 	movx	a,@dptr
      0083EE 90 E7 3D         [24] 2369 	mov	dptr,#__mulint_PARM_2
      0083F1 F0               [24] 2370 	movx	@dptr,a
      0083F2 E4               [12] 2371 	clr	a
      0083F3 A3               [24] 2372 	inc	dptr
      0083F4 F0               [24] 2373 	movx	@dptr,a
      0083F5 90 00 0A         [24] 2374 	mov	dptr,#0x000a
      0083F8 12 AA B1         [24] 2375 	lcall	__mulint
      0083FB AE 82            [24] 2376 	mov	r6,dpl
      0083FD AF 83            [24] 2377 	mov	r7,dph
      0083FF 90 E7 26         [24] 2378 	mov	dptr,#___memcpy_PARM_2
      008402 74 AA            [12] 2379 	mov	a,#_waveformbuffer
      008404 F0               [24] 2380 	movx	@dptr,a
      008405 74 E5            [12] 2381 	mov	a,#(_waveformbuffer >> 8)
      008407 A3               [24] 2382 	inc	dptr
      008408 F0               [24] 2383 	movx	@dptr,a
      008409 E4               [12] 2384 	clr	a
      00840A A3               [24] 2385 	inc	dptr
      00840B F0               [24] 2386 	movx	@dptr,a
      00840C 90 E7 29         [24] 2387 	mov	dptr,#___memcpy_PARM_3
      00840F EE               [12] 2388 	mov	a,r6
      008410 F0               [24] 2389 	movx	@dptr,a
      008411 EF               [12] 2390 	mov	a,r7
      008412 A3               [24] 2391 	inc	dptr
      008413 F0               [24] 2392 	movx	@dptr,a
      008414 90 FD 17         [24] 2393 	mov	dptr,#_customLUT
      008417 75 F0 00         [24] 2394 	mov	b,#0x00
      00841A 12 A9 38         [24] 2395 	lcall	___memcpy
      00841D                       2396 00108$:
                                   2397 ;	board/zbs29_BW_ssd1619/screen.c:404: switch (lut) {
      00841D 90 E6 4A         [24] 2398 	mov	dptr,#_selectLUT_lut_65536_206
      008420 E0               [24] 2399 	movx	a,@dptr
      008421 FF               [12] 2400 	mov	r7,a
      008422 BF 01 02         [24] 2401 	cjne	r7,#0x01,00160$
      008425 80 0B            [24] 2402 	sjmp	00110$
      008427                       2403 00160$:
      008427 BF 02 02         [24] 2404 	cjne	r7,#0x02,00161$
      00842A 80 65            [24] 2405 	sjmp	00111$
      00842C                       2406 00161$:
      00842C BF 03 03         [24] 2407 	cjne	r7,#0x03,00162$
      00842F 02 84 C7         [24] 2408 	ljmp	00112$
      008432                       2409 00162$:
                                   2410 ;	board/zbs29_BW_ssd1619/screen.c:406: case EPD_LUT_NO_REPEATS:
      008432                       2411 00110$:
                                   2412 ;	board/zbs29_BW_ssd1619/screen.c:407: lutGroupDisable(LUTGROUP_NEGATIVE);
      008432 75 82 00         [24] 2413 	mov	dpl,#0x00
      008435 C0 07            [24] 2414 	push	ar7
      008437 12 81 3F         [24] 2415 	lcall	_lutGroupDisable
                                   2416 ;	board/zbs29_BW_ssd1619/screen.c:408: lutGroupDisable(LUTGROUP_FASTBLINK);
      00843A 75 82 01         [24] 2417 	mov	dpl,#0x01
      00843D 12 81 3F         [24] 2418 	lcall	_lutGroupDisable
                                   2419 ;	board/zbs29_BW_ssd1619/screen.c:409: lutGroupRepeat(LUTGROUP_SLOWBLINK, 0);
      008440 90 E6 46         [24] 2420 	mov	dptr,#_lutGroupRepeat_PARM_2
      008443 E4               [12] 2421 	clr	a
      008444 F0               [24] 2422 	movx	@dptr,a
      008445 75 82 02         [24] 2423 	mov	dpl,#0x02
      008448 12 82 65         [24] 2424 	lcall	_lutGroupRepeat
                                   2425 ;	board/zbs29_BW_ssd1619/screen.c:410: lutGroupSpeedup(LUTGROUP_SET, 2);
      00844B 90 E6 44         [24] 2426 	mov	dptr,#_lutGroupSpeedup_PARM_2
      00844E 74 02            [12] 2427 	mov	a,#0x02
      008450 F0               [24] 2428 	movx	@dptr,a
      008451 75 82 03         [24] 2429 	mov	dpl,#0x03
      008454 12 81 B9         [24] 2430 	lcall	_lutGroupSpeedup
                                   2431 ;	board/zbs29_BW_ssd1619/screen.c:411: lutGroupSpeedup(LUTGROUP_IMPROVE_SHARPNESS, 2);
      008457 90 E6 44         [24] 2432 	mov	dptr,#_lutGroupSpeedup_PARM_2
      00845A 74 02            [12] 2433 	mov	a,#0x02
      00845C F0               [24] 2434 	movx	@dptr,a
      00845D 75 82 04         [24] 2435 	mov	dpl,#0x04
      008460 12 81 B9         [24] 2436 	lcall	_lutGroupSpeedup
                                   2437 ;	board/zbs29_BW_ssd1619/screen.c:412: lutGroupRepeatReduce(LUTGROUP_IMPROVE_SHARPNESS, 2);
      008463 90 E6 48         [24] 2438 	mov	dptr,#_lutGroupRepeatReduce_PARM_2
      008466 74 02            [12] 2439 	mov	a,#0x02
      008468 F0               [24] 2440 	movx	@dptr,a
      008469 75 82 04         [24] 2441 	mov	dpl,#0x04
      00846C 12 82 D9         [24] 2442 	lcall	_lutGroupRepeatReduce
                                   2443 ;	board/zbs29_BW_ssd1619/screen.c:413: lutGroupSpeedup(LUTGROUP_IMPROVE_REDS, 2);
      00846F 90 E6 44         [24] 2444 	mov	dptr,#_lutGroupSpeedup_PARM_2
      008472 74 02            [12] 2445 	mov	a,#0x02
      008474 F0               [24] 2446 	movx	@dptr,a
      008475 75 82 05         [24] 2447 	mov	dpl,#0x05
      008478 12 81 B9         [24] 2448 	lcall	_lutGroupSpeedup
                                   2449 ;	board/zbs29_BW_ssd1619/screen.c:414: lutGroupRepeatReduce(LUTGROUP_IMPROVE_REDS, 2);
      00847B 90 E6 48         [24] 2450 	mov	dptr,#_lutGroupRepeatReduce_PARM_2
      00847E 74 02            [12] 2451 	mov	a,#0x02
      008480 F0               [24] 2452 	movx	@dptr,a
      008481 75 82 05         [24] 2453 	mov	dpl,#0x05
      008484 12 82 D9         [24] 2454 	lcall	_lutGroupRepeatReduce
                                   2455 ;	board/zbs29_BW_ssd1619/screen.c:415: lutGroupDisable(LUTGROUP_UNUSED);
      008487 75 82 06         [24] 2456 	mov	dpl,#0x06
      00848A 12 81 3F         [24] 2457 	lcall	_lutGroupDisable
      00848D D0 07            [24] 2458 	pop	ar7
                                   2459 ;	board/zbs29_BW_ssd1619/screen.c:416: break;
                                   2460 ;	board/zbs29_BW_ssd1619/screen.c:417: case EPD_LUT_FAST_NO_REDS:
      00848F 80 76            [24] 2461 	sjmp	00113$
      008491                       2462 00111$:
                                   2463 ;	board/zbs29_BW_ssd1619/screen.c:418: lutGroupDisable(LUTGROUP_NEGATIVE);
      008491 75 82 00         [24] 2464 	mov	dpl,#0x00
      008494 C0 07            [24] 2465 	push	ar7
      008496 12 81 3F         [24] 2466 	lcall	_lutGroupDisable
                                   2467 ;	board/zbs29_BW_ssd1619/screen.c:419: lutGroupDisable(LUTGROUP_FASTBLINK);
      008499 75 82 01         [24] 2468 	mov	dpl,#0x01
      00849C 12 81 3F         [24] 2469 	lcall	_lutGroupDisable
                                   2470 ;	board/zbs29_BW_ssd1619/screen.c:420: lutGroupDisable(LUTGROUP_SLOWBLINK);
      00849F 75 82 02         [24] 2471 	mov	dpl,#0x02
      0084A2 12 81 3F         [24] 2472 	lcall	_lutGroupDisable
                                   2473 ;	board/zbs29_BW_ssd1619/screen.c:421: lutGroupSpeedup(LUTGROUP_SET, 2);
      0084A5 90 E6 44         [24] 2474 	mov	dptr,#_lutGroupSpeedup_PARM_2
      0084A8 74 02            [12] 2475 	mov	a,#0x02
      0084AA F0               [24] 2476 	movx	@dptr,a
      0084AB 75 82 03         [24] 2477 	mov	dpl,#0x03
      0084AE 12 81 B9         [24] 2478 	lcall	_lutGroupSpeedup
                                   2479 ;	board/zbs29_BW_ssd1619/screen.c:422: lutGroupDisable(LUTGROUP_IMPROVE_REDS);
      0084B1 75 82 05         [24] 2480 	mov	dpl,#0x05
      0084B4 12 81 3F         [24] 2481 	lcall	_lutGroupDisable
                                   2482 ;	board/zbs29_BW_ssd1619/screen.c:423: lutGroupDisable(LUTGROUP_IMPROVE_SHARPNESS);
      0084B7 75 82 04         [24] 2483 	mov	dpl,#0x04
      0084BA 12 81 3F         [24] 2484 	lcall	_lutGroupDisable
                                   2485 ;	board/zbs29_BW_ssd1619/screen.c:424: lutGroupDisable(LUTGROUP_UNUSED);
      0084BD 75 82 06         [24] 2486 	mov	dpl,#0x06
      0084C0 12 81 3F         [24] 2487 	lcall	_lutGroupDisable
      0084C3 D0 07            [24] 2488 	pop	ar7
                                   2489 ;	board/zbs29_BW_ssd1619/screen.c:425: break;
                                   2490 ;	board/zbs29_BW_ssd1619/screen.c:426: case EPD_LUT_FAST:
      0084C5 80 40            [24] 2491 	sjmp	00113$
      0084C7                       2492 00112$:
                                   2493 ;	board/zbs29_BW_ssd1619/screen.c:427: lutGroupDisable(LUTGROUP_NEGATIVE);
      0084C7 75 82 00         [24] 2494 	mov	dpl,#0x00
      0084CA C0 07            [24] 2495 	push	ar7
      0084CC 12 81 3F         [24] 2496 	lcall	_lutGroupDisable
                                   2497 ;	board/zbs29_BW_ssd1619/screen.c:428: lutGroupDisable(LUTGROUP_FASTBLINK);
      0084CF 75 82 01         [24] 2498 	mov	dpl,#0x01
      0084D2 12 81 3F         [24] 2499 	lcall	_lutGroupDisable
                                   2500 ;	board/zbs29_BW_ssd1619/screen.c:429: lutGroupDisable(LUTGROUP_SLOWBLINK);
      0084D5 75 82 02         [24] 2501 	mov	dpl,#0x02
      0084D8 12 81 3F         [24] 2502 	lcall	_lutGroupDisable
                                   2503 ;	board/zbs29_BW_ssd1619/screen.c:430: lutGroupRepeat(LUTGROUP_SET, 1);
      0084DB 90 E6 46         [24] 2504 	mov	dptr,#_lutGroupRepeat_PARM_2
      0084DE 74 01            [12] 2505 	mov	a,#0x01
      0084E0 F0               [24] 2506 	movx	@dptr,a
      0084E1 75 82 03         [24] 2507 	mov	dpl,#0x03
      0084E4 12 82 65         [24] 2508 	lcall	_lutGroupRepeat
                                   2509 ;	board/zbs29_BW_ssd1619/screen.c:431: lutGroupSpeedup(LUTGROUP_SET, 2);
      0084E7 90 E6 44         [24] 2510 	mov	dptr,#_lutGroupSpeedup_PARM_2
      0084EA 74 02            [12] 2511 	mov	a,#0x02
      0084EC F0               [24] 2512 	movx	@dptr,a
      0084ED 75 82 03         [24] 2513 	mov	dpl,#0x03
      0084F0 12 81 B9         [24] 2514 	lcall	_lutGroupSpeedup
                                   2515 ;	board/zbs29_BW_ssd1619/screen.c:432: lutGroupDisable(LUTGROUP_IMPROVE_SHARPNESS);
      0084F3 75 82 04         [24] 2516 	mov	dpl,#0x04
      0084F6 12 81 3F         [24] 2517 	lcall	_lutGroupDisable
                                   2518 ;	board/zbs29_BW_ssd1619/screen.c:433: lutGroupDisable(LUTGROUP_IMPROVE_REDS);
      0084F9 75 82 05         [24] 2519 	mov	dpl,#0x05
      0084FC 12 81 3F         [24] 2520 	lcall	_lutGroupDisable
                                   2521 ;	board/zbs29_BW_ssd1619/screen.c:434: lutGroupDisable(LUTGROUP_UNUSED);
      0084FF 75 82 06         [24] 2522 	mov	dpl,#0x06
      008502 12 81 3F         [24] 2523 	lcall	_lutGroupDisable
      008505 D0 07            [24] 2524 	pop	ar7
                                   2525 ;	board/zbs29_BW_ssd1619/screen.c:436: }
      008507                       2526 00113$:
                                   2527 ;	board/zbs29_BW_ssd1619/screen.c:439: if (lut == EPD_LUT_OTA) {
      008507 BF 10 02         [24] 2528 	cjne	r7,#0x10,00163$
      00850A 80 03            [24] 2529 	sjmp	00164$
      00850C                       2530 00163$:
      00850C 02 85 9B         [24] 2531 	ljmp	00118$
      00850F                       2532 00164$:
                                   2533 ;	board/zbs29_BW_ssd1619/screen.c:440: memcpy(waveformbuffer, customLUT, dispLutSize * 10);
      00850F 90 FD 14         [24] 2534 	mov	dptr,#_dispLutSize
      008512 E0               [24] 2535 	movx	a,@dptr
      008513 90 E7 3D         [24] 2536 	mov	dptr,#__mulint_PARM_2
      008516 F0               [24] 2537 	movx	@dptr,a
      008517 E4               [12] 2538 	clr	a
      008518 A3               [24] 2539 	inc	dptr
      008519 F0               [24] 2540 	movx	@dptr,a
      00851A 90 00 0A         [24] 2541 	mov	dptr,#0x000a
      00851D 12 AA B1         [24] 2542 	lcall	__mulint
      008520 AE 82            [24] 2543 	mov	r6,dpl
      008522 AF 83            [24] 2544 	mov	r7,dph
      008524 90 E7 26         [24] 2545 	mov	dptr,#___memcpy_PARM_2
      008527 74 17            [12] 2546 	mov	a,#_customLUT
      008529 F0               [24] 2547 	movx	@dptr,a
      00852A 74 FD            [12] 2548 	mov	a,#(_customLUT >> 8)
      00852C A3               [24] 2549 	inc	dptr
      00852D F0               [24] 2550 	movx	@dptr,a
      00852E E4               [12] 2551 	clr	a
      00852F A3               [24] 2552 	inc	dptr
      008530 F0               [24] 2553 	movx	@dptr,a
      008531 90 E7 29         [24] 2554 	mov	dptr,#___memcpy_PARM_3
      008534 EE               [12] 2555 	mov	a,r6
      008535 F0               [24] 2556 	movx	@dptr,a
      008536 EF               [12] 2557 	mov	a,r7
      008537 A3               [24] 2558 	inc	dptr
      008538 F0               [24] 2559 	movx	@dptr,a
      008539 90 E5 AA         [24] 2560 	mov	dptr,#_waveformbuffer
      00853C 75 F0 00         [24] 2561 	mov	b,#0x00
      00853F 12 A9 38         [24] 2562 	lcall	___memcpy
                                   2563 ;	board/zbs29_BW_ssd1619/screen.c:441: writeLut();
      008542 12 80 6C         [24] 2564 	lcall	_writeLut
                                   2565 ;	board/zbs29_BW_ssd1619/screen.c:442: shortCommand1(CMD_GATE_LEVEL, customLUT[70]);
      008545 90 FD 5D         [24] 2566 	mov	dptr,#(_customLUT + 0x0046)
      008548 E0               [24] 2567 	movx	a,@dptr
      008549 90 E6 39         [24] 2568 	mov	dptr,#_shortCommand1_PARM_2
      00854C F0               [24] 2569 	movx	@dptr,a
      00854D 75 82 03         [24] 2570 	mov	dpl,#0x03
      008550 12 7D E7         [24] 2571 	lcall	_shortCommand1
                                   2572 ;	board/zbs29_BW_ssd1619/screen.c:443: commandBegin(CMD_SOURCE_LEVEL);
      008553 75 82 04         [24] 2573 	mov	dpl,#0x04
      008556 12 7E 32         [24] 2574 	lcall	_commandBegin
                                   2575 ;	board/zbs29_BW_ssd1619/screen.c:444: epdSend(customLUT[71]);
      008559 90 FD 5E         [24] 2576 	mov	dptr,#(_customLUT + 0x0047)
      00855C E0               [24] 2577 	movx	a,@dptr
      00855D F5 82            [12] 2578 	mov	dpl,a
      00855F 12 5C C3         [24] 2579 	lcall	_spiTXByte
                                   2580 ;	board/zbs29_BW_ssd1619/screen.c:445: epdSend(customLUT[72]);
      008562 90 FD 5F         [24] 2581 	mov	dptr,#(_customLUT + 0x0048)
      008565 E0               [24] 2582 	movx	a,@dptr
      008566 F5 82            [12] 2583 	mov	dpl,a
      008568 12 5C C3         [24] 2584 	lcall	_spiTXByte
                                   2585 ;	board/zbs29_BW_ssd1619/screen.c:446: epdSend(customLUT[73]);
      00856B 90 FD 60         [24] 2586 	mov	dptr,#(_customLUT + 0x0049)
      00856E E0               [24] 2587 	movx	a,@dptr
      00856F F5 82            [12] 2588 	mov	dpl,a
      008571 12 5C C3         [24] 2589 	lcall	_spiTXByte
                                   2590 ;	board/zbs29_BW_ssd1619/screen.c:447: commandEnd();
                                   2591 ;	assignBit
      008574 D2 97            [12] 2592 	setb	_P1_7
                                   2593 ;	board/zbs29_BW_ssd1619/screen.c:448: shortCommand1(CMD_DUMMY_PERIOD, customLUT[74]);
      008576 90 FD 61         [24] 2594 	mov	dptr,#(_customLUT + 0x004a)
      008579 E0               [24] 2595 	movx	a,@dptr
      00857A 90 E6 39         [24] 2596 	mov	dptr,#_shortCommand1_PARM_2
      00857D F0               [24] 2597 	movx	@dptr,a
      00857E 75 82 3A         [24] 2598 	mov	dpl,#0x3a
      008581 12 7D E7         [24] 2599 	lcall	_shortCommand1
                                   2600 ;	board/zbs29_BW_ssd1619/screen.c:449: shortCommand1(CMD_GATE_LINE_WIDTH, customLUT[75]);
      008584 90 FD 62         [24] 2601 	mov	dptr,#(_customLUT + 0x004b)
      008587 E0               [24] 2602 	movx	a,@dptr
      008588 90 E6 39         [24] 2603 	mov	dptr,#_shortCommand1_PARM_2
      00858B F0               [24] 2604 	movx	@dptr,a
      00858C 75 82 3B         [24] 2605 	mov	dpl,#0x3b
      00858F 12 7D E7         [24] 2606 	lcall	_shortCommand1
                                   2607 ;	board/zbs29_BW_ssd1619/screen.c:450: currentLut = lut;
      008592 90 E6 4A         [24] 2608 	mov	dptr,#_selectLUT_lut_65536_206
      008595 E0               [24] 2609 	movx	a,@dptr
      008596 90 FD 13         [24] 2610 	mov	dptr,#_currentLut
      008599 F0               [24] 2611 	movx	@dptr,a
                                   2612 ;	board/zbs29_BW_ssd1619/screen.c:451: return;
      00859A 22               [24] 2613 	ret
      00859B                       2614 00118$:
                                   2615 ;	board/zbs29_BW_ssd1619/screen.c:454: if (dispLutSize == 10) {
      00859B 90 FD 14         [24] 2616 	mov	dptr,#_dispLutSize
      00859E E0               [24] 2617 	movx	a,@dptr
      00859F FF               [12] 2618 	mov	r7,a
      0085A0 BF 0A 18         [24] 2619 	cjne	r7,#0x0a,00120$
                                   2620 ;	board/zbs29_BW_ssd1619/screen.c:455: lutGroupDisable(LUTGROUP_UNUSED);
      0085A3 75 82 06         [24] 2621 	mov	dpl,#0x06
      0085A6 12 81 3F         [24] 2622 	lcall	_lutGroupDisable
                                   2623 ;	board/zbs29_BW_ssd1619/screen.c:456: lutGroupDisable(LUTGROUP_UNKNOWN);
      0085A9 75 82 07         [24] 2624 	mov	dpl,#0x07
      0085AC 12 81 3F         [24] 2625 	lcall	_lutGroupDisable
                                   2626 ;	board/zbs29_BW_ssd1619/screen.c:457: lutGroupDisable(LUTGROUP_UNUSED3);
      0085AF 75 82 08         [24] 2627 	mov	dpl,#0x08
      0085B2 12 81 3F         [24] 2628 	lcall	_lutGroupDisable
                                   2629 ;	board/zbs29_BW_ssd1619/screen.c:458: lutGroupDisable(LUTGROUP_UNUSED4);
      0085B5 75 82 09         [24] 2630 	mov	dpl,#0x09
      0085B8 12 81 3F         [24] 2631 	lcall	_lutGroupDisable
      0085BB                       2632 00120$:
                                   2633 ;	board/zbs29_BW_ssd1619/screen.c:460: writeLut();
                                   2634 ;	board/zbs29_BW_ssd1619/screen.c:461: }
      0085BB 02 80 6C         [24] 2635 	ljmp	_writeLut
                                   2636 ;------------------------------------------------------------
                                   2637 ;Allocation info for local variables in function 'setWindowX'
                                   2638 ;------------------------------------------------------------
                                   2639 ;end                       Allocated with name '_setWindowX_PARM_2'
                                   2640 ;start                     Allocated with name '_setWindowX_start_65536_216'
                                   2641 ;------------------------------------------------------------
                                   2642 ;	board/zbs29_BW_ssd1619/screen.c:463: void setWindowX(uint16_t start, uint16_t end) {
                                   2643 ;	-----------------------------------------
                                   2644 ;	 function setWindowX
                                   2645 ;	-----------------------------------------
      0085BE                       2646 _setWindowX:
      0085BE AF 83            [24] 2647 	mov	r7,dph
      0085C0 E5 82            [12] 2648 	mov	a,dpl
      0085C2 90 E6 4D         [24] 2649 	mov	dptr,#_setWindowX_start_65536_216
      0085C5 F0               [24] 2650 	movx	@dptr,a
      0085C6 EF               [12] 2651 	mov	a,r7
      0085C7 A3               [24] 2652 	inc	dptr
      0085C8 F0               [24] 2653 	movx	@dptr,a
                                   2654 ;	board/zbs29_BW_ssd1619/screen.c:464: shortCommand2(CMD_WINDOW_X_SIZE, start / 8, end / 8 - 1);
      0085C9 90 E6 4D         [24] 2655 	mov	dptr,#_setWindowX_start_65536_216
      0085CC E0               [24] 2656 	movx	a,@dptr
      0085CD FE               [12] 2657 	mov	r6,a
      0085CE A3               [24] 2658 	inc	dptr
      0085CF E0               [24] 2659 	movx	a,@dptr
      0085D0 C4               [12] 2660 	swap	a
      0085D1 23               [12] 2661 	rl	a
      0085D2 CE               [12] 2662 	xch	a,r6
      0085D3 C4               [12] 2663 	swap	a
      0085D4 23               [12] 2664 	rl	a
      0085D5 54 1F            [12] 2665 	anl	a,#0x1f
      0085D7 6E               [12] 2666 	xrl	a,r6
      0085D8 CE               [12] 2667 	xch	a,r6
      0085D9 54 1F            [12] 2668 	anl	a,#0x1f
      0085DB CE               [12] 2669 	xch	a,r6
      0085DC 6E               [12] 2670 	xrl	a,r6
      0085DD CE               [12] 2671 	xch	a,r6
      0085DE 90 E6 4B         [24] 2672 	mov	dptr,#_setWindowX_PARM_2
      0085E1 E0               [24] 2673 	movx	a,@dptr
      0085E2 FD               [12] 2674 	mov	r5,a
      0085E3 A3               [24] 2675 	inc	dptr
      0085E4 E0               [24] 2676 	movx	a,@dptr
      0085E5 C4               [12] 2677 	swap	a
      0085E6 23               [12] 2678 	rl	a
      0085E7 CD               [12] 2679 	xch	a,r5
      0085E8 C4               [12] 2680 	swap	a
      0085E9 23               [12] 2681 	rl	a
      0085EA 54 1F            [12] 2682 	anl	a,#0x1f
      0085EC 6D               [12] 2683 	xrl	a,r5
      0085ED CD               [12] 2684 	xch	a,r5
      0085EE 54 1F            [12] 2685 	anl	a,#0x1f
      0085F0 CD               [12] 2686 	xch	a,r5
      0085F1 6D               [12] 2687 	xrl	a,r5
      0085F2 CD               [12] 2688 	xch	a,r5
      0085F3 1D               [12] 2689 	dec	r5
      0085F4 90 E6 3B         [24] 2690 	mov	dptr,#_shortCommand2_PARM_2
      0085F7 EE               [12] 2691 	mov	a,r6
      0085F8 F0               [24] 2692 	movx	@dptr,a
      0085F9 90 E6 3C         [24] 2693 	mov	dptr,#_shortCommand2_PARM_3
      0085FC ED               [12] 2694 	mov	a,r5
      0085FD F0               [24] 2695 	movx	@dptr,a
      0085FE 75 82 44         [24] 2696 	mov	dpl,#0x44
                                   2697 ;	board/zbs29_BW_ssd1619/screen.c:465: }
      008601 02 7E 08         [24] 2698 	ljmp	_shortCommand2
                                   2699 ;------------------------------------------------------------
                                   2700 ;Allocation info for local variables in function 'setWindowY'
                                   2701 ;------------------------------------------------------------
                                   2702 ;end                       Allocated with name '_setWindowY_PARM_2'
                                   2703 ;start                     Allocated with name '_setWindowY_start_65536_218'
                                   2704 ;------------------------------------------------------------
                                   2705 ;	board/zbs29_BW_ssd1619/screen.c:466: void setWindowY(uint16_t start, uint16_t end) {
                                   2706 ;	-----------------------------------------
                                   2707 ;	 function setWindowY
                                   2708 ;	-----------------------------------------
      008604                       2709 _setWindowY:
      008604 AF 83            [24] 2710 	mov	r7,dph
      008606 E5 82            [12] 2711 	mov	a,dpl
      008608 90 E6 51         [24] 2712 	mov	dptr,#_setWindowY_start_65536_218
      00860B F0               [24] 2713 	movx	@dptr,a
      00860C EF               [12] 2714 	mov	a,r7
      00860D A3               [24] 2715 	inc	dptr
      00860E F0               [24] 2716 	movx	@dptr,a
                                   2717 ;	board/zbs29_BW_ssd1619/screen.c:467: commandBegin(CMD_WINDOW_Y_SIZE);
      00860F 75 82 45         [24] 2718 	mov	dpl,#0x45
      008612 12 7E 32         [24] 2719 	lcall	_commandBegin
                                   2720 ;	board/zbs29_BW_ssd1619/screen.c:468: epdSend((start)&0xff);
      008615 90 E6 51         [24] 2721 	mov	dptr,#_setWindowY_start_65536_218
      008618 E0               [24] 2722 	movx	a,@dptr
      008619 FE               [12] 2723 	mov	r6,a
      00861A A3               [24] 2724 	inc	dptr
      00861B E0               [24] 2725 	movx	a,@dptr
      00861C FF               [12] 2726 	mov	r7,a
      00861D 8E 05            [24] 2727 	mov	ar5,r6
      00861F 8D 82            [24] 2728 	mov	dpl,r5
      008621 12 5C C3         [24] 2729 	lcall	_spiTXByte
                                   2730 ;	board/zbs29_BW_ssd1619/screen.c:469: epdSend((start) >> 8);
      008624 8F 06            [24] 2731 	mov	ar6,r7
      008626 8E 82            [24] 2732 	mov	dpl,r6
      008628 12 5C C3         [24] 2733 	lcall	_spiTXByte
                                   2734 ;	board/zbs29_BW_ssd1619/screen.c:470: epdSend((end - 1) & 0xff);
      00862B 90 E6 4F         [24] 2735 	mov	dptr,#_setWindowY_PARM_2
      00862E E0               [24] 2736 	movx	a,@dptr
      00862F FE               [12] 2737 	mov	r6,a
      008630 A3               [24] 2738 	inc	dptr
      008631 E0               [24] 2739 	movx	a,@dptr
      008632 FF               [12] 2740 	mov	r7,a
      008633 8E 05            [24] 2741 	mov	ar5,r6
      008635 1D               [12] 2742 	dec	r5
      008636 8D 82            [24] 2743 	mov	dpl,r5
      008638 12 5C C3         [24] 2744 	lcall	_spiTXByte
                                   2745 ;	board/zbs29_BW_ssd1619/screen.c:471: epdSend((end - 1) >> 8);
      00863B 1E               [12] 2746 	dec	r6
      00863C BE FF 01         [24] 2747 	cjne	r6,#0xff,00106$
      00863F 1F               [12] 2748 	dec	r7
      008640                       2749 00106$:
      008640 8F 06            [24] 2750 	mov	ar6,r7
      008642 8E 82            [24] 2751 	mov	dpl,r6
      008644 12 5C C3         [24] 2752 	lcall	_spiTXByte
                                   2753 ;	board/zbs29_BW_ssd1619/screen.c:472: commandEnd();
                                   2754 ;	assignBit
      008647 D2 97            [12] 2755 	setb	_P1_7
                                   2756 ;	board/zbs29_BW_ssd1619/screen.c:473: }
      008649 22               [24] 2757 	ret
                                   2758 ;------------------------------------------------------------
                                   2759 ;Allocation info for local variables in function 'setPosXY'
                                   2760 ;------------------------------------------------------------
                                   2761 ;y                         Allocated with name '_setPosXY_PARM_2'
                                   2762 ;x                         Allocated with name '_setPosXY_x_65536_221'
                                   2763 ;------------------------------------------------------------
                                   2764 ;	board/zbs29_BW_ssd1619/screen.c:474: void setPosXY(uint16_t x, uint16_t y) {
                                   2765 ;	-----------------------------------------
                                   2766 ;	 function setPosXY
                                   2767 ;	-----------------------------------------
      00864A                       2768 _setPosXY:
      00864A AF 83            [24] 2769 	mov	r7,dph
      00864C E5 82            [12] 2770 	mov	a,dpl
      00864E 90 E6 55         [24] 2771 	mov	dptr,#_setPosXY_x_65536_221
      008651 F0               [24] 2772 	movx	@dptr,a
      008652 EF               [12] 2773 	mov	a,r7
      008653 A3               [24] 2774 	inc	dptr
      008654 F0               [24] 2775 	movx	@dptr,a
                                   2776 ;	board/zbs29_BW_ssd1619/screen.c:475: shortCommand1(CMD_XSTART_POS, (uint8_t)(x / 8));
      008655 90 E6 55         [24] 2777 	mov	dptr,#_setPosXY_x_65536_221
      008658 E0               [24] 2778 	movx	a,@dptr
      008659 FE               [12] 2779 	mov	r6,a
      00865A A3               [24] 2780 	inc	dptr
      00865B E0               [24] 2781 	movx	a,@dptr
      00865C C4               [12] 2782 	swap	a
      00865D 23               [12] 2783 	rl	a
      00865E CE               [12] 2784 	xch	a,r6
      00865F C4               [12] 2785 	swap	a
      008660 23               [12] 2786 	rl	a
      008661 54 1F            [12] 2787 	anl	a,#0x1f
      008663 6E               [12] 2788 	xrl	a,r6
      008664 CE               [12] 2789 	xch	a,r6
      008665 54 1F            [12] 2790 	anl	a,#0x1f
      008667 CE               [12] 2791 	xch	a,r6
      008668 6E               [12] 2792 	xrl	a,r6
      008669 CE               [12] 2793 	xch	a,r6
      00866A 90 E6 39         [24] 2794 	mov	dptr,#_shortCommand1_PARM_2
      00866D EE               [12] 2795 	mov	a,r6
      00866E F0               [24] 2796 	movx	@dptr,a
      00866F 75 82 4E         [24] 2797 	mov	dpl,#0x4e
      008672 12 7D E7         [24] 2798 	lcall	_shortCommand1
                                   2799 ;	board/zbs29_BW_ssd1619/screen.c:476: commandBegin(CMD_YSTART_POS);
      008675 75 82 4F         [24] 2800 	mov	dpl,#0x4f
      008678 12 7E 32         [24] 2801 	lcall	_commandBegin
                                   2802 ;	board/zbs29_BW_ssd1619/screen.c:477: epdSend((y)&0xff);
      00867B 90 E6 53         [24] 2803 	mov	dptr,#_setPosXY_PARM_2
      00867E E0               [24] 2804 	movx	a,@dptr
      00867F FE               [12] 2805 	mov	r6,a
      008680 A3               [24] 2806 	inc	dptr
      008681 E0               [24] 2807 	movx	a,@dptr
      008682 FF               [12] 2808 	mov	r7,a
      008683 8E 05            [24] 2809 	mov	ar5,r6
      008685 8D 82            [24] 2810 	mov	dpl,r5
      008687 12 5C C3         [24] 2811 	lcall	_spiTXByte
                                   2812 ;	board/zbs29_BW_ssd1619/screen.c:478: epdSend((y) >> 8);
      00868A 8F 06            [24] 2813 	mov	ar6,r7
      00868C 8E 82            [24] 2814 	mov	dpl,r6
      00868E 12 5C C3         [24] 2815 	lcall	_spiTXByte
                                   2816 ;	board/zbs29_BW_ssd1619/screen.c:479: commandEnd();
                                   2817 ;	assignBit
      008691 D2 97            [12] 2818 	setb	_P1_7
                                   2819 ;	board/zbs29_BW_ssd1619/screen.c:480: }
      008693 22               [24] 2820 	ret
                                   2821 ;------------------------------------------------------------
                                   2822 ;Allocation info for local variables in function 'setColorMode'
                                   2823 ;------------------------------------------------------------
                                   2824 ;bw                        Allocated with name '_setColorMode_PARM_2'
                                   2825 ;red                       Allocated with name '_setColorMode_red_65536_224'
                                   2826 ;------------------------------------------------------------
                                   2827 ;	board/zbs29_BW_ssd1619/screen.c:481: void setColorMode(uint8_t red, uint8_t bw) {
                                   2828 ;	-----------------------------------------
                                   2829 ;	 function setColorMode
                                   2830 ;	-----------------------------------------
      008694                       2831 _setColorMode:
      008694 E5 82            [12] 2832 	mov	a,dpl
      008696 90 E6 58         [24] 2833 	mov	dptr,#_setColorMode_red_65536_224
                                   2834 ;	board/zbs29_BW_ssd1619/screen.c:482: shortCommand1(CMD_DISP_UPDATE_CTRL, (red << 4) | bw);
      008699 F0               [24] 2835 	movx	@dptr,a ; Peephole dmitrygr.0005 - SRSLY, WTF?
      00869A C4               [12] 2836 	swap	a
      00869B 54 F0            [12] 2837 	anl	a,#0xf0
      00869D FF               [12] 2838 	mov	r7,a
      00869E 90 E6 57         [24] 2839 	mov	dptr,#_setColorMode_PARM_2
      0086A1 E0               [24] 2840 	movx	a,@dptr
      0086A2 90 E6 39         [24] 2841 	mov	dptr,#_shortCommand1_PARM_2
      0086A5 4F               [12] 2842 	orl	a,r7
      0086A6 F0               [24] 2843 	movx	@dptr,a
      0086A7 75 82 21         [24] 2844 	mov	dpl,#0x21
                                   2845 ;	board/zbs29_BW_ssd1619/screen.c:483: }
      0086AA 02 7D E7         [24] 2846 	ljmp	_shortCommand1
                                   2847 ;------------------------------------------------------------
                                   2848 ;Allocation info for local variables in function 'fillWindowWithPattern'
                                   2849 ;------------------------------------------------------------
                                   2850 ;color                     Allocated with name '_fillWindowWithPattern_color_65536_226'
                                   2851 ;------------------------------------------------------------
                                   2852 ;	board/zbs29_BW_ssd1619/screen.c:484: void fillWindowWithPattern(bool color) {
                                   2853 ;	-----------------------------------------
                                   2854 ;	 function fillWindowWithPattern
                                   2855 ;	-----------------------------------------
      0086AD                       2856 _fillWindowWithPattern:
      0086AD E5 82            [12] 2857 	mov	a,dpl
      0086AF 90 E6 59         [24] 2858 	mov	dptr,#_fillWindowWithPattern_color_65536_226
                                   2859 ;	board/zbs29_BW_ssd1619/screen.c:485: if (color == EPD_COLOR_RED) {
      0086B2 F0               [24] 2860 	movx	@dptr,a ; Peephole dmitrygr.0005 - SRSLY, WTF?
      0086B3 60 0B            [24] 2861 	jz	00102$
                                   2862 ;	board/zbs29_BW_ssd1619/screen.c:486: shortCommand1(CMD_WRITE_PATTERN_RED, 0x00);
      0086B5 90 E6 39         [24] 2863 	mov	dptr,#_shortCommand1_PARM_2
      0086B8 E4               [12] 2864 	clr	a
      0086B9 F0               [24] 2865 	movx	@dptr,a
      0086BA 75 82 46         [24] 2866 	mov	dpl,#0x46
      0086BD 02 7D E7         [24] 2867 	ljmp	_shortCommand1
      0086C0                       2868 00102$:
                                   2869 ;	board/zbs29_BW_ssd1619/screen.c:488: shortCommand1(CMD_WRITE_PATTERN_BW, 0x00);
      0086C0 90 E6 39         [24] 2870 	mov	dptr,#_shortCommand1_PARM_2
      0086C3 E4               [12] 2871 	clr	a
      0086C4 F0               [24] 2872 	movx	@dptr,a
      0086C5 75 82 47         [24] 2873 	mov	dpl,#0x47
                                   2874 ;	board/zbs29_BW_ssd1619/screen.c:490: }
      0086C8 02 7D E7         [24] 2875 	ljmp	_shortCommand1
                                   2876 ;------------------------------------------------------------
                                   2877 ;Allocation info for local variables in function 'clearWindow'
                                   2878 ;------------------------------------------------------------
                                   2879 ;color                     Allocated with name '_clearWindow_color_65536_230'
                                   2880 ;------------------------------------------------------------
                                   2881 ;	board/zbs29_BW_ssd1619/screen.c:491: void clearWindow(bool color) {
                                   2882 ;	-----------------------------------------
                                   2883 ;	 function clearWindow
                                   2884 ;	-----------------------------------------
      0086CB                       2885 _clearWindow:
      0086CB E5 82            [12] 2886 	mov	a,dpl
      0086CD 90 E6 5A         [24] 2887 	mov	dptr,#_clearWindow_color_65536_230
                                   2888 ;	board/zbs29_BW_ssd1619/screen.c:492: if (color == EPD_COLOR_RED) {
      0086D0 F0               [24] 2889 	movx	@dptr,a ; Peephole dmitrygr.0005 - SRSLY, WTF?
      0086D1 60 0C            [24] 2890 	jz	00102$
                                   2891 ;	board/zbs29_BW_ssd1619/screen.c:493: shortCommand1(CMD_WRITE_PATTERN_RED, 0x66);
      0086D3 90 E6 39         [24] 2892 	mov	dptr,#_shortCommand1_PARM_2
      0086D6 74 66            [12] 2893 	mov	a,#0x66
      0086D8 F0               [24] 2894 	movx	@dptr,a
      0086D9 75 82 46         [24] 2895 	mov	dpl,#0x46
      0086DC 02 7D E7         [24] 2896 	ljmp	_shortCommand1
      0086DF                       2897 00102$:
                                   2898 ;	board/zbs29_BW_ssd1619/screen.c:495: shortCommand1(CMD_WRITE_PATTERN_BW, 0x66);
      0086DF 90 E6 39         [24] 2899 	mov	dptr,#_shortCommand1_PARM_2
      0086E2 74 66            [12] 2900 	mov	a,#0x66
      0086E4 F0               [24] 2901 	movx	@dptr,a
      0086E5 75 82 47         [24] 2902 	mov	dpl,#0x47
                                   2903 ;	board/zbs29_BW_ssd1619/screen.c:497: }
      0086E8 02 7D E7         [24] 2904 	ljmp	_shortCommand1
                                   2905 ;------------------------------------------------------------
                                   2906 ;Allocation info for local variables in function 'clearScreen'
                                   2907 ;------------------------------------------------------------
                                   2908 ;	board/zbs29_BW_ssd1619/screen.c:498: void clearScreen() {
                                   2909 ;	-----------------------------------------
                                   2910 ;	 function clearScreen
                                   2911 ;	-----------------------------------------
      0086EB                       2912 _clearScreen:
                                   2913 ;	board/zbs29_BW_ssd1619/screen.c:499: setWindowX(0, SCREEN_WIDTH);
      0086EB 90 E6 4B         [24] 2914 	mov	dptr,#_setWindowX_PARM_2
      0086EE 74 80            [12] 2915 	mov	a,#0x80
      0086F0 F0               [24] 2916 	movx	@dptr,a
      0086F1 E4               [12] 2917 	clr	a
      0086F2 A3               [24] 2918 	inc	dptr
      0086F3 F0               [24] 2919 	movx	@dptr,a
      0086F4 90 00 00         [24] 2920 	mov	dptr,#0x0000
      0086F7 12 85 BE         [24] 2921 	lcall	_setWindowX
                                   2922 ;	board/zbs29_BW_ssd1619/screen.c:500: setWindowY(0, SCREEN_HEIGHT);
      0086FA 90 E6 4F         [24] 2923 	mov	dptr,#_setWindowY_PARM_2
      0086FD 74 28            [12] 2924 	mov	a,#0x28
      0086FF F0               [24] 2925 	movx	@dptr,a
      008700 74 01            [12] 2926 	mov	a,#0x01
      008702 A3               [24] 2927 	inc	dptr
      008703 F0               [24] 2928 	movx	@dptr,a
      008704 90 00 00         [24] 2929 	mov	dptr,#0x0000
      008707 12 86 04         [24] 2930 	lcall	_setWindowY
                                   2931 ;	board/zbs29_BW_ssd1619/screen.c:501: setPosXY(0, 0);
      00870A 90 E6 53         [24] 2932 	mov	dptr,#_setPosXY_PARM_2
      00870D E4               [12] 2933 	clr	a
      00870E F0               [24] 2934 	movx	@dptr,a
      00870F A3               [24] 2935 	inc	dptr
      008710 F0               [24] 2936 	movx	@dptr,a
      008711 90 00 00         [24] 2937 	mov	dptr,#0x0000
      008714 12 86 4A         [24] 2938 	lcall	_setPosXY
                                   2939 ;	board/zbs29_BW_ssd1619/screen.c:502: shortCommand1(CMD_DATA_ENTRY_MODE, 3);  // was 3
      008717 90 E6 39         [24] 2940 	mov	dptr,#_shortCommand1_PARM_2
      00871A 74 03            [12] 2941 	mov	a,#0x03
      00871C F0               [24] 2942 	movx	@dptr,a
      00871D 75 82 11         [24] 2943 	mov	dpl,#0x11
      008720 12 7D E7         [24] 2944 	lcall	_shortCommand1
                                   2945 ;	board/zbs29_BW_ssd1619/screen.c:503: shortCommand1(CMD_WRITE_PATTERN_BW, 0x66);
      008723 90 E6 39         [24] 2946 	mov	dptr,#_shortCommand1_PARM_2
      008726 74 66            [12] 2947 	mov	a,#0x66
      008728 F0               [24] 2948 	movx	@dptr,a
      008729 75 82 47         [24] 2949 	mov	dpl,#0x47
      00872C 12 7D E7         [24] 2950 	lcall	_shortCommand1
                                   2951 ;	board/zbs29_BW_ssd1619/screen.c:504: epdBusyWait(TIMER_TICKS_PER_MS * 100);
      00872F 90 08 B4         [24] 2952 	mov	dptr,#0x08b4
      008732 75 F0 02         [24] 2953 	mov	b,#0x02
      008735 E4               [12] 2954 	clr	a
      008736 12 7C BA         [24] 2955 	lcall	_epdBusyWait
                                   2956 ;	board/zbs29_BW_ssd1619/screen.c:505: shortCommand1(CMD_WRITE_PATTERN_RED, 0x66);
      008739 90 E6 39         [24] 2957 	mov	dptr,#_shortCommand1_PARM_2
      00873C 74 66            [12] 2958 	mov	a,#0x66
      00873E F0               [24] 2959 	movx	@dptr,a
      00873F 75 82 46         [24] 2960 	mov	dpl,#0x46
      008742 12 7D E7         [24] 2961 	lcall	_shortCommand1
                                   2962 ;	board/zbs29_BW_ssd1619/screen.c:506: epdBusyWait(TIMER_TICKS_PER_MS * 100);
      008745 90 08 B4         [24] 2963 	mov	dptr,#0x08b4
      008748 75 F0 02         [24] 2964 	mov	b,#0x02
      00874B E4               [12] 2965 	clr	a
                                   2966 ;	board/zbs29_BW_ssd1619/screen.c:507: }
      00874C 02 7C BA         [24] 2967 	ljmp	_epdBusyWait
                                   2968 ;------------------------------------------------------------
                                   2969 ;Allocation info for local variables in function 'draw'
                                   2970 ;------------------------------------------------------------
                                   2971 ;	board/zbs29_BW_ssd1619/screen.c:508: void draw() {
                                   2972 ;	-----------------------------------------
                                   2973 ;	 function draw
                                   2974 ;	-----------------------------------------
      00874F                       2975 _draw:
                                   2976 ;	board/zbs29_BW_ssd1619/screen.c:509: shortCommand1(0x22, 0xCF);
      00874F 90 E6 39         [24] 2977 	mov	dptr,#_shortCommand1_PARM_2
      008752 74 CF            [12] 2978 	mov	a,#0xcf
      008754 F0               [24] 2979 	movx	@dptr,a
      008755 75 82 22         [24] 2980 	mov	dpl,#0x22
      008758 12 7D E7         [24] 2981 	lcall	_shortCommand1
                                   2982 ;	board/zbs29_BW_ssd1619/screen.c:511: shortCommand(0x20);
      00875B 75 82 20         [24] 2983 	mov	dpl,#0x20
      00875E 12 7D D1         [24] 2984 	lcall	_shortCommand
                                   2985 ;	board/zbs29_BW_ssd1619/screen.c:512: epdBusyWait(TIMER_TICKS_PER_SECOND * 120);
      008761 90 67 D8         [24] 2986 	mov	dptr,#0x67d8
      008764 75 F0 89         [24] 2987 	mov	b,#0x89
      008767 74 09            [12] 2988 	mov	a,#0x09
                                   2989 ;	board/zbs29_BW_ssd1619/screen.c:513: }
      008769 02 7C BA         [24] 2990 	ljmp	_epdBusyWait
                                   2991 ;------------------------------------------------------------
                                   2992 ;Allocation info for local variables in function 'drawNoWait'
                                   2993 ;------------------------------------------------------------
                                   2994 ;	board/zbs29_BW_ssd1619/screen.c:514: void drawNoWait() {
                                   2995 ;	-----------------------------------------
                                   2996 ;	 function drawNoWait
                                   2997 ;	-----------------------------------------
      00876C                       2998 _drawNoWait:
                                   2999 ;	board/zbs29_BW_ssd1619/screen.c:515: shortCommand1(0x22, 0xCF);
      00876C 90 E6 39         [24] 3000 	mov	dptr,#_shortCommand1_PARM_2
      00876F 74 CF            [12] 3001 	mov	a,#0xcf
      008771 F0               [24] 3002 	movx	@dptr,a
      008772 75 82 22         [24] 3003 	mov	dpl,#0x22
      008775 12 7D E7         [24] 3004 	lcall	_shortCommand1
                                   3005 ;	board/zbs29_BW_ssd1619/screen.c:517: shortCommand(0x20);
      008778 75 82 20         [24] 3006 	mov	dpl,#0x20
                                   3007 ;	board/zbs29_BW_ssd1619/screen.c:518: }
      00877B 02 7D D1         [24] 3008 	ljmp	_shortCommand
                                   3009 ;------------------------------------------------------------
                                   3010 ;Allocation info for local variables in function 'drawWithSleep'
                                   3011 ;------------------------------------------------------------
                                   3012 ;tmp_P2FUNC                Allocated with name '_drawWithSleep_tmp_P2FUNC_65537_238'
                                   3013 ;tmp_P2DIR                 Allocated with name '_drawWithSleep_tmp_P2DIR_65537_238'
                                   3014 ;tmp_P2PULL                Allocated with name '_drawWithSleep_tmp_P2PULL_65537_238'
                                   3015 ;tmp_P2LVLSEL              Allocated with name '_drawWithSleep_tmp_P2LVLSEL_65537_238'
                                   3016 ;------------------------------------------------------------
                                   3017 ;	board/zbs29_BW_ssd1619/screen.c:519: void drawWithSleep() {
                                   3018 ;	-----------------------------------------
                                   3019 ;	 function drawWithSleep
                                   3020 ;	-----------------------------------------
      00877E                       3021 _drawWithSleep:
                                   3022 ;	board/zbs29_BW_ssd1619/screen.c:520: shortCommand1(0x22, 0xCF);
      00877E 90 E6 39         [24] 3023 	mov	dptr,#_shortCommand1_PARM_2
      008781 74 CF            [12] 3024 	mov	a,#0xcf
      008783 F0               [24] 3025 	movx	@dptr,a
      008784 75 82 22         [24] 3026 	mov	dpl,#0x22
      008787 12 7D E7         [24] 3027 	lcall	_shortCommand1
                                   3028 ;	board/zbs29_BW_ssd1619/screen.c:522: shortCommand(0x20);
      00878A 75 82 20         [24] 3029 	mov	dpl,#0x20
      00878D 12 7D D1         [24] 3030 	lcall	_shortCommand
                                   3031 ;	board/zbs29_BW_ssd1619/screen.c:523: uint8_t tmp_P2FUNC = P2FUNC;
      008790 90 E6 5B         [24] 3032 	mov	dptr,#_drawWithSleep_tmp_P2FUNC_65537_238
      008793 E5 AF            [12] 3033 	mov	a,_P2FUNC
      008795 F0               [24] 3034 	movx	@dptr,a
                                   3035 ;	board/zbs29_BW_ssd1619/screen.c:524: uint8_t tmp_P2DIR = P2DIR;
      008796 90 E6 5C         [24] 3036 	mov	dptr,#_drawWithSleep_tmp_P2DIR_65537_238
      008799 E5 BB            [12] 3037 	mov	a,_P2DIR
      00879B F0               [24] 3038 	movx	@dptr,a
                                   3039 ;	board/zbs29_BW_ssd1619/screen.c:525: uint8_t tmp_P2PULL = P2PULL;
      00879C 90 E6 5D         [24] 3040 	mov	dptr,#_drawWithSleep_tmp_P2PULL_65537_238
      00879F E5 BE            [12] 3041 	mov	a,_P2PULL
      0087A1 F0               [24] 3042 	movx	@dptr,a
                                   3043 ;	board/zbs29_BW_ssd1619/screen.c:526: uint8_t tmp_P2LVLSEL = P2LVLSEL;
      0087A2 90 E6 5E         [24] 3044 	mov	dptr,#_drawWithSleep_tmp_P2LVLSEL_65537_238
      0087A5 E5 A5            [12] 3045 	mov	a,_P2LVLSEL
      0087A7 F0               [24] 3046 	movx	@dptr,a
                                   3047 ;	board/zbs29_BW_ssd1619/screen.c:527: P2FUNC &= 0xfd;
      0087A8 53 AF FD         [24] 3048 	anl	_P2FUNC,#0xfd
                                   3049 ;	board/zbs29_BW_ssd1619/screen.c:528: P2DIR |= 2;
      0087AB 43 BB 02         [24] 3050 	orl	_P2DIR,#0x02
                                   3051 ;	board/zbs29_BW_ssd1619/screen.c:529: P2PULL |= 2;
      0087AE 43 BE 02         [24] 3052 	orl	_P2PULL,#0x02
                                   3053 ;	board/zbs29_BW_ssd1619/screen.c:530: P2LVLSEL |= 2;
      0087B1 43 A5 02         [24] 3054 	orl	_P2LVLSEL,#0x02
                                   3055 ;	board/zbs29_BW_ssd1619/screen.c:532: P2CHSTA &= 0xfd;
      0087B4 53 AC FD         [24] 3056 	anl	_P2CHSTA,#0xfd
                                   3057 ;	board/zbs29_BW_ssd1619/screen.c:533: P2INTEN |= 2;
      0087B7 43 A9 02         [24] 3058 	orl	_P2INTEN,#0x02
                                   3059 ;	board/zbs29_BW_ssd1619/screen.c:534: P2CHSTA &= 0xfd;
      0087BA 53 AC FD         [24] 3060 	anl	_P2CHSTA,#0xfd
                                   3061 ;	board/zbs29_BW_ssd1619/screen.c:535: sleepForMsec(TIMER_TICKS_PER_SECOND * 120);
      0087BD 90 67 D8         [24] 3062 	mov	dptr,#0x67d8
      0087C0 75 F0 89         [24] 3063 	mov	b,#0x89
      0087C3 74 09            [12] 3064 	mov	a,#0x09
      0087C5 12 5A E7         [24] 3065 	lcall	_sleepForMsec
                                   3066 ;	board/zbs29_BW_ssd1619/screen.c:536: wdtOn();
      0087C8 12 5A 4C         [24] 3067 	lcall	_wdtOn
                                   3068 ;	board/zbs29_BW_ssd1619/screen.c:537: P2CHSTA &= 0xfd;
      0087CB 53 AC FD         [24] 3069 	anl	_P2CHSTA,#0xfd
                                   3070 ;	board/zbs29_BW_ssd1619/screen.c:538: P2INTEN &= 0xfd;
      0087CE 53 A9 FD         [24] 3071 	anl	_P2INTEN,#0xfd
                                   3072 ;	board/zbs29_BW_ssd1619/screen.c:540: P2FUNC = tmp_P2FUNC;
      0087D1 90 E6 5B         [24] 3073 	mov	dptr,#_drawWithSleep_tmp_P2FUNC_65537_238
      0087D4 E0               [24] 3074 	movx	a,@dptr
      0087D5 F5 AF            [12] 3075 	mov	_P2FUNC,a
                                   3076 ;	board/zbs29_BW_ssd1619/screen.c:541: P2DIR = tmp_P2DIR;
      0087D7 90 E6 5C         [24] 3077 	mov	dptr,#_drawWithSleep_tmp_P2DIR_65537_238
      0087DA E0               [24] 3078 	movx	a,@dptr
      0087DB F5 BB            [12] 3079 	mov	_P2DIR,a
                                   3080 ;	board/zbs29_BW_ssd1619/screen.c:542: P2PULL = tmp_P2PULL;
      0087DD 90 E6 5D         [24] 3081 	mov	dptr,#_drawWithSleep_tmp_P2PULL_65537_238
      0087E0 E0               [24] 3082 	movx	a,@dptr
      0087E1 F5 BE            [12] 3083 	mov	_P2PULL,a
                                   3084 ;	board/zbs29_BW_ssd1619/screen.c:543: P2LVLSEL = tmp_P2LVLSEL;
      0087E3 90 E6 5E         [24] 3085 	mov	dptr,#_drawWithSleep_tmp_P2LVLSEL_65537_238
      0087E6 E0               [24] 3086 	movx	a,@dptr
      0087E7 F5 A5            [12] 3087 	mov	_P2LVLSEL,a
                                   3088 ;	board/zbs29_BW_ssd1619/screen.c:544: eepromPrvDeselect();
      0087E9 00               [12] 3089 	nop
      0087EA 00               [12] 3090 	nop
      0087EB 00               [12] 3091 	nop
                                   3092 ;	assignBit
      0087EC D2 91            [12] 3093 	setb	_P1_1
      0087EE 00               [12] 3094 	nop
      0087EF 00               [12] 3095 	nop
      0087F0 00               [12] 3096 	nop
                                   3097 ;	board/zbs29_BW_ssd1619/screen.c:545: }
      0087F1 22               [24] 3098 	ret
                                   3099 ;------------------------------------------------------------
                                   3100 ;Allocation info for local variables in function 'epdWaitRdy'
                                   3101 ;------------------------------------------------------------
                                   3102 ;	board/zbs29_BW_ssd1619/screen.c:546: void epdWaitRdy() {
                                   3103 ;	-----------------------------------------
                                   3104 ;	 function epdWaitRdy
                                   3105 ;	-----------------------------------------
      0087F2                       3106 _epdWaitRdy:
                                   3107 ;	board/zbs29_BW_ssd1619/screen.c:547: epdBusyWait(TIMER_TICKS_PER_SECOND * 120);
      0087F2 90 67 D8         [24] 3108 	mov	dptr,#0x67d8
      0087F5 75 F0 89         [24] 3109 	mov	b,#0x89
      0087F8 74 09            [12] 3110 	mov	a,#0x09
                                   3111 ;	board/zbs29_BW_ssd1619/screen.c:548: }
      0087FA 02 7C BA         [24] 3112 	ljmp	_epdBusyWait
                                   3113 ;------------------------------------------------------------
                                   3114 ;Allocation info for local variables in function 'drawLineHorizontal'
                                   3115 ;------------------------------------------------------------
                                   3116 ;x1                        Allocated with name '_drawLineHorizontal_PARM_2'
                                   3117 ;x2                        Allocated with name '_drawLineHorizontal_PARM_3'
                                   3118 ;y                         Allocated with name '_drawLineHorizontal_PARM_4'
                                   3119 ;color                     Allocated with name '_drawLineHorizontal_color_65536_241'
                                   3120 ;------------------------------------------------------------
                                   3121 ;	board/zbs29_BW_ssd1619/screen.c:549: void drawLineHorizontal(bool color, uint16_t x1, uint16_t x2, uint16_t y) {
                                   3122 ;	-----------------------------------------
                                   3123 ;	 function drawLineHorizontal
                                   3124 ;	-----------------------------------------
      0087FD                       3125 _drawLineHorizontal:
      0087FD E5 82            [12] 3126 	mov	a,dpl
      0087FF 90 E6 65         [24] 3127 	mov	dptr,#_drawLineHorizontal_color_65536_241
      008802 F0               [24] 3128 	movx	@dptr,a
                                   3129 ;	board/zbs29_BW_ssd1619/screen.c:550: setWindowX(x1, x2);
      008803 90 E6 5F         [24] 3130 	mov	dptr,#_drawLineHorizontal_PARM_2
      008806 E0               [24] 3131 	movx	a,@dptr
      008807 FE               [12] 3132 	mov	r6,a
      008808 A3               [24] 3133 	inc	dptr
      008809 E0               [24] 3134 	movx	a,@dptr
      00880A FF               [12] 3135 	mov	r7,a
      00880B 90 E6 61         [24] 3136 	mov	dptr,#_drawLineHorizontal_PARM_3
      00880E E0               [24] 3137 	movx	a,@dptr
      00880F FC               [12] 3138 	mov	r4,a
      008810 A3               [24] 3139 	inc	dptr
      008811 E0               [24] 3140 	movx	a,@dptr
      008812 FD               [12] 3141 	mov	r5,a
      008813 90 E6 4B         [24] 3142 	mov	dptr,#_setWindowX_PARM_2
      008816 EC               [12] 3143 	mov	a,r4
      008817 F0               [24] 3144 	movx	@dptr,a
      008818 ED               [12] 3145 	mov	a,r5
      008819 A3               [24] 3146 	inc	dptr
      00881A F0               [24] 3147 	movx	@dptr,a
      00881B 8E 82            [24] 3148 	mov	dpl,r6
      00881D 8F 83            [24] 3149 	mov	dph,r7
      00881F 12 85 BE         [24] 3150 	lcall	_setWindowX
                                   3151 ;	board/zbs29_BW_ssd1619/screen.c:551: setWindowY(y, y + 1);
      008822 90 E6 63         [24] 3152 	mov	dptr,#_drawLineHorizontal_PARM_4
      008825 E0               [24] 3153 	movx	a,@dptr
      008826 FE               [12] 3154 	mov	r6,a
      008827 A3               [24] 3155 	inc	dptr
      008828 E0               [24] 3156 	movx	a,@dptr
      008829 FF               [12] 3157 	mov	r7,a
      00882A 8E 04            [24] 3158 	mov	ar4,r6
      00882C 8F 05            [24] 3159 	mov	ar5,r7
      00882E 0C               [12] 3160 	inc	r4
      00882F BC 00 01         [24] 3161 	cjne	r4,#0x00,00110$
      008832 0D               [12] 3162 	inc	r5
      008833                       3163 00110$:
      008833 90 E6 4F         [24] 3164 	mov	dptr,#_setWindowY_PARM_2
      008836 EC               [12] 3165 	mov	a,r4
      008837 F0               [24] 3166 	movx	@dptr,a
      008838 ED               [12] 3167 	mov	a,r5
      008839 A3               [24] 3168 	inc	dptr
      00883A F0               [24] 3169 	movx	@dptr,a
      00883B 8E 82            [24] 3170 	mov	dpl,r6
      00883D 8F 83            [24] 3171 	mov	dph,r7
      00883F 12 86 04         [24] 3172 	lcall	_setWindowY
                                   3173 ;	board/zbs29_BW_ssd1619/screen.c:552: if (color) {
      008842 90 E6 65         [24] 3174 	mov	dptr,#_drawLineHorizontal_color_65536_241
      008845 E0               [24] 3175 	movx	a,@dptr
      008846 60 0E            [24] 3176 	jz	00102$
                                   3177 ;	board/zbs29_BW_ssd1619/screen.c:553: shortCommand1(CMD_WRITE_PATTERN_RED, 0xE6);
      008848 90 E6 39         [24] 3178 	mov	dptr,#_shortCommand1_PARM_2
      00884B 74 E6            [12] 3179 	mov	a,#0xe6
      00884D F0               [24] 3180 	movx	@dptr,a
      00884E 75 82 46         [24] 3181 	mov	dpl,#0x46
      008851 12 7D E7         [24] 3182 	lcall	_shortCommand1
      008854 80 0C            [24] 3183 	sjmp	00103$
      008856                       3184 00102$:
                                   3185 ;	board/zbs29_BW_ssd1619/screen.c:555: shortCommand1(CMD_WRITE_PATTERN_BW, 0xE6);
      008856 90 E6 39         [24] 3186 	mov	dptr,#_shortCommand1_PARM_2
      008859 74 E6            [12] 3187 	mov	a,#0xe6
      00885B F0               [24] 3188 	movx	@dptr,a
      00885C 75 82 47         [24] 3189 	mov	dpl,#0x47
      00885F 12 7D E7         [24] 3190 	lcall	_shortCommand1
      008862                       3191 00103$:
                                   3192 ;	board/zbs29_BW_ssd1619/screen.c:557: epdBusyWait(TIMER_TICKS_PER_MS * 100);
      008862 90 08 B4         [24] 3193 	mov	dptr,#0x08b4
      008865 75 F0 02         [24] 3194 	mov	b,#0x02
      008868 E4               [12] 3195 	clr	a
                                   3196 ;	board/zbs29_BW_ssd1619/screen.c:558: }
      008869 02 7C BA         [24] 3197 	ljmp	_epdBusyWait
                                   3198 ;------------------------------------------------------------
                                   3199 ;Allocation info for local variables in function 'drawLineVertical'
                                   3200 ;------------------------------------------------------------
                                   3201 ;sloc0                     Allocated with name '_drawLineVertical_sloc0_1_0'
                                   3202 ;x                         Allocated with name '_drawLineVertical_PARM_2'
                                   3203 ;y1                        Allocated with name '_drawLineVertical_PARM_3'
                                   3204 ;y2                        Allocated with name '_drawLineVertical_PARM_4'
                                   3205 ;color                     Allocated with name '_drawLineVertical_color_65536_245'
                                   3206 ;c                         Allocated with name '_drawLineVertical_c_65537_249'
                                   3207 ;------------------------------------------------------------
                                   3208 ;	board/zbs29_BW_ssd1619/screen.c:559: void drawLineVertical(bool color, uint16_t x, uint16_t y1, uint16_t y2) {
                                   3209 ;	-----------------------------------------
                                   3210 ;	 function drawLineVertical
                                   3211 ;	-----------------------------------------
      00886C                       3212 _drawLineVertical:
      00886C E5 82            [12] 3213 	mov	a,dpl
      00886E 90 E6 6C         [24] 3214 	mov	dptr,#_drawLineVertical_color_65536_245
      008871 F0               [24] 3215 	movx	@dptr,a
                                   3216 ;	board/zbs29_BW_ssd1619/screen.c:560: setWindowY(y1, y2);
      008872 90 E6 68         [24] 3217 	mov	dptr,#_drawLineVertical_PARM_3
      008875 E0               [24] 3218 	movx	a,@dptr
      008876 FE               [12] 3219 	mov	r6,a
      008877 A3               [24] 3220 	inc	dptr
      008878 E0               [24] 3221 	movx	a,@dptr
      008879 FF               [12] 3222 	mov	r7,a
      00887A 90 E6 6A         [24] 3223 	mov	dptr,#_drawLineVertical_PARM_4
      00887D E0               [24] 3224 	movx	a,@dptr
      00887E FC               [12] 3225 	mov	r4,a
      00887F A3               [24] 3226 	inc	dptr
      008880 E0               [24] 3227 	movx	a,@dptr
      008881 FD               [12] 3228 	mov	r5,a
      008882 90 E6 4F         [24] 3229 	mov	dptr,#_setWindowY_PARM_2
      008885 EC               [12] 3230 	mov	a,r4
      008886 F0               [24] 3231 	movx	@dptr,a
      008887 ED               [12] 3232 	mov	a,r5
      008888 A3               [24] 3233 	inc	dptr
      008889 F0               [24] 3234 	movx	@dptr,a
      00888A 8E 82            [24] 3235 	mov	dpl,r6
      00888C 8F 83            [24] 3236 	mov	dph,r7
      00888E C0 07            [24] 3237 	push	ar7
      008890 C0 06            [24] 3238 	push	ar6
      008892 C0 05            [24] 3239 	push	ar5
      008894 C0 04            [24] 3240 	push	ar4
      008896 12 86 04         [24] 3241 	lcall	_setWindowY
                                   3242 ;	board/zbs29_BW_ssd1619/screen.c:561: setWindowX(x, x + 8);
      008899 90 E6 66         [24] 3243 	mov	dptr,#_drawLineVertical_PARM_2
      00889C E0               [24] 3244 	movx	a,@dptr
      00889D FA               [12] 3245 	mov	r2,a
      00889E A3               [24] 3246 	inc	dptr
      00889F E0               [24] 3247 	movx	a,@dptr
      0088A0 FB               [12] 3248 	mov	r3,a
      0088A1 8A 28            [24] 3249 	mov	_drawLineVertical_sloc0_1_0,r2
      0088A3 8B 29            [24] 3250 	mov	(_drawLineVertical_sloc0_1_0 + 1),r3
      0088A5 74 08            [12] 3251 	mov	a,#0x08
      0088A7 25 28            [12] 3252 	add	a,_drawLineVertical_sloc0_1_0
      0088A9 F8               [12] 3253 	mov	r0,a
      0088AA E4               [12] 3254 	clr	a
      0088AB 35 29            [12] 3255 	addc	a,(_drawLineVertical_sloc0_1_0 + 1)
      0088AD F9               [12] 3256 	mov	r1,a
      0088AE 90 E6 4B         [24] 3257 	mov	dptr,#_setWindowX_PARM_2
      0088B1 E8               [12] 3258 	mov	a,r0
      0088B2 F0               [24] 3259 	movx	@dptr,a
      0088B3 E9               [12] 3260 	mov	a,r1
      0088B4 A3               [24] 3261 	inc	dptr
      0088B5 F0               [24] 3262 	movx	@dptr,a
      0088B6 8A 82            [24] 3263 	mov	dpl,r2
      0088B8 8B 83            [24] 3264 	mov	dph,r3
      0088BA C0 03            [24] 3265 	push	ar3
      0088BC C0 02            [24] 3266 	push	ar2
      0088BE 12 85 BE         [24] 3267 	lcall	_setWindowX
                                   3268 ;	board/zbs29_BW_ssd1619/screen.c:562: shortCommand1(CMD_DATA_ENTRY_MODE, 3);
      0088C1 90 E6 39         [24] 3269 	mov	dptr,#_shortCommand1_PARM_2
      0088C4 74 03            [12] 3270 	mov	a,#0x03
      0088C6 F0               [24] 3271 	movx	@dptr,a
      0088C7 75 82 11         [24] 3272 	mov	dpl,#0x11
      0088CA 12 7D E7         [24] 3273 	lcall	_shortCommand1
      0088CD D0 02            [24] 3274 	pop	ar2
      0088CF D0 03            [24] 3275 	pop	ar3
      0088D1 D0 04            [24] 3276 	pop	ar4
      0088D3 D0 05            [24] 3277 	pop	ar5
      0088D5 D0 06            [24] 3278 	pop	ar6
      0088D7 D0 07            [24] 3279 	pop	ar7
                                   3280 ;	board/zbs29_BW_ssd1619/screen.c:563: setPosXY(x, y1);
      0088D9 90 E6 53         [24] 3281 	mov	dptr,#_setPosXY_PARM_2
      0088DC EE               [12] 3282 	mov	a,r6
      0088DD F0               [24] 3283 	movx	@dptr,a
      0088DE EF               [12] 3284 	mov	a,r7
      0088DF A3               [24] 3285 	inc	dptr
      0088E0 F0               [24] 3286 	movx	@dptr,a
      0088E1 8A 82            [24] 3287 	mov	dpl,r2
      0088E3 8B 83            [24] 3288 	mov	dph,r3
      0088E5 C0 07            [24] 3289 	push	ar7
      0088E7 C0 06            [24] 3290 	push	ar6
      0088E9 C0 05            [24] 3291 	push	ar5
      0088EB C0 04            [24] 3292 	push	ar4
      0088ED 12 86 4A         [24] 3293 	lcall	_setPosXY
      0088F0 D0 04            [24] 3294 	pop	ar4
      0088F2 D0 05            [24] 3295 	pop	ar5
      0088F4 D0 06            [24] 3296 	pop	ar6
      0088F6 D0 07            [24] 3297 	pop	ar7
                                   3298 ;	board/zbs29_BW_ssd1619/screen.c:564: if (color) {
      0088F8 90 E6 6C         [24] 3299 	mov	dptr,#_drawLineVertical_color_65536_245
      0088FB E0               [24] 3300 	movx	a,@dptr
      0088FC 60 18            [24] 3301 	jz	00102$
                                   3302 ;	board/zbs29_BW_ssd1619/screen.c:565: commandBegin(CMD_WRITE_FB_RED);
      0088FE 75 82 26         [24] 3303 	mov	dpl,#0x26
      008901 C0 07            [24] 3304 	push	ar7
      008903 C0 06            [24] 3305 	push	ar6
      008905 C0 05            [24] 3306 	push	ar5
      008907 C0 04            [24] 3307 	push	ar4
      008909 12 7E 32         [24] 3308 	lcall	_commandBegin
      00890C D0 04            [24] 3309 	pop	ar4
      00890E D0 05            [24] 3310 	pop	ar5
      008910 D0 06            [24] 3311 	pop	ar6
      008912 D0 07            [24] 3312 	pop	ar7
      008914 80 16            [24] 3313 	sjmp	00103$
      008916                       3314 00102$:
                                   3315 ;	board/zbs29_BW_ssd1619/screen.c:567: commandBegin(CMD_WRITE_FB_BW);
      008916 75 82 24         [24] 3316 	mov	dpl,#0x24
      008919 C0 07            [24] 3317 	push	ar7
      00891B C0 06            [24] 3318 	push	ar6
      00891D C0 05            [24] 3319 	push	ar5
      00891F C0 04            [24] 3320 	push	ar4
      008921 12 7E 32         [24] 3321 	lcall	_commandBegin
      008924 D0 04            [24] 3322 	pop	ar4
      008926 D0 05            [24] 3323 	pop	ar5
      008928 D0 06            [24] 3324 	pop	ar6
      00892A D0 07            [24] 3325 	pop	ar7
      00892C                       3326 00103$:
                                   3327 ;	board/zbs29_BW_ssd1619/screen.c:570: c >>= (x % 8);
      00892C 74 07            [12] 3328 	mov	a,#0x07
      00892E 55 28            [12] 3329 	anl	a,_drawLineVertical_sloc0_1_0
      008930 FA               [12] 3330 	mov	r2,a
      008931 8A F0            [24] 3331 	mov	b,r2
      008933 05 F0            [12] 3332 	inc	b
      008935 74 80            [12] 3333 	mov	a,#0x80
      008937 80 02            [24] 3334 	sjmp	00128$
      008939                       3335 00127$:
      008939 C3               [12] 3336 	clr	c
      00893A 13               [12] 3337 	rrc	a
      00893B                       3338 00128$:
      00893B D5 F0 FB         [24] 3339 	djnz	b,00127$
      00893E FB               [12] 3340 	mov	r3,a
      00893F                       3341 00109$:
                                   3342 ;	board/zbs29_BW_ssd1619/screen.c:571: for (; y1 < y2; y1++) {
      00893F C3               [12] 3343 	clr	c
      008940 EE               [12] 3344 	mov	a,r6
      008941 9C               [12] 3345 	subb	a,r4
      008942 EF               [12] 3346 	mov	a,r7
      008943 9D               [12] 3347 	subb	a,r5
      008944 50 0C            [24] 3348 	jnc	00105$
                                   3349 ;	board/zbs29_BW_ssd1619/screen.c:572: epdSend(c);
      008946 8B 82            [24] 3350 	mov	dpl,r3
      008948 12 5C C3         [24] 3351 	lcall	_spiTXByte
                                   3352 ;	board/zbs29_BW_ssd1619/screen.c:571: for (; y1 < y2; y1++) {
      00894B 0E               [12] 3353 	inc	r6
                                   3354 ;	board/zbs29_BW_ssd1619/screen.c:574: commandEnd();
      00894C BE 00 F0         [24] 3355 	cjne	r6,#0x00,00109$
      00894F 0F               [12] 3356 	inc	r7
      008950 80 ED            [24] 3357 	sjmp	00109$
      008952                       3358 00105$:
                                   3359 ;	assignBit
      008952 D2 97            [12] 3360 	setb	_P1_7
                                   3361 ;	board/zbs29_BW_ssd1619/screen.c:575: }
      008954 22               [24] 3362 	ret
                                   3363 ;------------------------------------------------------------
                                   3364 ;Allocation info for local variables in function 'beginFullscreenImage'
                                   3365 ;------------------------------------------------------------
                                   3366 ;	board/zbs29_BW_ssd1619/screen.c:576: void beginFullscreenImage() {
                                   3367 ;	-----------------------------------------
                                   3368 ;	 function beginFullscreenImage
                                   3369 ;	-----------------------------------------
      008955                       3370 _beginFullscreenImage:
                                   3371 ;	board/zbs29_BW_ssd1619/screen.c:577: setColorMode(EPD_MODE_NORMAL, EPD_MODE_INVERT);
      008955 90 E6 57         [24] 3372 	mov	dptr,#_setColorMode_PARM_2
      008958 74 08            [12] 3373 	mov	a,#0x08
      00895A F0               [24] 3374 	movx	@dptr,a
      00895B 75 82 00         [24] 3375 	mov	dpl,#0x00
      00895E 12 86 94         [24] 3376 	lcall	_setColorMode
                                   3377 ;	board/zbs29_BW_ssd1619/screen.c:578: setWindowX(0, SCREEN_WIDTH);
      008961 90 E6 4B         [24] 3378 	mov	dptr,#_setWindowX_PARM_2
      008964 74 80            [12] 3379 	mov	a,#0x80
      008966 F0               [24] 3380 	movx	@dptr,a
      008967 E4               [12] 3381 	clr	a
      008968 A3               [24] 3382 	inc	dptr
      008969 F0               [24] 3383 	movx	@dptr,a
      00896A 90 00 00         [24] 3384 	mov	dptr,#0x0000
      00896D 12 85 BE         [24] 3385 	lcall	_setWindowX
                                   3386 ;	board/zbs29_BW_ssd1619/screen.c:579: setWindowY(0, SCREEN_HEIGHT);
      008970 90 E6 4F         [24] 3387 	mov	dptr,#_setWindowY_PARM_2
      008973 74 28            [12] 3388 	mov	a,#0x28
      008975 F0               [24] 3389 	movx	@dptr,a
      008976 74 01            [12] 3390 	mov	a,#0x01
      008978 A3               [24] 3391 	inc	dptr
      008979 F0               [24] 3392 	movx	@dptr,a
      00897A 90 00 00         [24] 3393 	mov	dptr,#0x0000
      00897D 12 86 04         [24] 3394 	lcall	_setWindowY
                                   3395 ;	board/zbs29_BW_ssd1619/screen.c:580: shortCommand1(CMD_DATA_ENTRY_MODE, 3);
      008980 90 E6 39         [24] 3396 	mov	dptr,#_shortCommand1_PARM_2
      008983 74 03            [12] 3397 	mov	a,#0x03
      008985 F0               [24] 3398 	movx	@dptr,a
      008986 75 82 11         [24] 3399 	mov	dpl,#0x11
      008989 12 7D E7         [24] 3400 	lcall	_shortCommand1
                                   3401 ;	board/zbs29_BW_ssd1619/screen.c:581: setPosXY(0, 0);
      00898C 90 E6 53         [24] 3402 	mov	dptr,#_setPosXY_PARM_2
      00898F E4               [12] 3403 	clr	a
      008990 F0               [24] 3404 	movx	@dptr,a
      008991 A3               [24] 3405 	inc	dptr
      008992 F0               [24] 3406 	movx	@dptr,a
      008993 90 00 00         [24] 3407 	mov	dptr,#0x0000
                                   3408 ;	board/zbs29_BW_ssd1619/screen.c:582: }
      008996 02 86 4A         [24] 3409 	ljmp	_setPosXY
                                   3410 ;------------------------------------------------------------
                                   3411 ;Allocation info for local variables in function 'beginWriteFramebuffer'
                                   3412 ;------------------------------------------------------------
                                   3413 ;color                     Allocated with name '_beginWriteFramebuffer_color_65536_254'
                                   3414 ;------------------------------------------------------------
                                   3415 ;	board/zbs29_BW_ssd1619/screen.c:583: void beginWriteFramebuffer(bool color) {
                                   3416 ;	-----------------------------------------
                                   3417 ;	 function beginWriteFramebuffer
                                   3418 ;	-----------------------------------------
      008999                       3419 _beginWriteFramebuffer:
      008999 E5 82            [12] 3420 	mov	a,dpl
      00899B 90 E6 6D         [24] 3421 	mov	dptr,#_beginWriteFramebuffer_color_65536_254
                                   3422 ;	board/zbs29_BW_ssd1619/screen.c:584: if (color == EPD_COLOR_RED) {
      00899E F0               [24] 3423 	movx	@dptr,a ; Peephole dmitrygr.0005 - SRSLY, WTF?
      00899F 60 08            [24] 3424 	jz	00102$
                                   3425 ;	board/zbs29_BW_ssd1619/screen.c:585: commandBegin(CMD_WRITE_FB_RED);
      0089A1 75 82 26         [24] 3426 	mov	dpl,#0x26
      0089A4 12 7E 32         [24] 3427 	lcall	_commandBegin
      0089A7 80 06            [24] 3428 	sjmp	00104$
      0089A9                       3429 00102$:
                                   3430 ;	board/zbs29_BW_ssd1619/screen.c:587: commandBegin(CMD_WRITE_FB_BW);
      0089A9 75 82 24         [24] 3431 	mov	dpl,#0x24
      0089AC 12 7E 32         [24] 3432 	lcall	_commandBegin
                                   3433 ;	board/zbs29_BW_ssd1619/screen.c:589: epdDeselect();
      0089AF                       3434 00104$:
                                   3435 ;	assignBit
      0089AF D2 97            [12] 3436 	setb	_P1_7
                                   3437 ;	board/zbs29_BW_ssd1619/screen.c:590: }
      0089B1 22               [24] 3438 	ret
                                   3439 ;------------------------------------------------------------
                                   3440 ;Allocation info for local variables in function 'endWriteFramebuffer'
                                   3441 ;------------------------------------------------------------
                                   3442 ;	board/zbs29_BW_ssd1619/screen.c:591: void endWriteFramebuffer() {
                                   3443 ;	-----------------------------------------
                                   3444 ;	 function endWriteFramebuffer
                                   3445 ;	-----------------------------------------
      0089B2                       3446 _endWriteFramebuffer:
                                   3447 ;	board/zbs29_BW_ssd1619/screen.c:592: commandEnd();
                                   3448 ;	assignBit
      0089B2 D2 97            [12] 3449 	setb	_P1_7
                                   3450 ;	board/zbs29_BW_ssd1619/screen.c:593: }
      0089B4 22               [24] 3451 	ret
                                   3452 ;------------------------------------------------------------
                                   3453 ;Allocation info for local variables in function 'loadRawBitmap'
                                   3454 ;------------------------------------------------------------
                                   3455 ;sloc0                     Allocated with name '_loadRawBitmap_sloc0_1_0'
                                   3456 ;x                         Allocated with name '_loadRawBitmap_PARM_2'
                                   3457 ;y                         Allocated with name '_loadRawBitmap_PARM_3'
                                   3458 ;color                     Allocated with name '_loadRawBitmap_PARM_4'
                                   3459 ;bmp                       Allocated with name '_loadRawBitmap_bmp_65536_261'
                                   3460 ;xsize                     Allocated with name '_loadRawBitmap_xsize_65536_262'
                                   3461 ;size                      Allocated with name '_loadRawBitmap_size_65537_263'
                                   3462 ;------------------------------------------------------------
                                   3463 ;	board/zbs29_BW_ssd1619/screen.c:594: void loadRawBitmap(uint8_t* bmp, uint16_t x, uint16_t y, bool color) {
                                   3464 ;	-----------------------------------------
                                   3465 ;	 function loadRawBitmap
                                   3466 ;	-----------------------------------------
      0089B5                       3467 _loadRawBitmap:
      0089B5 AF F0            [24] 3468 	mov	r7,b
      0089B7 AE 83            [24] 3469 	mov	r6,dph
      0089B9 E5 82            [12] 3470 	mov	a,dpl
      0089BB 90 E6 73         [24] 3471 	mov	dptr,#_loadRawBitmap_bmp_65536_261
      0089BE F0               [24] 3472 	movx	@dptr,a
      0089BF EE               [12] 3473 	mov	a,r6
      0089C0 A3               [24] 3474 	inc	dptr
      0089C1 F0               [24] 3475 	movx	@dptr,a
      0089C2 EF               [12] 3476 	mov	a,r7
      0089C3 A3               [24] 3477 	inc	dptr
      0089C4 F0               [24] 3478 	movx	@dptr,a
                                   3479 ;	board/zbs29_BW_ssd1619/screen.c:595: uint16_t xsize = bmp[0] / 8;
      0089C5 90 E6 73         [24] 3480 	mov	dptr,#_loadRawBitmap_bmp_65536_261
      0089C8 E0               [24] 3481 	movx	a,@dptr
      0089C9 FD               [12] 3482 	mov	r5,a
      0089CA A3               [24] 3483 	inc	dptr
      0089CB E0               [24] 3484 	movx	a,@dptr
      0089CC FE               [12] 3485 	mov	r6,a
      0089CD A3               [24] 3486 	inc	dptr
      0089CE E0               [24] 3487 	movx	a,@dptr
      0089CF FF               [12] 3488 	mov	r7,a
      0089D0 8D 82            [24] 3489 	mov	dpl,r5
      0089D2 8E 83            [24] 3490 	mov	dph,r6
      0089D4 8F F0            [24] 3491 	mov	b,r7
      0089D6 12 AE F7         [24] 3492 	lcall	__gptrget
      0089D9 FD               [12] 3493 	mov	r5,a
      0089DA 7F 00            [12] 3494 	mov	r7,#0x00
      0089DC 90 E7 58         [24] 3495 	mov	dptr,#__divsint_PARM_2
      0089DF 74 08            [12] 3496 	mov	a,#0x08
      0089E1 F0               [24] 3497 	movx	@dptr,a
      0089E2 E4               [12] 3498 	clr	a
      0089E3 A3               [24] 3499 	inc	dptr
      0089E4 F0               [24] 3500 	movx	@dptr,a
      0089E5 8D 82            [24] 3501 	mov	dpl,r5
      0089E7 8F 83            [24] 3502 	mov	dph,r7
      0089E9 C0 07            [24] 3503 	push	ar7
      0089EB C0 05            [24] 3504 	push	ar5
      0089ED 12 AE 6D         [24] 3505 	lcall	__divsint
      0089F0 AC 82            [24] 3506 	mov	r4,dpl
      0089F2 AE 83            [24] 3507 	mov	r6,dph
      0089F4 D0 05            [24] 3508 	pop	ar5
      0089F6 D0 07            [24] 3509 	pop	ar7
      0089F8 90 E6 76         [24] 3510 	mov	dptr,#_loadRawBitmap_xsize_65536_262
      0089FB EC               [12] 3511 	mov	a,r4
      0089FC F0               [24] 3512 	movx	@dptr,a
      0089FD EE               [12] 3513 	mov	a,r6
      0089FE A3               [24] 3514 	inc	dptr
      0089FF F0               [24] 3515 	movx	@dptr,a
                                   3516 ;	board/zbs29_BW_ssd1619/screen.c:596: if (bmp[0] % 8) xsize++;
      008A00 ED               [12] 3517 	mov	a,r5
      008A01 54 07            [12] 3518 	anl	a,#0x07
      008A03 60 0B            [24] 3519 	jz	00102$
      008A05 90 E6 76         [24] 3520 	mov	dptr,#_loadRawBitmap_xsize_65536_262
      008A08 74 01            [12] 3521 	mov	a,#0x01
      008A0A 2C               [12] 3522 	add	a,r4
      008A0B F0               [24] 3523 	movx	@dptr,a
      008A0C E4               [12] 3524 	clr	a
      008A0D 3E               [12] 3525 	addc	a,r6
      008A0E A3               [24] 3526 	inc	dptr
      008A0F F0               [24] 3527 	movx	@dptr,a
      008A10                       3528 00102$:
                                   3529 ;	board/zbs29_BW_ssd1619/screen.c:597: uint16_t size = xsize * bmp[1];
      008A10 90 E6 73         [24] 3530 	mov	dptr,#_loadRawBitmap_bmp_65536_261
      008A13 E0               [24] 3531 	movx	a,@dptr
      008A14 FD               [12] 3532 	mov	r5,a
      008A15 A3               [24] 3533 	inc	dptr
      008A16 E0               [24] 3534 	movx	a,@dptr
      008A17 FE               [12] 3535 	mov	r6,a
      008A18 A3               [24] 3536 	inc	dptr
      008A19 E0               [24] 3537 	movx	a,@dptr
      008A1A FF               [12] 3538 	mov	r7,a
      008A1B 0D               [12] 3539 	inc	r5
      008A1C BD 00 01         [24] 3540 	cjne	r5,#0x00,00132$
      008A1F 0E               [12] 3541 	inc	r6
      008A20                       3542 00132$:
      008A20 8D 82            [24] 3543 	mov	dpl,r5
      008A22 8E 83            [24] 3544 	mov	dph,r6
      008A24 8F F0            [24] 3545 	mov	b,r7
      008A26 12 AE F7         [24] 3546 	lcall	__gptrget
      008A29 FC               [12] 3547 	mov	r4,a
      008A2A 90 E6 76         [24] 3548 	mov	dptr,#_loadRawBitmap_xsize_65536_262
      008A2D E0               [24] 3549 	movx	a,@dptr
      008A2E FA               [12] 3550 	mov	r2,a
      008A2F A3               [24] 3551 	inc	dptr
      008A30 E0               [24] 3552 	movx	a,@dptr
      008A31 FB               [12] 3553 	mov	r3,a
      008A32 90 E7 3D         [24] 3554 	mov	dptr,#__mulint_PARM_2
      008A35 EC               [12] 3555 	mov	a,r4
      008A36 F0               [24] 3556 	movx	@dptr,a
      008A37 E4               [12] 3557 	clr	a
      008A38 A3               [24] 3558 	inc	dptr
      008A39 F0               [24] 3559 	movx	@dptr,a
      008A3A 8A 82            [24] 3560 	mov	dpl,r2
      008A3C 8B 83            [24] 3561 	mov	dph,r3
      008A3E C0 07            [24] 3562 	push	ar7
      008A40 C0 06            [24] 3563 	push	ar6
      008A42 C0 05            [24] 3564 	push	ar5
      008A44 C0 03            [24] 3565 	push	ar3
      008A46 C0 02            [24] 3566 	push	ar2
      008A48 12 AA B1         [24] 3567 	lcall	__mulint
      008A4B E5 82            [12] 3568 	mov	a,dpl
      008A4D 85 83 F0         [24] 3569 	mov	b,dph
      008A50 D0 02            [24] 3570 	pop	ar2
      008A52 D0 03            [24] 3571 	pop	ar3
      008A54 90 E6 78         [24] 3572 	mov	dptr,#_loadRawBitmap_size_65537_263
      008A57 F0               [24] 3573 	movx	@dptr,a
      008A58 E5 F0            [12] 3574 	mov	a,b
      008A5A A3               [24] 3575 	inc	dptr
      008A5B F0               [24] 3576 	movx	@dptr,a
                                   3577 ;	board/zbs29_BW_ssd1619/screen.c:598: setWindowX(x, x + (xsize * 8));
      008A5C 90 E6 6E         [24] 3578 	mov	dptr,#_loadRawBitmap_PARM_2
      008A5F E0               [24] 3579 	movx	a,@dptr
      008A60 F9               [12] 3580 	mov	r1,a
      008A61 A3               [24] 3581 	inc	dptr
      008A62 E0               [24] 3582 	movx	a,@dptr
      008A63 FC               [12] 3583 	mov	r4,a
      008A64 8A 2A            [24] 3584 	mov	_loadRawBitmap_sloc0_1_0,r2
      008A66 EB               [12] 3585 	mov	a,r3
      008A67 C4               [12] 3586 	swap	a
      008A68 03               [12] 3587 	rr	a
      008A69 54 F8            [12] 3588 	anl	a,#0xf8
      008A6B C5 2A            [12] 3589 	xch	a,_loadRawBitmap_sloc0_1_0
      008A6D C4               [12] 3590 	swap	a
      008A6E 03               [12] 3591 	rr	a
      008A6F C5 2A            [12] 3592 	xch	a,_loadRawBitmap_sloc0_1_0
      008A71 65 2A            [12] 3593 	xrl	a,_loadRawBitmap_sloc0_1_0
      008A73 C5 2A            [12] 3594 	xch	a,_loadRawBitmap_sloc0_1_0
      008A75 54 F8            [12] 3595 	anl	a,#0xf8
      008A77 C5 2A            [12] 3596 	xch	a,_loadRawBitmap_sloc0_1_0
      008A79 65 2A            [12] 3597 	xrl	a,_loadRawBitmap_sloc0_1_0
      008A7B F5 2B            [12] 3598 	mov	(_loadRawBitmap_sloc0_1_0 + 1),a
      008A7D 89 00            [24] 3599 	mov	ar0,r1
      008A7F 8C 03            [24] 3600 	mov	ar3,r4
      008A81 E5 2A            [12] 3601 	mov	a,_loadRawBitmap_sloc0_1_0
      008A83 28               [12] 3602 	add	a,r0
      008A84 F8               [12] 3603 	mov	r0,a
      008A85 E5 2B            [12] 3604 	mov	a,(_loadRawBitmap_sloc0_1_0 + 1)
      008A87 3B               [12] 3605 	addc	a,r3
      008A88 FB               [12] 3606 	mov	r3,a
      008A89 90 E6 4B         [24] 3607 	mov	dptr,#_setWindowX_PARM_2
      008A8C E8               [12] 3608 	mov	a,r0
      008A8D F0               [24] 3609 	movx	@dptr,a
      008A8E EB               [12] 3610 	mov	a,r3
      008A8F A3               [24] 3611 	inc	dptr
      008A90 F0               [24] 3612 	movx	@dptr,a
      008A91 89 82            [24] 3613 	mov	dpl,r1
      008A93 8C 83            [24] 3614 	mov	dph,r4
      008A95 C0 04            [24] 3615 	push	ar4
      008A97 C0 01            [24] 3616 	push	ar1
      008A99 12 85 BE         [24] 3617 	lcall	_setWindowX
      008A9C D0 01            [24] 3618 	pop	ar1
      008A9E D0 04            [24] 3619 	pop	ar4
      008AA0 D0 05            [24] 3620 	pop	ar5
      008AA2 D0 06            [24] 3621 	pop	ar6
      008AA4 D0 07            [24] 3622 	pop	ar7
                                   3623 ;	board/zbs29_BW_ssd1619/screen.c:599: setWindowY(y, bmp[1] + y);
      008AA6 90 E6 70         [24] 3624 	mov	dptr,#_loadRawBitmap_PARM_3
      008AA9 E0               [24] 3625 	movx	a,@dptr
      008AAA FA               [12] 3626 	mov	r2,a
      008AAB A3               [24] 3627 	inc	dptr
      008AAC E0               [24] 3628 	movx	a,@dptr
      008AAD FB               [12] 3629 	mov	r3,a
      008AAE 8D 82            [24] 3630 	mov	dpl,r5
      008AB0 8E 83            [24] 3631 	mov	dph,r6
      008AB2 8F F0            [24] 3632 	mov	b,r7
      008AB4 12 AE F7         [24] 3633 	lcall	__gptrget
      008AB7 FD               [12] 3634 	mov	r5,a
      008AB8 7F 00            [12] 3635 	mov	r7,#0x00
      008ABA 90 E6 4F         [24] 3636 	mov	dptr,#_setWindowY_PARM_2
      008ABD EA               [12] 3637 	mov	a,r2
      008ABE 2D               [12] 3638 	add	a,r5
      008ABF F0               [24] 3639 	movx	@dptr,a
      008AC0 EB               [12] 3640 	mov	a,r3
      008AC1 3F               [12] 3641 	addc	a,r7
      008AC2 A3               [24] 3642 	inc	dptr
      008AC3 F0               [24] 3643 	movx	@dptr,a
      008AC4 8A 82            [24] 3644 	mov	dpl,r2
      008AC6 8B 83            [24] 3645 	mov	dph,r3
      008AC8 C0 04            [24] 3646 	push	ar4
      008ACA C0 03            [24] 3647 	push	ar3
      008ACC C0 02            [24] 3648 	push	ar2
      008ACE C0 01            [24] 3649 	push	ar1
      008AD0 12 86 04         [24] 3650 	lcall	_setWindowY
      008AD3 D0 01            [24] 3651 	pop	ar1
      008AD5 D0 02            [24] 3652 	pop	ar2
      008AD7 D0 03            [24] 3653 	pop	ar3
      008AD9 D0 04            [24] 3654 	pop	ar4
                                   3655 ;	board/zbs29_BW_ssd1619/screen.c:600: setPosXY(x, y);
      008ADB 90 E6 53         [24] 3656 	mov	dptr,#_setPosXY_PARM_2
      008ADE EA               [12] 3657 	mov	a,r2
      008ADF F0               [24] 3658 	movx	@dptr,a
      008AE0 EB               [12] 3659 	mov	a,r3
      008AE1 A3               [24] 3660 	inc	dptr
      008AE2 F0               [24] 3661 	movx	@dptr,a
      008AE3 89 82            [24] 3662 	mov	dpl,r1
      008AE5 8C 83            [24] 3663 	mov	dph,r4
      008AE7 12 86 4A         [24] 3664 	lcall	_setPosXY
                                   3665 ;	board/zbs29_BW_ssd1619/screen.c:601: shortCommand1(CMD_DATA_ENTRY_MODE, 3);
      008AEA 90 E6 39         [24] 3666 	mov	dptr,#_shortCommand1_PARM_2
      008AED 74 03            [12] 3667 	mov	a,#0x03
      008AEF F0               [24] 3668 	movx	@dptr,a
      008AF0 75 82 11         [24] 3669 	mov	dpl,#0x11
      008AF3 12 7D E7         [24] 3670 	lcall	_shortCommand1
                                   3671 ;	board/zbs29_BW_ssd1619/screen.c:602: if (color) {
      008AF6 90 E6 72         [24] 3672 	mov	dptr,#_loadRawBitmap_PARM_4
      008AF9 E0               [24] 3673 	movx	a,@dptr
      008AFA 60 08            [24] 3674 	jz	00104$
                                   3675 ;	board/zbs29_BW_ssd1619/screen.c:603: commandBegin(CMD_WRITE_FB_RED);
      008AFC 75 82 26         [24] 3676 	mov	dpl,#0x26
      008AFF 12 7E 32         [24] 3677 	lcall	_commandBegin
      008B02 80 06            [24] 3678 	sjmp	00105$
      008B04                       3679 00104$:
                                   3680 ;	board/zbs29_BW_ssd1619/screen.c:605: commandBegin(CMD_WRITE_FB_BW);
      008B04 75 82 24         [24] 3681 	mov	dpl,#0x24
      008B07 12 7E 32         [24] 3682 	lcall	_commandBegin
      008B0A                       3683 00105$:
                                   3684 ;	board/zbs29_BW_ssd1619/screen.c:607: bmp += 2;
      008B0A 90 E6 73         [24] 3685 	mov	dptr,#_loadRawBitmap_bmp_65536_261
      008B0D E0               [24] 3686 	movx	a,@dptr
      008B0E FD               [12] 3687 	mov	r5,a
      008B0F A3               [24] 3688 	inc	dptr
      008B10 E0               [24] 3689 	movx	a,@dptr
      008B11 FE               [12] 3690 	mov	r6,a
      008B12 A3               [24] 3691 	inc	dptr
      008B13 E0               [24] 3692 	movx	a,@dptr
      008B14 FF               [12] 3693 	mov	r7,a
      008B15 90 E6 73         [24] 3694 	mov	dptr,#_loadRawBitmap_bmp_65536_261
      008B18 74 02            [12] 3695 	mov	a,#0x02
      008B1A 2D               [12] 3696 	add	a,r5
      008B1B F0               [24] 3697 	movx	@dptr,a
      008B1C E4               [12] 3698 	clr	a
      008B1D 3E               [12] 3699 	addc	a,r6
      008B1E A3               [24] 3700 	inc	dptr
      008B1F F0               [24] 3701 	movx	@dptr,a
      008B20 EF               [12] 3702 	mov	a,r7
      008B21 A3               [24] 3703 	inc	dptr
      008B22 F0               [24] 3704 	movx	@dptr,a
                                   3705 ;	board/zbs29_BW_ssd1619/screen.c:608: while (size--) {
      008B23 90 E6 73         [24] 3706 	mov	dptr,#_loadRawBitmap_bmp_65536_261
      008B26 E0               [24] 3707 	movx	a,@dptr
      008B27 FD               [12] 3708 	mov	r5,a
      008B28 A3               [24] 3709 	inc	dptr
      008B29 E0               [24] 3710 	movx	a,@dptr
      008B2A FE               [12] 3711 	mov	r6,a
      008B2B A3               [24] 3712 	inc	dptr
      008B2C E0               [24] 3713 	movx	a,@dptr
      008B2D FF               [12] 3714 	mov	r7,a
      008B2E 90 E6 78         [24] 3715 	mov	dptr,#_loadRawBitmap_size_65537_263
      008B31 E0               [24] 3716 	movx	a,@dptr
      008B32 FB               [12] 3717 	mov	r3,a
      008B33 A3               [24] 3718 	inc	dptr
      008B34 E0               [24] 3719 	movx	a,@dptr
      008B35 FC               [12] 3720 	mov	r4,a
      008B36                       3721 00106$:
      008B36 8B 01            [24] 3722 	mov	ar1,r3
      008B38 8C 02            [24] 3723 	mov	ar2,r4
      008B3A 1B               [12] 3724 	dec	r3
      008B3B BB FF 01         [24] 3725 	cjne	r3,#0xff,00134$
      008B3E 1C               [12] 3726 	dec	r4
      008B3F                       3727 00134$:
      008B3F E9               [12] 3728 	mov	a,r1
      008B40 4A               [12] 3729 	orl	a,r2
      008B41 60 21            [24] 3730 	jz	00118$
                                   3731 ;	board/zbs29_BW_ssd1619/screen.c:609: epdSend(*(bmp++));
      008B43 8D 82            [24] 3732 	mov	dpl,r5
      008B45 8E 83            [24] 3733 	mov	dph,r6
      008B47 8F F0            [24] 3734 	mov	b,r7
      008B49 12 AE F7         [24] 3735 	lcall	__gptrget
      008B4C FA               [12] 3736 	mov	r2,a
      008B4D A3               [24] 3737 	inc	dptr
      008B4E AD 82            [24] 3738 	mov	r5,dpl
      008B50 AE 83            [24] 3739 	mov	r6,dph
      008B52 90 E6 73         [24] 3740 	mov	dptr,#_loadRawBitmap_bmp_65536_261
      008B55 ED               [12] 3741 	mov	a,r5
      008B56 F0               [24] 3742 	movx	@dptr,a
      008B57 EE               [12] 3743 	mov	a,r6
      008B58 A3               [24] 3744 	inc	dptr
      008B59 F0               [24] 3745 	movx	@dptr,a
      008B5A EF               [12] 3746 	mov	a,r7
      008B5B A3               [24] 3747 	inc	dptr
      008B5C F0               [24] 3748 	movx	@dptr,a
      008B5D 8A 82            [24] 3749 	mov	dpl,r2
      008B5F 12 5C C3         [24] 3750 	lcall	_spiTXByte
                                   3751 ;	board/zbs29_BW_ssd1619/screen.c:611: commandEnd();
      008B62 80 D2            [24] 3752 	sjmp	00106$
      008B64                       3753 00118$:
      008B64 90 E6 73         [24] 3754 	mov	dptr,#_loadRawBitmap_bmp_65536_261
      008B67 ED               [12] 3755 	mov	a,r5
      008B68 F0               [24] 3756 	movx	@dptr,a
      008B69 EE               [12] 3757 	mov	a,r6
      008B6A A3               [24] 3758 	inc	dptr
      008B6B F0               [24] 3759 	movx	@dptr,a
      008B6C EF               [12] 3760 	mov	a,r7
      008B6D A3               [24] 3761 	inc	dptr
      008B6E F0               [24] 3762 	movx	@dptr,a
                                   3763 ;	assignBit
      008B6F D2 97            [12] 3764 	setb	_P1_7
                                   3765 ;	board/zbs29_BW_ssd1619/screen.c:612: }
      008B71 22               [24] 3766 	ret
                                   3767 ;------------------------------------------------------------
                                   3768 ;Allocation info for local variables in function 'printBarcode'
                                   3769 ;------------------------------------------------------------
                                   3770 ;x                         Allocated with name '_printBarcode_PARM_2'
                                   3771 ;y                         Allocated with name '_printBarcode_PARM_3'
                                   3772 ;string                    Allocated with name '_printBarcode_string_65536_268'
                                   3773 ;bci                       Allocated with name '_printBarcode_bci_65537_270'
                                   3774 ;------------------------------------------------------------
                                   3775 ;	board/zbs29_BW_ssd1619/screen.c:613: void printBarcode(const uint8_t* string, uint16_t x, uint16_t y) {
                                   3776 ;	-----------------------------------------
                                   3777 ;	 function printBarcode
                                   3778 ;	-----------------------------------------
      008B72                       3779 _printBarcode:
      008B72 AF F0            [24] 3780 	mov	r7,b
      008B74 AE 83            [24] 3781 	mov	r6,dph
      008B76 E5 82            [12] 3782 	mov	a,dpl
      008B78 90 E6 7E         [24] 3783 	mov	dptr,#_printBarcode_string_65536_268
      008B7B F0               [24] 3784 	movx	@dptr,a
      008B7C EE               [12] 3785 	mov	a,r6
      008B7D A3               [24] 3786 	inc	dptr
      008B7E F0               [24] 3787 	movx	@dptr,a
      008B7F EF               [12] 3788 	mov	a,r7
      008B80 A3               [24] 3789 	inc	dptr
      008B81 F0               [24] 3790 	movx	@dptr,a
                                   3791 ;	board/zbs29_BW_ssd1619/screen.c:614: setWindowY(y, 1);
      008B82 90 E6 7C         [24] 3792 	mov	dptr,#_printBarcode_PARM_3
      008B85 E0               [24] 3793 	movx	a,@dptr
      008B86 FE               [12] 3794 	mov	r6,a
      008B87 A3               [24] 3795 	inc	dptr
      008B88 E0               [24] 3796 	movx	a,@dptr
      008B89 FF               [12] 3797 	mov	r7,a
      008B8A 90 E6 4F         [24] 3798 	mov	dptr,#_setWindowY_PARM_2
      008B8D 74 01            [12] 3799 	mov	a,#0x01
      008B8F F0               [24] 3800 	movx	@dptr,a
      008B90 E4               [12] 3801 	clr	a
      008B91 A3               [24] 3802 	inc	dptr
      008B92 F0               [24] 3803 	movx	@dptr,a
      008B93 8E 82            [24] 3804 	mov	dpl,r6
      008B95 8F 83            [24] 3805 	mov	dph,r7
      008B97 C0 07            [24] 3806 	push	ar7
      008B99 C0 06            [24] 3807 	push	ar6
      008B9B 12 86 04         [24] 3808 	lcall	_setWindowY
                                   3809 ;	board/zbs29_BW_ssd1619/screen.c:615: setWindowX(x, x + 8);
      008B9E 90 E6 7A         [24] 3810 	mov	dptr,#_printBarcode_PARM_2
      008BA1 E0               [24] 3811 	movx	a,@dptr
      008BA2 FC               [12] 3812 	mov	r4,a
      008BA3 A3               [24] 3813 	inc	dptr
      008BA4 E0               [24] 3814 	movx	a,@dptr
      008BA5 FD               [12] 3815 	mov	r5,a
      008BA6 8C 02            [24] 3816 	mov	ar2,r4
      008BA8 8D 03            [24] 3817 	mov	ar3,r5
      008BAA 74 08            [12] 3818 	mov	a,#0x08
      008BAC 2A               [12] 3819 	add	a,r2
      008BAD FA               [12] 3820 	mov	r2,a
      008BAE E4               [12] 3821 	clr	a
      008BAF 3B               [12] 3822 	addc	a,r3
      008BB0 FB               [12] 3823 	mov	r3,a
      008BB1 90 E6 4B         [24] 3824 	mov	dptr,#_setWindowX_PARM_2
      008BB4 EA               [12] 3825 	mov	a,r2
      008BB5 F0               [24] 3826 	movx	@dptr,a
      008BB6 EB               [12] 3827 	mov	a,r3
      008BB7 A3               [24] 3828 	inc	dptr
      008BB8 F0               [24] 3829 	movx	@dptr,a
      008BB9 8C 82            [24] 3830 	mov	dpl,r4
      008BBB 8D 83            [24] 3831 	mov	dph,r5
      008BBD C0 05            [24] 3832 	push	ar5
      008BBF C0 04            [24] 3833 	push	ar4
      008BC1 12 85 BE         [24] 3834 	lcall	_setWindowX
      008BC4 D0 04            [24] 3835 	pop	ar4
      008BC6 D0 05            [24] 3836 	pop	ar5
      008BC8 D0 06            [24] 3837 	pop	ar6
      008BCA D0 07            [24] 3838 	pop	ar7
                                   3839 ;	board/zbs29_BW_ssd1619/screen.c:616: setPosXY(x, y);
      008BCC 90 E6 53         [24] 3840 	mov	dptr,#_setPosXY_PARM_2
      008BCF EE               [12] 3841 	mov	a,r6
      008BD0 F0               [24] 3842 	movx	@dptr,a
      008BD1 EF               [12] 3843 	mov	a,r7
      008BD2 A3               [24] 3844 	inc	dptr
      008BD3 F0               [24] 3845 	movx	@dptr,a
      008BD4 8C 82            [24] 3846 	mov	dpl,r4
      008BD6 8D 83            [24] 3847 	mov	dph,r5
      008BD8 12 86 4A         [24] 3848 	lcall	_setPosXY
                                   3849 ;	board/zbs29_BW_ssd1619/screen.c:617: shortCommand1(CMD_DATA_ENTRY_MODE, 1);
      008BDB 90 E6 39         [24] 3850 	mov	dptr,#_shortCommand1_PARM_2
      008BDE 74 01            [12] 3851 	mov	a,#0x01
      008BE0 F0               [24] 3852 	movx	@dptr,a
      008BE1 75 82 11         [24] 3853 	mov	dpl,#0x11
      008BE4 12 7D E7         [24] 3854 	lcall	_shortCommand1
                                   3855 ;	board/zbs29_BW_ssd1619/screen.c:618: commandBegin(CMD_WRITE_FB_BW);
      008BE7 75 82 24         [24] 3856 	mov	dpl,#0x24
      008BEA 12 7E 32         [24] 3857 	lcall	_commandBegin
                                   3858 ;	board/zbs29_BW_ssd1619/screen.c:619: struct BarcodeInfo __xdata bci = {
      008BED 90 E6 7E         [24] 3859 	mov	dptr,#_printBarcode_string_65536_268
      008BF0 E0               [24] 3860 	movx	a,@dptr
      008BF1 FD               [12] 3861 	mov	r5,a
      008BF2 A3               [24] 3862 	inc	dptr
      008BF3 E0               [24] 3863 	movx	a,@dptr
      008BF4 FE               [12] 3864 	mov	r6,a
      008BF5 A3               [24] 3865 	inc	dptr
      008BF6 E0               [24] 3866 	movx	a,@dptr
      008BF7 FF               [12] 3867 	mov	r7,a
      008BF8 90 E6 81         [24] 3868 	mov	dptr,#_printBarcode_bci_65537_270
      008BFB ED               [12] 3869 	mov	a,r5
      008BFC F0               [24] 3870 	movx	@dptr,a
      008BFD EE               [12] 3871 	mov	a,r6
      008BFE A3               [24] 3872 	inc	dptr
      008BFF F0               [24] 3873 	movx	@dptr,a
      008C00 EF               [12] 3874 	mov	a,r7
      008C01 A3               [24] 3875 	inc	dptr
      008C02 F0               [24] 3876 	movx	@dptr,a
      008C03 90 E6 84         [24] 3877 	mov	dptr,#(_printBarcode_bci_65537_270 + 0x0003)
      008C06 E4               [12] 3878 	clr	a
      008C07 F0               [24] 3879 	movx	@dptr,a
      008C08 A3               [24] 3880 	inc	dptr
      008C09 F0               [24] 3881 	movx	@dptr,a
      008C0A 90 E6 86         [24] 3882 	mov	dptr,#(_printBarcode_bci_65537_270 + 0x0005)
      008C0D F0               [24] 3883 	movx	@dptr,a
      008C0E 90 E6 87         [24] 3884 	mov	dptr,#(_printBarcode_bci_65537_270 + 0x0006)
      008C11 F0               [24] 3885 	movx	@dptr,a
      008C12 90 E6 88         [24] 3886 	mov	dptr,#(_printBarcode_bci_65537_270 + 0x0007)
      008C15 F0               [24] 3887 	movx	@dptr,a
      008C16 90 E6 89         [24] 3888 	mov	dptr,#(_printBarcode_bci_65537_270 + 0x0008)
      008C19 F0               [24] 3889 	movx	@dptr,a
                                   3890 ;	board/zbs29_BW_ssd1619/screen.c:622: while (!barcodeIsDone(&bci)) {
      008C1A                       3891 00104$:
      008C1A 90 E6 81         [24] 3892 	mov	dptr,#_printBarcode_bci_65537_270
      008C1D 12 53 10         [24] 3893 	lcall	_barcodeIsDone
      008C20 40 18            [24] 3894 	jc	00107$
                                   3895 ;	board/zbs29_BW_ssd1619/screen.c:623: if (barcodeNextBar(&bci)) {
      008C22 90 E6 81         [24] 3896 	mov	dptr,#_printBarcode_bci_65537_270
      008C25 12 53 40         [24] 3897 	lcall	_barcodeNextBar
      008C28 50 08            [24] 3898 	jnc	00102$
                                   3899 ;	board/zbs29_BW_ssd1619/screen.c:624: epdSend(0xFF);
      008C2A 75 82 FF         [24] 3900 	mov	dpl,#0xff
      008C2D 12 5C C3         [24] 3901 	lcall	_spiTXByte
      008C30 80 E8            [24] 3902 	sjmp	00104$
      008C32                       3903 00102$:
                                   3904 ;	board/zbs29_BW_ssd1619/screen.c:626: epdSend(0x00);
      008C32 75 82 00         [24] 3905 	mov	dpl,#0x00
      008C35 12 5C C3         [24] 3906 	lcall	_spiTXByte
                                   3907 ;	board/zbs29_BW_ssd1619/screen.c:629: commandEnd();
      008C38 80 E0            [24] 3908 	sjmp	00104$
      008C3A                       3909 00107$:
                                   3910 ;	assignBit
      008C3A D2 97            [12] 3911 	setb	_P1_7
                                   3912 ;	board/zbs29_BW_ssd1619/screen.c:630: }
      008C3C 22               [24] 3913 	ret
                                   3914 ;------------------------------------------------------------
                                   3915 ;Allocation info for local variables in function 'pushXFontBytesToEPD'
                                   3916 ;------------------------------------------------------------
                                   3917 ;byte2                     Allocated with name '_pushXFontBytesToEPD_PARM_2'
                                   3918 ;byte1                     Allocated with name '_pushXFontBytesToEPD_byte1_65536_275'
                                   3919 ;offset                    Allocated with name '_pushXFontBytesToEPD_offset_131072_277'
                                   3920 ;c                         Allocated with name '_pushXFontBytesToEPD_c_196608_278'
                                   3921 ;c                         Allocated with name '_pushXFontBytesToEPD_c_196608_280'
                                   3922 ;offset                    Allocated with name '_pushXFontBytesToEPD_offset_131072_282'
                                   3923 ;c                         Allocated with name '_pushXFontBytesToEPD_c_196608_283'
                                   3924 ;c                         Allocated with name '_pushXFontBytesToEPD_c_196608_286'
                                   3925 ;i                         Allocated with name '_pushXFontBytesToEPD_i_196608_290'
                                   3926 ;------------------------------------------------------------
                                   3927 ;	board/zbs29_BW_ssd1619/screen.c:632: static void pushXFontBytesToEPD(uint8_t byte1, uint8_t byte2) {
                                   3928 ;	-----------------------------------------
                                   3929 ;	 function pushXFontBytesToEPD
                                   3930 ;	-----------------------------------------
      008C3D                       3931 _pushXFontBytesToEPD:
      008C3D E5 82            [12] 3932 	mov	a,dpl
      008C3F 90 E6 8B         [24] 3933 	mov	dptr,#_pushXFontBytesToEPD_byte1_65536_275
      008C42 F0               [24] 3934 	movx	@dptr,a
                                   3935 ;	board/zbs29_BW_ssd1619/screen.c:633: if (epdCharSize == 1) {
      008C43 90 FD 0D         [24] 3936 	mov	dptr,#_epdCharSize
      008C46 E0               [24] 3937 	movx	a,@dptr
      008C47 FF               [12] 3938 	mov	r7,a
      008C48 BF 01 02         [24] 3939 	cjne	r7,#0x01,00205$
      008C4B 80 03            [24] 3940 	sjmp	00206$
      008C4D                       3941 00205$:
      008C4D 02 8D 39         [24] 3942 	ljmp	00114$
      008C50                       3943 00206$:
                                   3944 ;	board/zbs29_BW_ssd1619/screen.c:634: uint8_t offset = 7 - (fontCurXpos % 8);
      008C50 90 FD 0F         [24] 3945 	mov	dptr,#_fontCurXpos
      008C53 E0               [24] 3946 	movx	a,@dptr
      008C54 FE               [12] 3947 	mov	r6,a
      008C55 A3               [24] 3948 	inc	dptr
      008C56 E0               [24] 3949 	movx	a,@dptr
      008C57 53 06 07         [24] 3950 	anl	ar6,#0x07
      008C5A 74 07            [12] 3951 	mov	a,#0x07
      008C5C C3               [12] 3952 	clr	c
      008C5D 9E               [12] 3953 	subb	a,r6
      008C5E FE               [12] 3954 	mov	r6,a
      008C5F 90 E6 8C         [24] 3955 	mov	dptr,#_pushXFontBytesToEPD_offset_131072_277
      008C62 F0               [24] 3956 	movx	@dptr,a
                                   3957 ;	board/zbs29_BW_ssd1619/screen.c:635: for (uint8_t c = 0; c < 8; c++) {
      008C63 8E 07            [24] 3958 	mov	ar7,r6
      008C65 90 E6 8A         [24] 3959 	mov	dptr,#_pushXFontBytesToEPD_PARM_2
      008C68 E0               [24] 3960 	movx	a,@dptr
      008C69 FE               [12] 3961 	mov	r6,a
      008C6A 7D 00            [12] 3962 	mov	r5,#0x00
      008C6C                       3963 00120$:
      008C6C BD 08 00         [24] 3964 	cjne	r5,#0x08,00207$
      008C6F                       3965 00207$:
      008C6F 50 4F            [24] 3966 	jnc	00103$
                                   3967 ;	board/zbs29_BW_ssd1619/screen.c:636: if (byte2 & (1 << (7 - c))) rbuffer[c] |= (1 << offset);
      008C71 74 07            [12] 3968 	mov	a,#0x07
      008C73 C3               [12] 3969 	clr	c
      008C74 9D               [12] 3970 	subb	a,r5
      008C75 FC               [12] 3971 	mov	r4,a
      008C76 8C F0            [24] 3972 	mov	b,r4
      008C78 05 F0            [12] 3973 	inc	b
      008C7A 7C 01            [12] 3974 	mov	r4,#0x01
      008C7C 7B 00            [12] 3975 	mov	r3,#0x00
      008C7E 80 06            [24] 3976 	sjmp	00210$
      008C80                       3977 00209$:
      008C80 EC               [12] 3978 	mov	a,r4
      008C81 2C               [12] 3979 	add	a,r4
      008C82 FC               [12] 3980 	mov	r4,a
      008C83 EB               [12] 3981 	mov	a,r3
      008C84 33               [12] 3982 	rlc	a
      008C85 FB               [12] 3983 	mov	r3,a
      008C86                       3984 00210$:
      008C86 D5 F0 F7         [24] 3985 	djnz	b,00209$
      008C89 8E 01            [24] 3986 	mov	ar1,r6
      008C8B 7A 00            [12] 3987 	mov	r2,#0x00
      008C8D E9               [12] 3988 	mov	a,r1
      008C8E 52 04            [12] 3989 	anl	ar4,a
      008C90 EA               [12] 3990 	mov	a,r2
      008C91 52 03            [12] 3991 	anl	ar3,a
      008C93 EC               [12] 3992 	mov	a,r4
      008C94 4B               [12] 3993 	orl	a,r3
      008C95 60 26            [24] 3994 	jz	00121$
      008C97 ED               [12] 3995 	mov	a,r5
      008C98 24 8A            [12] 3996 	add	a,#_rbuffer
      008C9A FB               [12] 3997 	mov	r3,a
      008C9B E4               [12] 3998 	clr	a
      008C9C 34 E5            [12] 3999 	addc	a,#(_rbuffer >> 8)
      008C9E FC               [12] 4000 	mov	r4,a
      008C9F 8B 82            [24] 4001 	mov	dpl,r3
      008CA1 8C 83            [24] 4002 	mov	dph,r4
      008CA3 E0               [24] 4003 	movx	a,@dptr
      008CA4 FA               [12] 4004 	mov	r2,a
      008CA5 8F 01            [24] 4005 	mov	ar1,r7
      008CA7 89 F0            [24] 4006 	mov	b,r1
      008CA9 05 F0            [12] 4007 	inc	b
      008CAB 74 01            [12] 4008 	mov	a,#0x01
      008CAD 80 02            [24] 4009 	sjmp	00214$
      008CAF                       4010 00212$:
      008CAF 25 E0            [12] 4011 	add	a,acc
      008CB1                       4012 00214$:
      008CB1 D5 F0 FB         [24] 4013 	djnz	b,00212$
      008CB4 F9               [12] 4014 	mov	r1,a
      008CB5 42 02            [12] 4015 	orl	ar2,a
      008CB7 8B 82            [24] 4016 	mov	dpl,r3
      008CB9 8C 83            [24] 4017 	mov	dph,r4
      008CBB EA               [12] 4018 	mov	a,r2
      008CBC F0               [24] 4019 	movx	@dptr,a
      008CBD                       4020 00121$:
                                   4021 ;	board/zbs29_BW_ssd1619/screen.c:635: for (uint8_t c = 0; c < 8; c++) {
      008CBD 0D               [12] 4022 	inc	r5
      008CBE 80 AC            [24] 4023 	sjmp	00120$
      008CC0                       4024 00103$:
                                   4025 ;	board/zbs29_BW_ssd1619/screen.c:638: for (uint8_t c = 0; c < 8; c++) {
      008CC0 90 E6 8C         [24] 4026 	mov	dptr,#_pushXFontBytesToEPD_offset_131072_277
      008CC3 E0               [24] 4027 	movx	a,@dptr
      008CC4 FF               [12] 4028 	mov	r7,a
      008CC5 90 E6 8B         [24] 4029 	mov	dptr,#_pushXFontBytesToEPD_byte1_65536_275
      008CC8 E0               [24] 4030 	movx	a,@dptr
      008CC9 FE               [12] 4031 	mov	r6,a
      008CCA 7D 00            [12] 4032 	mov	r5,#0x00
      008CCC                       4033 00123$:
      008CCC BD 08 00         [24] 4034 	cjne	r5,#0x08,00215$
      008CCF                       4035 00215$:
      008CCF 50 59            [24] 4036 	jnc	00106$
                                   4037 ;	board/zbs29_BW_ssd1619/screen.c:639: if (byte1 & (1 << (7 - c))) rbuffer[8 + c] |= (1 << offset);
      008CD1 74 07            [12] 4038 	mov	a,#0x07
      008CD3 C3               [12] 4039 	clr	c
      008CD4 9D               [12] 4040 	subb	a,r5
      008CD5 FC               [12] 4041 	mov	r4,a
      008CD6 8C F0            [24] 4042 	mov	b,r4
      008CD8 05 F0            [12] 4043 	inc	b
      008CDA 7C 01            [12] 4044 	mov	r4,#0x01
      008CDC 7B 00            [12] 4045 	mov	r3,#0x00
      008CDE 80 06            [24] 4046 	sjmp	00218$
      008CE0                       4047 00217$:
      008CE0 EC               [12] 4048 	mov	a,r4
      008CE1 2C               [12] 4049 	add	a,r4
      008CE2 FC               [12] 4050 	mov	r4,a
      008CE3 EB               [12] 4051 	mov	a,r3
      008CE4 33               [12] 4052 	rlc	a
      008CE5 FB               [12] 4053 	mov	r3,a
      008CE6                       4054 00218$:
      008CE6 D5 F0 F7         [24] 4055 	djnz	b,00217$
      008CE9 8E 01            [24] 4056 	mov	ar1,r6
      008CEB 7A 00            [12] 4057 	mov	r2,#0x00
      008CED E9               [12] 4058 	mov	a,r1
      008CEE 52 04            [12] 4059 	anl	ar4,a
      008CF0 EA               [12] 4060 	mov	a,r2
      008CF1 52 03            [12] 4061 	anl	ar3,a
      008CF3 EC               [12] 4062 	mov	a,r4
      008CF4 4B               [12] 4063 	orl	a,r3
      008CF5 60 30            [24] 4064 	jz	00124$
      008CF7 8D 04            [24] 4065 	mov	ar4,r5
      008CF9 74 08            [12] 4066 	mov	a,#0x08
      008CFB 2C               [12] 4067 	add	a,r4
      008CFC FC               [12] 4068 	mov	r4,a
      008CFD 33               [12] 4069 	rlc	a
      008CFE 95 E0            [12] 4070 	subb	a,acc
      008D00 FB               [12] 4071 	mov	r3,a
      008D01 EC               [12] 4072 	mov	a,r4
      008D02 24 8A            [12] 4073 	add	a,#_rbuffer
      008D04 FC               [12] 4074 	mov	r4,a
      008D05 EB               [12] 4075 	mov	a,r3
      008D06 34 E5            [12] 4076 	addc	a,#(_rbuffer >> 8)
      008D08 FB               [12] 4077 	mov	r3,a
      008D09 8C 82            [24] 4078 	mov	dpl,r4
      008D0B 8B 83            [24] 4079 	mov	dph,r3
      008D0D E0               [24] 4080 	movx	a,@dptr
      008D0E FA               [12] 4081 	mov	r2,a
      008D0F 8F 01            [24] 4082 	mov	ar1,r7
      008D11 89 F0            [24] 4083 	mov	b,r1
      008D13 05 F0            [12] 4084 	inc	b
      008D15 74 01            [12] 4085 	mov	a,#0x01
      008D17 80 02            [24] 4086 	sjmp	00222$
      008D19                       4087 00220$:
      008D19 25 E0            [12] 4088 	add	a,acc
      008D1B                       4089 00222$:
      008D1B D5 F0 FB         [24] 4090 	djnz	b,00220$
      008D1E F9               [12] 4091 	mov	r1,a
      008D1F 42 02            [12] 4092 	orl	ar2,a
      008D21 8C 82            [24] 4093 	mov	dpl,r4
      008D23 8B 83            [24] 4094 	mov	dph,r3
      008D25 EA               [12] 4095 	mov	a,r2
      008D26 F0               [24] 4096 	movx	@dptr,a
      008D27                       4097 00124$:
                                   4098 ;	board/zbs29_BW_ssd1619/screen.c:638: for (uint8_t c = 0; c < 8; c++) {
      008D27 0D               [12] 4099 	inc	r5
      008D28 80 A2            [24] 4100 	sjmp	00123$
      008D2A                       4101 00106$:
                                   4102 ;	board/zbs29_BW_ssd1619/screen.c:641: fontCurXpos++;
      008D2A 90 FD 0F         [24] 4103 	mov	dptr,#_fontCurXpos
      008D2D E0               [24] 4104 	movx	a,@dptr
      008D2E 24 01            [12] 4105 	add	a,#0x01
      008D30 F0               [24] 4106 	movx	@dptr,a
      008D31 A3               [24] 4107 	inc	dptr
      008D32 E0               [24] 4108 	movx	a,@dptr
      008D33 34 00            [12] 4109 	addc	a,#0x00
      008D35 F0               [24] 4110 	movx	@dptr,a
      008D36 02 8E 7D         [24] 4111 	ljmp	00115$
      008D39                       4112 00114$:
                                   4113 ;	board/zbs29_BW_ssd1619/screen.c:643: uint8_t offset = 6 - (fontCurXpos % 8);
      008D39 90 FD 0F         [24] 4114 	mov	dptr,#_fontCurXpos
      008D3C E0               [24] 4115 	movx	a,@dptr
      008D3D FE               [12] 4116 	mov	r6,a
      008D3E A3               [24] 4117 	inc	dptr
      008D3F E0               [24] 4118 	movx	a,@dptr
      008D40 53 06 07         [24] 4119 	anl	ar6,#0x07
      008D43 74 06            [12] 4120 	mov	a,#0x06
      008D45 C3               [12] 4121 	clr	c
      008D46 9E               [12] 4122 	subb	a,r6
      008D47 FE               [12] 4123 	mov	r6,a
      008D48 90 E6 8D         [24] 4124 	mov	dptr,#_pushXFontBytesToEPD_offset_131072_282
      008D4B F0               [24] 4125 	movx	@dptr,a
                                   4126 ;	board/zbs29_BW_ssd1619/screen.c:645: for (uint8_t c = 0; c < 8; c++) {
      008D4C 8E 07            [24] 4127 	mov	ar7,r6
      008D4E 90 E6 8A         [24] 4128 	mov	dptr,#_pushXFontBytesToEPD_PARM_2
      008D51 E0               [24] 4129 	movx	a,@dptr
      008D52 FE               [12] 4130 	mov	r6,a
      008D53 7D 00            [12] 4131 	mov	r5,#0x00
      008D55                       4132 00126$:
      008D55 BD 08 00         [24] 4133 	cjne	r5,#0x08,00223$
      008D58                       4134 00223$:
      008D58 40 03            [24] 4135 	jc	00224$
      008D5A 02 8D D8         [24] 4136 	ljmp	00109$
      008D5D                       4137 00224$:
                                   4138 ;	board/zbs29_BW_ssd1619/screen.c:646: if (byte2 & (1 << (7 - c))) {
      008D5D 74 07            [12] 4139 	mov	a,#0x07
      008D5F C3               [12] 4140 	clr	c
      008D60 9D               [12] 4141 	subb	a,r5
      008D61 FC               [12] 4142 	mov	r4,a
      008D62 8C F0            [24] 4143 	mov	b,r4
      008D64 05 F0            [12] 4144 	inc	b
      008D66 7C 01            [12] 4145 	mov	r4,#0x01
      008D68 7B 00            [12] 4146 	mov	r3,#0x00
      008D6A 80 06            [24] 4147 	sjmp	00226$
      008D6C                       4148 00225$:
      008D6C EC               [12] 4149 	mov	a,r4
      008D6D 2C               [12] 4150 	add	a,r4
      008D6E FC               [12] 4151 	mov	r4,a
      008D6F EB               [12] 4152 	mov	a,r3
      008D70 33               [12] 4153 	rlc	a
      008D71 FB               [12] 4154 	mov	r3,a
      008D72                       4155 00226$:
      008D72 D5 F0 F7         [24] 4156 	djnz	b,00225$
      008D75 8E 01            [24] 4157 	mov	ar1,r6
      008D77 7A 00            [12] 4158 	mov	r2,#0x00
      008D79 E9               [12] 4159 	mov	a,r1
      008D7A 52 04            [12] 4160 	anl	ar4,a
      008D7C EA               [12] 4161 	mov	a,r2
      008D7D 52 03            [12] 4162 	anl	ar3,a
      008D7F EC               [12] 4163 	mov	a,r4
      008D80 4B               [12] 4164 	orl	a,r3
      008D81 60 51            [24] 4165 	jz	00127$
                                   4166 ;	board/zbs29_BW_ssd1619/screen.c:647: rbuffer[c * 2] |= (3 << offset);
      008D83 8D 03            [24] 4167 	mov	ar3,r5
      008D85 7C 00            [12] 4168 	mov	r4,#0x00
      008D87 EB               [12] 4169 	mov	a,r3
      008D88 2B               [12] 4170 	add	a,r3
      008D89 FB               [12] 4171 	mov	r3,a
      008D8A EC               [12] 4172 	mov	a,r4
      008D8B 33               [12] 4173 	rlc	a
      008D8C FC               [12] 4174 	mov	r4,a
      008D8D EB               [12] 4175 	mov	a,r3
      008D8E 24 8A            [12] 4176 	add	a,#_rbuffer
      008D90 FB               [12] 4177 	mov	r3,a
      008D91 EC               [12] 4178 	mov	a,r4
      008D92 34 E5            [12] 4179 	addc	a,#(_rbuffer >> 8)
      008D94 FC               [12] 4180 	mov	r4,a
      008D95 8B 82            [24] 4181 	mov	dpl,r3
      008D97 8C 83            [24] 4182 	mov	dph,r4
      008D99 E0               [24] 4183 	movx	a,@dptr
      008D9A FA               [12] 4184 	mov	r2,a
      008D9B 8F 01            [24] 4185 	mov	ar1,r7
      008D9D 89 F0            [24] 4186 	mov	b,r1
      008D9F 05 F0            [12] 4187 	inc	b
      008DA1 74 03            [12] 4188 	mov	a,#0x03
      008DA3 80 02            [24] 4189 	sjmp	00230$
      008DA5                       4190 00228$:
      008DA5 25 E0            [12] 4191 	add	a,acc
      008DA7                       4192 00230$:
      008DA7 D5 F0 FB         [24] 4193 	djnz	b,00228$
      008DAA F9               [12] 4194 	mov	r1,a
      008DAB 42 02            [12] 4195 	orl	ar2,a
      008DAD 8B 82            [24] 4196 	mov	dpl,r3
      008DAF 8C 83            [24] 4197 	mov	dph,r4
      008DB1 EA               [12] 4198 	mov	a,r2
      008DB2 F0               [24] 4199 	movx	@dptr,a
                                   4200 ;	board/zbs29_BW_ssd1619/screen.c:648: rbuffer[(c * 2) + 1] |= (3 << offset);
      008DB3 8D 04            [24] 4201 	mov	ar4,r5
      008DB5 EC               [12] 4202 	mov	a,r4
      008DB6 2C               [12] 4203 	add	a,r4
      008DB7 FC               [12] 4204 	mov	r4,a
      008DB8 0C               [12] 4205 	inc	r4
      008DB9 EC               [12] 4206 	mov	a,r4
      008DBA 33               [12] 4207 	rlc	a
      008DBB 95 E0            [12] 4208 	subb	a,acc
      008DBD FB               [12] 4209 	mov	r3,a
      008DBE EC               [12] 4210 	mov	a,r4
      008DBF 24 8A            [12] 4211 	add	a,#_rbuffer
      008DC1 FC               [12] 4212 	mov	r4,a
      008DC2 EB               [12] 4213 	mov	a,r3
      008DC3 34 E5            [12] 4214 	addc	a,#(_rbuffer >> 8)
      008DC5 FB               [12] 4215 	mov	r3,a
      008DC6 8C 82            [24] 4216 	mov	dpl,r4
      008DC8 8B 83            [24] 4217 	mov	dph,r3
      008DCA E0               [24] 4218 	movx	a,@dptr
      008DCB FA               [12] 4219 	mov	r2,a
      008DCC 42 01            [12] 4220 	orl	ar1,a
      008DCE 8C 82            [24] 4221 	mov	dpl,r4
      008DD0 8B 83            [24] 4222 	mov	dph,r3
      008DD2 E9               [12] 4223 	mov	a,r1
      008DD3 F0               [24] 4224 	movx	@dptr,a
      008DD4                       4225 00127$:
                                   4226 ;	board/zbs29_BW_ssd1619/screen.c:645: for (uint8_t c = 0; c < 8; c++) {
      008DD4 0D               [12] 4227 	inc	r5
      008DD5 02 8D 55         [24] 4228 	ljmp	00126$
      008DD8                       4229 00109$:
                                   4230 ;	board/zbs29_BW_ssd1619/screen.c:651: for (uint8_t c = 0; c < 8; c++) {
      008DD8 90 E6 8D         [24] 4231 	mov	dptr,#_pushXFontBytesToEPD_offset_131072_282
      008DDB E0               [24] 4232 	movx	a,@dptr
      008DDC FF               [12] 4233 	mov	r7,a
      008DDD 90 E6 8B         [24] 4234 	mov	dptr,#_pushXFontBytesToEPD_byte1_65536_275
      008DE0 E0               [24] 4235 	movx	a,@dptr
      008DE1 FE               [12] 4236 	mov	r6,a
      008DE2 7D 00            [12] 4237 	mov	r5,#0x00
      008DE4                       4238 00129$:
      008DE4 BD 08 00         [24] 4239 	cjne	r5,#0x08,00231$
      008DE7                       4240 00231$:
      008DE7 40 03            [24] 4241 	jc	00232$
      008DE9 02 8E 66         [24] 4242 	ljmp	00112$
      008DEC                       4243 00232$:
                                   4244 ;	board/zbs29_BW_ssd1619/screen.c:652: if (byte1 & (1 << (7 - c))) {
      008DEC 74 07            [12] 4245 	mov	a,#0x07
      008DEE C3               [12] 4246 	clr	c
      008DEF 9D               [12] 4247 	subb	a,r5
      008DF0 FC               [12] 4248 	mov	r4,a
      008DF1 8C F0            [24] 4249 	mov	b,r4
      008DF3 05 F0            [12] 4250 	inc	b
      008DF5 7C 01            [12] 4251 	mov	r4,#0x01
      008DF7 7B 00            [12] 4252 	mov	r3,#0x00
      008DF9 80 06            [24] 4253 	sjmp	00234$
      008DFB                       4254 00233$:
      008DFB EC               [12] 4255 	mov	a,r4
      008DFC 2C               [12] 4256 	add	a,r4
      008DFD FC               [12] 4257 	mov	r4,a
      008DFE EB               [12] 4258 	mov	a,r3
      008DFF 33               [12] 4259 	rlc	a
      008E00 FB               [12] 4260 	mov	r3,a
      008E01                       4261 00234$:
      008E01 D5 F0 F7         [24] 4262 	djnz	b,00233$
      008E04 8E 01            [24] 4263 	mov	ar1,r6
      008E06 7A 00            [12] 4264 	mov	r2,#0x00
      008E08 E9               [12] 4265 	mov	a,r1
      008E09 52 04            [12] 4266 	anl	ar4,a
      008E0B EA               [12] 4267 	mov	a,r2
      008E0C 52 03            [12] 4268 	anl	ar3,a
      008E0E EC               [12] 4269 	mov	a,r4
      008E0F 4B               [12] 4270 	orl	a,r3
      008E10 60 50            [24] 4271 	jz	00130$
                                   4272 ;	board/zbs29_BW_ssd1619/screen.c:653: rbuffer[(c * 2) + 16] |= (3 << offset);
      008E12 8D 04            [24] 4273 	mov	ar4,r5
      008E14 EC               [12] 4274 	mov	a,r4
      008E15 2C               [12] 4275 	add	a,r4
      008E16 FC               [12] 4276 	mov	r4,a
      008E17 24 10            [12] 4277 	add	a,#0x10
      008E19 FB               [12] 4278 	mov	r3,a
      008E1A 33               [12] 4279 	rlc	a
      008E1B 95 E0            [12] 4280 	subb	a,acc
      008E1D FA               [12] 4281 	mov	r2,a
      008E1E EB               [12] 4282 	mov	a,r3
      008E1F 24 8A            [12] 4283 	add	a,#_rbuffer
      008E21 FB               [12] 4284 	mov	r3,a
      008E22 EA               [12] 4285 	mov	a,r2
      008E23 34 E5            [12] 4286 	addc	a,#(_rbuffer >> 8)
      008E25 FA               [12] 4287 	mov	r2,a
      008E26 8B 82            [24] 4288 	mov	dpl,r3
      008E28 8A 83            [24] 4289 	mov	dph,r2
      008E2A E0               [24] 4290 	movx	a,@dptr
      008E2B F9               [12] 4291 	mov	r1,a
      008E2C 8F 00            [24] 4292 	mov	ar0,r7
      008E2E 88 F0            [24] 4293 	mov	b,r0
      008E30 05 F0            [12] 4294 	inc	b
      008E32 74 03            [12] 4295 	mov	a,#0x03
      008E34 80 02            [24] 4296 	sjmp	00238$
      008E36                       4297 00236$:
      008E36 25 E0            [12] 4298 	add	a,acc
      008E38                       4299 00238$:
      008E38 D5 F0 FB         [24] 4300 	djnz	b,00236$
      008E3B F8               [12] 4301 	mov	r0,a
      008E3C 42 01            [12] 4302 	orl	ar1,a
      008E3E 8B 82            [24] 4303 	mov	dpl,r3
      008E40 8A 83            [24] 4304 	mov	dph,r2
      008E42 E9               [12] 4305 	mov	a,r1
      008E43 F0               [24] 4306 	movx	@dptr,a
                                   4307 ;	board/zbs29_BW_ssd1619/screen.c:654: rbuffer[(c * 2) + 17] |= (3 << offset);
      008E44 74 11            [12] 4308 	mov	a,#0x11
      008E46 2C               [12] 4309 	add	a,r4
      008E47 FC               [12] 4310 	mov	r4,a
      008E48 33               [12] 4311 	rlc	a
      008E49 95 E0            [12] 4312 	subb	a,acc
      008E4B FB               [12] 4313 	mov	r3,a
      008E4C EC               [12] 4314 	mov	a,r4
      008E4D 24 8A            [12] 4315 	add	a,#_rbuffer
      008E4F FC               [12] 4316 	mov	r4,a
      008E50 EB               [12] 4317 	mov	a,r3
      008E51 34 E5            [12] 4318 	addc	a,#(_rbuffer >> 8)
      008E53 FB               [12] 4319 	mov	r3,a
      008E54 8C 82            [24] 4320 	mov	dpl,r4
      008E56 8B 83            [24] 4321 	mov	dph,r3
      008E58 E0               [24] 4322 	movx	a,@dptr
      008E59 FA               [12] 4323 	mov	r2,a
      008E5A 42 00            [12] 4324 	orl	ar0,a
      008E5C 8C 82            [24] 4325 	mov	dpl,r4
      008E5E 8B 83            [24] 4326 	mov	dph,r3
      008E60 E8               [12] 4327 	mov	a,r0
      008E61 F0               [24] 4328 	movx	@dptr,a
      008E62                       4329 00130$:
                                   4330 ;	board/zbs29_BW_ssd1619/screen.c:651: for (uint8_t c = 0; c < 8; c++) {
      008E62 0D               [12] 4331 	inc	r5
      008E63 02 8D E4         [24] 4332 	ljmp	00129$
      008E66                       4333 00112$:
                                   4334 ;	board/zbs29_BW_ssd1619/screen.c:657: fontCurXpos += 2;
      008E66 90 FD 0F         [24] 4335 	mov	dptr,#_fontCurXpos
      008E69 E0               [24] 4336 	movx	a,@dptr
      008E6A FE               [12] 4337 	mov	r6,a
      008E6B A3               [24] 4338 	inc	dptr
      008E6C E0               [24] 4339 	movx	a,@dptr
      008E6D FF               [12] 4340 	mov	r7,a
      008E6E 74 02            [12] 4341 	mov	a,#0x02
      008E70 2E               [12] 4342 	add	a,r6
      008E71 FE               [12] 4343 	mov	r6,a
      008E72 E4               [12] 4344 	clr	a
      008E73 3F               [12] 4345 	addc	a,r7
      008E74 FF               [12] 4346 	mov	r7,a
      008E75 90 FD 0F         [24] 4347 	mov	dptr,#_fontCurXpos
      008E78 EE               [12] 4348 	mov	a,r6
      008E79 F0               [24] 4349 	movx	@dptr,a
      008E7A EF               [12] 4350 	mov	a,r7
      008E7B A3               [24] 4351 	inc	dptr
      008E7C F0               [24] 4352 	movx	@dptr,a
      008E7D                       4353 00115$:
                                   4354 ;	board/zbs29_BW_ssd1619/screen.c:659: if (fontCurXpos % 8 == 0) {
      008E7D 90 FD 0F         [24] 4355 	mov	dptr,#_fontCurXpos
      008E80 E0               [24] 4356 	movx	a,@dptr
      008E81 FE               [12] 4357 	mov	r6,a
      008E82 A3               [24] 4358 	inc	dptr
      008E83 E0               [24] 4359 	movx	a,@dptr
      008E84 EE               [12] 4360 	mov	a,r6
      008E85 54 07            [12] 4361 	anl	a,#0x07
      008E87 60 01            [24] 4362 	jz	00240$
      008E89 22               [24] 4363 	ret
      008E8A                       4364 00240$:
                                   4365 ;	board/zbs29_BW_ssd1619/screen.c:661: for (uint8_t i = 0; i < (16 * epdCharSize); i++) {
      008E8A 7F 00            [12] 4366 	mov	r7,#0x00
      008E8C                       4367 00132$:
      008E8C 90 FD 0D         [24] 4368 	mov	dptr,#_epdCharSize
      008E8F E0               [24] 4369 	movx	a,@dptr
      008E90 FE               [12] 4370 	mov	r6,a
      008E91 E4               [12] 4371 	clr	a
      008E92 C4               [12] 4372 	swap	a
      008E93 54 F0            [12] 4373 	anl	a,#0xf0
      008E95 CE               [12] 4374 	xch	a,r6
      008E96 C4               [12] 4375 	swap	a
      008E97 CE               [12] 4376 	xch	a,r6
      008E98 6E               [12] 4377 	xrl	a,r6
      008E99 CE               [12] 4378 	xch	a,r6
      008E9A 54 F0            [12] 4379 	anl	a,#0xf0
      008E9C CE               [12] 4380 	xch	a,r6
      008E9D 6E               [12] 4381 	xrl	a,r6
      008E9E FD               [12] 4382 	mov	r5,a
      008E9F 8F 03            [24] 4383 	mov	ar3,r7
      008EA1 7C 00            [12] 4384 	mov	r4,#0x00
      008EA3 C3               [12] 4385 	clr	c
      008EA4 EB               [12] 4386 	mov	a,r3
      008EA5 9E               [12] 4387 	subb	a,r6
      008EA6 EC               [12] 4388 	mov	a,r4
      008EA7 64 80            [12] 4389 	xrl	a,#0x80
      008EA9 8D F0            [24] 4390 	mov	b,r5
      008EAB 63 F0 80         [24] 4391 	xrl	b,#0x80
      008EAE 95 F0            [12] 4392 	subb	a,b
      008EB0 50 14            [24] 4393 	jnc	00116$
                                   4394 ;	board/zbs29_BW_ssd1619/screen.c:662: epdSend(rbuffer[i]);
      008EB2 EF               [12] 4395 	mov	a,r7
      008EB3 24 8A            [12] 4396 	add	a,#_rbuffer
      008EB5 F5 82            [12] 4397 	mov	dpl,a
      008EB7 E4               [12] 4398 	clr	a
      008EB8 34 E5            [12] 4399 	addc	a,#(_rbuffer >> 8)
      008EBA F5 83            [12] 4400 	mov	dph,a
      008EBC E0               [24] 4401 	movx	a,@dptr
      008EBD FE               [12] 4402 	mov	r6,a
      008EBE F5 82            [12] 4403 	mov	dpl,a
      008EC0 12 5C C3         [24] 4404 	lcall	_spiTXByte
                                   4405 ;	board/zbs29_BW_ssd1619/screen.c:661: for (uint8_t i = 0; i < (16 * epdCharSize); i++) {
      008EC3 0F               [12] 4406 	inc	r7
      008EC4 80 C6            [24] 4407 	sjmp	00132$
      008EC6                       4408 00116$:
                                   4409 ;	board/zbs29_BW_ssd1619/screen.c:664: memset(rbuffer, 0, 32);
      008EC6 90 E7 2E         [24] 4410 	mov	dptr,#_memset_PARM_2
      008EC9 E4               [12] 4411 	clr	a
      008ECA F0               [24] 4412 	movx	@dptr,a
      008ECB 90 E7 2F         [24] 4413 	mov	dptr,#_memset_PARM_3
      008ECE 74 20            [12] 4414 	mov	a,#0x20
      008ED0 F0               [24] 4415 	movx	@dptr,a
      008ED1 E4               [12] 4416 	clr	a
      008ED2 A3               [24] 4417 	inc	dptr
      008ED3 F0               [24] 4418 	movx	@dptr,a
      008ED4 90 E5 8A         [24] 4419 	mov	dptr,#_rbuffer
      008ED7 75 F0 00         [24] 4420 	mov	b,#0x00
                                   4421 ;	board/zbs29_BW_ssd1619/screen.c:666: }
      008EDA 02 A9 AC         [24] 4422 	ljmp	_memset
                                   4423 ;------------------------------------------------------------
                                   4424 ;Allocation info for local variables in function 'bufferByteShift'
                                   4425 ;------------------------------------------------------------
                                   4426 ;byte                      Allocated with name '_bufferByteShift_byte_65536_292'
                                   4427 ;offset                    Allocated with name '_bufferByteShift_offset_131072_295'
                                   4428 ;------------------------------------------------------------
                                   4429 ;	board/zbs29_BW_ssd1619/screen.c:667: static void bufferByteShift(uint8_t byte) {
                                   4430 ;	-----------------------------------------
                                   4431 ;	 function bufferByteShift
                                   4432 ;	-----------------------------------------
      008EDD                       4433 _bufferByteShift:
      008EDD E5 82            [12] 4434 	mov	a,dpl
      008EDF 90 E6 8E         [24] 4435 	mov	dptr,#_bufferByteShift_byte_65536_292
      008EE2 F0               [24] 4436 	movx	@dptr,a
                                   4437 ;	board/zbs29_BW_ssd1619/screen.c:675: if (rbuffer[1] == 0) {
      008EE3 90 E5 8B         [24] 4438 	mov	dptr,#(_rbuffer + 0x0001)
      008EE6 E0               [24] 4439 	movx	a,@dptr
      008EE7 FF               [12] 4440 	mov	r7,a
      008EE8 70 09            [24] 4441 	jnz	00104$
                                   4442 ;	board/zbs29_BW_ssd1619/screen.c:676: epdSend(byte);
      008EEA 90 E6 8E         [24] 4443 	mov	dptr,#_bufferByteShift_byte_65536_292
      008EED E0               [24] 4444 	movx	a,@dptr
      008EEE F5 82            [12] 4445 	mov	dpl,a
      008EF0 02 5C C3         [24] 4446 	ljmp	_spiTXByte
      008EF3                       4447 00104$:
                                   4448 ;	board/zbs29_BW_ssd1619/screen.c:679: rbuffer[0] |= (byte >> offset);
      008EF3 90 E5 8A         [24] 4449 	mov	dptr,#_rbuffer
      008EF6 E0               [24] 4450 	movx	a,@dptr
      008EF7 FE               [12] 4451 	mov	r6,a
      008EF8 90 E6 8E         [24] 4452 	mov	dptr,#_bufferByteShift_byte_65536_292
      008EFB E0               [24] 4453 	movx	a,@dptr
      008EFC FD               [12] 4454 	mov	r5,a
      008EFD 8F F0            [24] 4455 	mov	b,r7
      008EFF 05 F0            [12] 4456 	inc	b
      008F01 ED               [12] 4457 	mov	a,r5
      008F02 80 02            [24] 4458 	sjmp	00118$
      008F04                       4459 00117$:
      008F04 C3               [12] 4460 	clr	c
      008F05 13               [12] 4461 	rrc	a
      008F06                       4462 00118$:
      008F06 D5 F0 FB         [24] 4463 	djnz	b,00117$
      008F09 42 06            [12] 4464 	orl	ar6,a
      008F0B 90 E5 8A         [24] 4465 	mov	dptr,#_rbuffer
      008F0E EE               [12] 4466 	mov	a,r6
      008F0F F0               [24] 4467 	movx	@dptr,a
                                   4468 ;	board/zbs29_BW_ssd1619/screen.c:680: epdSend(rbuffer[0]);
      008F10 8E 82            [24] 4469 	mov	dpl,r6
      008F12 12 5C C3         [24] 4470 	lcall	_spiTXByte
                                   4471 ;	board/zbs29_BW_ssd1619/screen.c:682: rbuffer[0] = (byte << (8 - offset));
      008F15 74 08            [12] 4472 	mov	a,#0x08
      008F17 C3               [12] 4473 	clr	c
      008F18 9F               [12] 4474 	subb	a,r7
      008F19 FF               [12] 4475 	mov	r7,a
      008F1A 8F F0            [24] 4476 	mov	b,r7
      008F1C 05 F0            [12] 4477 	inc	b
      008F1E ED               [12] 4478 	mov	a,r5
      008F1F 80 02            [24] 4479 	sjmp	00121$
      008F21                       4480 00119$:
      008F21 25 E0            [12] 4481 	add	a,acc
      008F23                       4482 00121$:
      008F23 D5 F0 FB         [24] 4483 	djnz	b,00119$
      008F26 90 E5 8A         [24] 4484 	mov	dptr,#_rbuffer
      008F29 F0               [24] 4485 	movx	@dptr,a
                                   4486 ;	board/zbs29_BW_ssd1619/screen.c:683: rbuffer[2]++;
      008F2A 90 E5 8C         [24] 4487 	mov	dptr,#(_rbuffer + 0x0002)
      008F2D E0               [24] 4488 	movx	a,@dptr
      008F2E FF               [12] 4489 	mov	r7,a
      008F2F 0F               [12] 4490 	inc	r7
      008F30 90 E5 8C         [24] 4491 	mov	dptr,#(_rbuffer + 0x0002)
      008F33 EF               [12] 4492 	mov	a,r7
      008F34 F0               [24] 4493 	movx	@dptr,a
                                   4494 ;	board/zbs29_BW_ssd1619/screen.c:684: if (rbuffer[2] == rbuffer[3]) {
      008F35 90 E5 8D         [24] 4495 	mov	dptr,#(_rbuffer + 0x0003)
      008F38 E0               [24] 4496 	movx	a,@dptr
      008F39 FE               [12] 4497 	mov	r6,a
      008F3A EF               [12] 4498 	mov	a,r7
      008F3B B5 06 13         [24] 4499 	cjne	a,ar6,00106$
                                   4500 ;	board/zbs29_BW_ssd1619/screen.c:685: epdSend(rbuffer[0]);
      008F3E 90 E5 8A         [24] 4501 	mov	dptr,#_rbuffer
      008F41 E0               [24] 4502 	movx	a,@dptr
      008F42 FF               [12] 4503 	mov	r7,a
      008F43 F5 82            [12] 4504 	mov	dpl,a
      008F45 12 5C C3         [24] 4505 	lcall	_spiTXByte
                                   4506 ;	board/zbs29_BW_ssd1619/screen.c:686: rbuffer[0] = 0;
      008F48 90 E5 8A         [24] 4507 	mov	dptr,#_rbuffer
      008F4B E4               [12] 4508 	clr	a
      008F4C F0               [24] 4509 	movx	@dptr,a
                                   4510 ;	board/zbs29_BW_ssd1619/screen.c:687: rbuffer[2] = 0;
      008F4D 90 E5 8C         [24] 4511 	mov	dptr,#(_rbuffer + 0x0002)
      008F50 F0               [24] 4512 	movx	@dptr,a
      008F51                       4513 00106$:
                                   4514 ;	board/zbs29_BW_ssd1619/screen.c:690: }
      008F51 22               [24] 4515 	ret
                                   4516 ;------------------------------------------------------------
                                   4517 ;Allocation info for local variables in function 'pushYFontBytesToEPD'
                                   4518 ;------------------------------------------------------------
                                   4519 ;byte2                     Allocated with name '_pushYFontBytesToEPD_PARM_2'
                                   4520 ;byte1                     Allocated with name '_pushYFontBytesToEPD_byte1_65536_297'
                                   4521 ;j                         Allocated with name '_pushYFontBytesToEPD_j_196608_300'
                                   4522 ;c                         Allocated with name '_pushYFontBytesToEPD_c_262144_301'
                                   4523 ;i                         Allocated with name '_pushYFontBytesToEPD_i_327680_302'
                                   4524 ;i                         Allocated with name '_pushYFontBytesToEPD_i_327680_305'
                                   4525 ;------------------------------------------------------------
                                   4526 ;	board/zbs29_BW_ssd1619/screen.c:691: static void pushYFontBytesToEPD(uint8_t byte1, uint8_t byte2) {
                                   4527 ;	-----------------------------------------
                                   4528 ;	 function pushYFontBytesToEPD
                                   4529 ;	-----------------------------------------
      008F52                       4530 _pushYFontBytesToEPD:
      008F52 E5 82            [12] 4531 	mov	a,dpl
      008F54 90 E6 90         [24] 4532 	mov	dptr,#_pushYFontBytesToEPD_byte1_65536_297
      008F57 F0               [24] 4533 	movx	@dptr,a
                                   4534 ;	board/zbs29_BW_ssd1619/screen.c:692: if (epdCharSize == 2) {
      008F58 90 FD 0D         [24] 4535 	mov	dptr,#_epdCharSize
      008F5B E0               [24] 4536 	movx	a,@dptr
      008F5C FF               [12] 4537 	mov	r7,a
      008F5D BF 02 02         [24] 4538 	cjne	r7,#0x02,00184$
      008F60 80 03            [24] 4539 	sjmp	00185$
      008F62                       4540 00184$:
      008F62 02 90 54         [24] 4541 	ljmp	00113$
      008F65                       4542 00185$:
                                   4543 ;	board/zbs29_BW_ssd1619/screen.c:693: for (uint8_t j = 0; j < 2; j++) {
      008F65 90 E6 90         [24] 4544 	mov	dptr,#_pushYFontBytesToEPD_byte1_65536_297
      008F68 E0               [24] 4545 	movx	a,@dptr
      008F69 FF               [12] 4546 	mov	r7,a
      008F6A 90 E6 8F         [24] 4547 	mov	dptr,#_pushYFontBytesToEPD_PARM_2
      008F6D E0               [24] 4548 	movx	a,@dptr
      008F6E FE               [12] 4549 	mov	r6,a
      008F6F 7D 00            [12] 4550 	mov	r5,#0x00
      008F71                       4551 00122$:
      008F71 BD 02 00         [24] 4552 	cjne	r5,#0x02,00186$
      008F74                       4553 00186$:
      008F74 40 01            [24] 4554 	jc	00187$
      008F76 22               [24] 4555 	ret
      008F77                       4556 00187$:
                                   4557 ;	board/zbs29_BW_ssd1619/screen.c:694: uint8_t c = 0;
      008F77 90 E6 91         [24] 4558 	mov	dptr,#_pushYFontBytesToEPD_c_262144_301
      008F7A E4               [12] 4559 	clr	a
      008F7B F0               [24] 4560 	movx	@dptr,a
                                   4561 ;	board/zbs29_BW_ssd1619/screen.c:695: for (uint8_t i = 7; i != 255; i--) {
      008F7C 7C 07            [12] 4562 	mov	r4,#0x07
      008F7E                       4563 00116$:
      008F7E BC FF 02         [24] 4564 	cjne	r4,#0xff,00188$
      008F81 80 63            [24] 4565 	sjmp	00105$
      008F83                       4566 00188$:
                                   4567 ;	board/zbs29_BW_ssd1619/screen.c:696: if (byte1 & (1 << i)) c |= (0x03 << ((i % 4) * 2));
      008F83 8C F0            [24] 4568 	mov	b,r4
      008F85 05 F0            [12] 4569 	inc	b
      008F87 7A 01            [12] 4570 	mov	r2,#0x01
      008F89 7B 00            [12] 4571 	mov	r3,#0x00
      008F8B 80 06            [24] 4572 	sjmp	00190$
      008F8D                       4573 00189$:
      008F8D EA               [12] 4574 	mov	a,r2
      008F8E 2A               [12] 4575 	add	a,r2
      008F8F FA               [12] 4576 	mov	r2,a
      008F90 EB               [12] 4577 	mov	a,r3
      008F91 33               [12] 4578 	rlc	a
      008F92 FB               [12] 4579 	mov	r3,a
      008F93                       4580 00190$:
      008F93 D5 F0 F7         [24] 4581 	djnz	b,00189$
      008F96 8F 00            [24] 4582 	mov	ar0,r7
      008F98 79 00            [12] 4583 	mov	r1,#0x00
      008F9A E8               [12] 4584 	mov	a,r0
      008F9B 52 02            [12] 4585 	anl	ar2,a
      008F9D E9               [12] 4586 	mov	a,r1
      008F9E 52 03            [12] 4587 	anl	ar3,a
      008FA0 EA               [12] 4588 	mov	a,r2
      008FA1 4B               [12] 4589 	orl	a,r3
      008FA2 60 1A            [24] 4590 	jz	00102$
      008FA4 74 03            [12] 4591 	mov	a,#0x03
      008FA6 5C               [12] 4592 	anl	a,r4
      008FA7 25 E0            [12] 4593 	add	a,acc
      008FA9 FB               [12] 4594 	mov	r3,a
      008FAA 8B F0            [24] 4595 	mov	b,r3
      008FAC 05 F0            [12] 4596 	inc	b
      008FAE 74 03            [12] 4597 	mov	a,#0x03
      008FB0 80 02            [24] 4598 	sjmp	00194$
      008FB2                       4599 00192$:
      008FB2 25 E0            [12] 4600 	add	a,acc
      008FB4                       4601 00194$:
      008FB4 D5 F0 FB         [24] 4602 	djnz	b,00192$
      008FB7 FB               [12] 4603 	mov	r3,a
      008FB8 90 E6 91         [24] 4604 	mov	dptr,#_pushYFontBytesToEPD_c_262144_301
      008FBB E0               [24] 4605 	movx	a,@dptr
      008FBC 4B               [12] 4606 	orl	a,r3
      008FBD F0               [24] 4607 	movx	@dptr,a
      008FBE                       4608 00102$:
                                   4609 ;	board/zbs29_BW_ssd1619/screen.c:697: if ((i % 4) == 0) {
      008FBE EC               [12] 4610 	mov	a,r4
      008FBF 54 03            [12] 4611 	anl	a,#0x03
      008FC1 60 02            [24] 4612 	jz	00196$
      008FC3 80 1E            [24] 4613 	sjmp	00117$
      008FC5                       4614 00196$:
                                   4615 ;	board/zbs29_BW_ssd1619/screen.c:698: bufferByteShift(c);
      008FC5 90 E6 91         [24] 4616 	mov	dptr,#_pushYFontBytesToEPD_c_262144_301
      008FC8 E0               [24] 4617 	movx	a,@dptr
      008FC9 F5 82            [12] 4618 	mov	dpl,a
      008FCB C0 07            [24] 4619 	push	ar7
      008FCD C0 06            [24] 4620 	push	ar6
      008FCF C0 05            [24] 4621 	push	ar5
      008FD1 C0 04            [24] 4622 	push	ar4
      008FD3 12 8E DD         [24] 4623 	lcall	_bufferByteShift
      008FD6 D0 04            [24] 4624 	pop	ar4
      008FD8 D0 05            [24] 4625 	pop	ar5
      008FDA D0 06            [24] 4626 	pop	ar6
      008FDC D0 07            [24] 4627 	pop	ar7
                                   4628 ;	board/zbs29_BW_ssd1619/screen.c:699: c = 0;
      008FDE 90 E6 91         [24] 4629 	mov	dptr,#_pushYFontBytesToEPD_c_262144_301
      008FE1 E4               [12] 4630 	clr	a
      008FE2 F0               [24] 4631 	movx	@dptr,a
      008FE3                       4632 00117$:
                                   4633 ;	board/zbs29_BW_ssd1619/screen.c:695: for (uint8_t i = 7; i != 255; i--) {
      008FE3 1C               [12] 4634 	dec	r4
      008FE4 80 98            [24] 4635 	sjmp	00116$
      008FE6                       4636 00105$:
                                   4637 ;	board/zbs29_BW_ssd1619/screen.c:702: for (uint8_t i = 7; i != 255; i--) {
      008FE6 7C 07            [12] 4638 	mov	r4,#0x07
      008FE8                       4639 00119$:
      008FE8 BC FF 02         [24] 4640 	cjne	r4,#0xff,00197$
      008FEB 80 63            [24] 4641 	sjmp	00123$
      008FED                       4642 00197$:
                                   4643 ;	board/zbs29_BW_ssd1619/screen.c:703: if (byte2 & (1 << i)) c |= (0x03 << ((i % 4) * 2));
      008FED 8C F0            [24] 4644 	mov	b,r4
      008FEF 05 F0            [12] 4645 	inc	b
      008FF1 7A 01            [12] 4646 	mov	r2,#0x01
      008FF3 7B 00            [12] 4647 	mov	r3,#0x00
      008FF5 80 06            [24] 4648 	sjmp	00199$
      008FF7                       4649 00198$:
      008FF7 EA               [12] 4650 	mov	a,r2
      008FF8 2A               [12] 4651 	add	a,r2
      008FF9 FA               [12] 4652 	mov	r2,a
      008FFA EB               [12] 4653 	mov	a,r3
      008FFB 33               [12] 4654 	rlc	a
      008FFC FB               [12] 4655 	mov	r3,a
      008FFD                       4656 00199$:
      008FFD D5 F0 F7         [24] 4657 	djnz	b,00198$
      009000 8E 00            [24] 4658 	mov	ar0,r6
      009002 79 00            [12] 4659 	mov	r1,#0x00
      009004 E8               [12] 4660 	mov	a,r0
      009005 52 02            [12] 4661 	anl	ar2,a
      009007 E9               [12] 4662 	mov	a,r1
      009008 52 03            [12] 4663 	anl	ar3,a
      00900A EA               [12] 4664 	mov	a,r2
      00900B 4B               [12] 4665 	orl	a,r3
      00900C 60 1A            [24] 4666 	jz	00107$
      00900E 74 03            [12] 4667 	mov	a,#0x03
      009010 5C               [12] 4668 	anl	a,r4
      009011 25 E0            [12] 4669 	add	a,acc
      009013 FB               [12] 4670 	mov	r3,a
      009014 8B F0            [24] 4671 	mov	b,r3
      009016 05 F0            [12] 4672 	inc	b
      009018 74 03            [12] 4673 	mov	a,#0x03
      00901A 80 02            [24] 4674 	sjmp	00203$
      00901C                       4675 00201$:
      00901C 25 E0            [12] 4676 	add	a,acc
      00901E                       4677 00203$:
      00901E D5 F0 FB         [24] 4678 	djnz	b,00201$
      009021 FB               [12] 4679 	mov	r3,a
      009022 90 E6 91         [24] 4680 	mov	dptr,#_pushYFontBytesToEPD_c_262144_301
      009025 E0               [24] 4681 	movx	a,@dptr
      009026 4B               [12] 4682 	orl	a,r3
      009027 F0               [24] 4683 	movx	@dptr,a
      009028                       4684 00107$:
                                   4685 ;	board/zbs29_BW_ssd1619/screen.c:704: if ((i % 4) == 0) {
      009028 EC               [12] 4686 	mov	a,r4
      009029 54 03            [12] 4687 	anl	a,#0x03
      00902B 60 02            [24] 4688 	jz	00205$
      00902D 80 1E            [24] 4689 	sjmp	00120$
      00902F                       4690 00205$:
                                   4691 ;	board/zbs29_BW_ssd1619/screen.c:705: bufferByteShift(c);
      00902F 90 E6 91         [24] 4692 	mov	dptr,#_pushYFontBytesToEPD_c_262144_301
      009032 E0               [24] 4693 	movx	a,@dptr
      009033 F5 82            [12] 4694 	mov	dpl,a
      009035 C0 07            [24] 4695 	push	ar7
      009037 C0 06            [24] 4696 	push	ar6
      009039 C0 05            [24] 4697 	push	ar5
      00903B C0 04            [24] 4698 	push	ar4
      00903D 12 8E DD         [24] 4699 	lcall	_bufferByteShift
      009040 D0 04            [24] 4700 	pop	ar4
      009042 D0 05            [24] 4701 	pop	ar5
      009044 D0 06            [24] 4702 	pop	ar6
      009046 D0 07            [24] 4703 	pop	ar7
                                   4704 ;	board/zbs29_BW_ssd1619/screen.c:706: c = 0;
      009048 90 E6 91         [24] 4705 	mov	dptr,#_pushYFontBytesToEPD_c_262144_301
      00904B E4               [12] 4706 	clr	a
      00904C F0               [24] 4707 	movx	@dptr,a
      00904D                       4708 00120$:
                                   4709 ;	board/zbs29_BW_ssd1619/screen.c:702: for (uint8_t i = 7; i != 255; i--) {
      00904D 1C               [12] 4710 	dec	r4
      00904E 80 98            [24] 4711 	sjmp	00119$
      009050                       4712 00123$:
                                   4713 ;	board/zbs29_BW_ssd1619/screen.c:693: for (uint8_t j = 0; j < 2; j++) {
      009050 0D               [12] 4714 	inc	r5
      009051 02 8F 71         [24] 4715 	ljmp	00122$
      009054                       4716 00113$:
                                   4717 ;	board/zbs29_BW_ssd1619/screen.c:711: bufferByteShift(byte1);
      009054 90 E6 90         [24] 4718 	mov	dptr,#_pushYFontBytesToEPD_byte1_65536_297
      009057 E0               [24] 4719 	movx	a,@dptr
      009058 F5 82            [12] 4720 	mov	dpl,a
      00905A 12 8E DD         [24] 4721 	lcall	_bufferByteShift
                                   4722 ;	board/zbs29_BW_ssd1619/screen.c:712: bufferByteShift(byte2);
      00905D 90 E6 8F         [24] 4723 	mov	dptr,#_pushYFontBytesToEPD_PARM_2
      009060 E0               [24] 4724 	movx	a,@dptr
      009061 F5 82            [12] 4725 	mov	dpl,a
                                   4726 ;	board/zbs29_BW_ssd1619/screen.c:714: }
      009063 02 8E DD         [24] 4727 	ljmp	_bufferByteShift
                                   4728 ;------------------------------------------------------------
                                   4729 ;Allocation info for local variables in function 'writeCharEPD'
                                   4730 ;------------------------------------------------------------
                                   4731 ;c                         Allocated with name '_writeCharEPD_c_65536_309'
                                   4732 ;empty                     Allocated with name '_writeCharEPD_empty_65536_310'
                                   4733 ;i                         Allocated with name '_writeCharEPD_i_131072_311'
                                   4734 ;i                         Allocated with name '_writeCharEPD_i_196608_314'
                                   4735 ;begin                     Allocated with name '_writeCharEPD_begin_65537_318'
                                   4736 ;end                       Allocated with name '_writeCharEPD_end_65538_320'
                                   4737 ;pos                       Allocated with name '_writeCharEPD_pos_131074_322'
                                   4738 ;------------------------------------------------------------
                                   4739 ;	board/zbs29_BW_ssd1619/screen.c:715: void writeCharEPD(uint8_t c) {
                                   4740 ;	-----------------------------------------
                                   4741 ;	 function writeCharEPD
                                   4742 ;	-----------------------------------------
      009066                       4743 _writeCharEPD:
      009066 E5 82            [12] 4744 	mov	a,dpl
      009068 90 E6 92         [24] 4745 	mov	dptr,#_writeCharEPD_c_65536_309
      00906B F0               [24] 4746 	movx	@dptr,a
                                   4747 ;	board/zbs29_BW_ssd1619/screen.c:717: bool empty = true;
      00906C 90 E6 93         [24] 4748 	mov	dptr,#_writeCharEPD_empty_65536_310
      00906F 74 01            [12] 4749 	mov	a,#0x01
      009071 F0               [24] 4750 	movx	@dptr,a
                                   4751 ;	board/zbs29_BW_ssd1619/screen.c:718: for (uint8_t i = 0; i < 20; i++) {
      009072 90 E6 92         [24] 4752 	mov	dptr,#_writeCharEPD_c_65536_309
      009075 E0               [24] 4753 	movx	a,@dptr
      009076 75 F0 14         [24] 4754 	mov	b,#0x14
      009079 A4               [48] 4755 	mul	ab
      00907A 24 29            [12] 4756 	add	a,#_font
      00907C FE               [12] 4757 	mov	r6,a
      00907D 74 C2            [12] 4758 	mov	a,#(_font >> 8)
      00907F 35 F0            [12] 4759 	addc	a,b
      009081 FF               [12] 4760 	mov	r7,a
      009082 7D 00            [12] 4761 	mov	r5,#0x00
      009084                       4762 00126$:
      009084 BD 14 00         [24] 4763 	cjne	r5,#0x14,00206$
      009087                       4764 00206$:
      009087 50 16            [24] 4765 	jnc	00103$
                                   4766 ;	board/zbs29_BW_ssd1619/screen.c:719: if (font[c][i]) empty = false;
      009089 ED               [12] 4767 	mov	a,r5
      00908A 2E               [12] 4768 	add	a,r6
      00908B FB               [12] 4769 	mov	r3,a
      00908C E4               [12] 4770 	clr	a
      00908D 3F               [12] 4771 	addc	a,r7
      00908E FC               [12] 4772 	mov	r4,a
      00908F 8B 82            [24] 4773 	mov	dpl,r3
      009091 8C 83            [24] 4774 	mov	dph,r4
      009093 E4               [12] 4775 	clr	a
      009094 93               [24] 4776 	movc	a,@a+dptr
      009095 60 05            [24] 4777 	jz	00127$
      009097 90 E6 93         [24] 4778 	mov	dptr,#_writeCharEPD_empty_65536_310
      00909A E4               [12] 4779 	clr	a
      00909B F0               [24] 4780 	movx	@dptr,a
      00909C                       4781 00127$:
                                   4782 ;	board/zbs29_BW_ssd1619/screen.c:718: for (uint8_t i = 0; i < 20; i++) {
      00909C 0D               [12] 4783 	inc	r5
      00909D 80 E5            [24] 4784 	sjmp	00126$
      00909F                       4785 00103$:
                                   4786 ;	board/zbs29_BW_ssd1619/screen.c:721: if (empty) {
      00909F 90 E6 93         [24] 4787 	mov	dptr,#_writeCharEPD_empty_65536_310
      0090A2 E0               [24] 4788 	movx	a,@dptr
      0090A3 60 31            [24] 4789 	jz	00109$
                                   4790 ;	board/zbs29_BW_ssd1619/screen.c:722: for (uint8_t i = 0; i < 8; i++) {
      0090A5 7F 00            [12] 4791 	mov	r7,#0x00
      0090A7                       4792 00129$:
      0090A7 BF 08 00         [24] 4793 	cjne	r7,#0x08,00210$
      0090AA                       4794 00210$:
      0090AA 50 29            [24] 4795 	jnc	00107$
                                   4796 ;	board/zbs29_BW_ssd1619/screen.c:723: if (directionY) {
      0090AC 90 FD 0E         [24] 4797 	mov	dptr,#_directionY
      0090AF E0               [24] 4798 	movx	a,@dptr
      0090B0 60 11            [24] 4799 	jz	00105$
                                   4800 ;	board/zbs29_BW_ssd1619/screen.c:724: pushYFontBytesToEPD(0x00, 0x00);
      0090B2 90 E6 8F         [24] 4801 	mov	dptr,#_pushYFontBytesToEPD_PARM_2
      0090B5 E4               [12] 4802 	clr	a
      0090B6 F0               [24] 4803 	movx	@dptr,a
      0090B7 75 82 00         [24] 4804 	mov	dpl,#0x00
      0090BA C0 07            [24] 4805 	push	ar7
      0090BC 12 8F 52         [24] 4806 	lcall	_pushYFontBytesToEPD
      0090BF D0 07            [24] 4807 	pop	ar7
      0090C1 80 0F            [24] 4808 	sjmp	00130$
      0090C3                       4809 00105$:
                                   4810 ;	board/zbs29_BW_ssd1619/screen.c:726: pushXFontBytesToEPD(0x00, 0x00);
      0090C3 90 E6 8A         [24] 4811 	mov	dptr,#_pushXFontBytesToEPD_PARM_2
      0090C6 E4               [12] 4812 	clr	a
      0090C7 F0               [24] 4813 	movx	@dptr,a
      0090C8 75 82 00         [24] 4814 	mov	dpl,#0x00
      0090CB C0 07            [24] 4815 	push	ar7
      0090CD 12 8C 3D         [24] 4816 	lcall	_pushXFontBytesToEPD
      0090D0 D0 07            [24] 4817 	pop	ar7
      0090D2                       4818 00130$:
                                   4819 ;	board/zbs29_BW_ssd1619/screen.c:722: for (uint8_t i = 0; i < 8; i++) {
      0090D2 0F               [12] 4820 	inc	r7
      0090D3 80 D2            [24] 4821 	sjmp	00129$
      0090D5                       4822 00107$:
                                   4823 ;	board/zbs29_BW_ssd1619/screen.c:729: return;
      0090D5 22               [24] 4824 	ret
      0090D6                       4825 00109$:
                                   4826 ;	board/zbs29_BW_ssd1619/screen.c:732: uint8_t begin = 0;
      0090D6 90 E6 94         [24] 4827 	mov	dptr,#_writeCharEPD_begin_65537_318
      0090D9 E4               [12] 4828 	clr	a
      0090DA F0               [24] 4829 	movx	@dptr,a
                                   4830 ;	board/zbs29_BW_ssd1619/screen.c:733: while (font[c][begin] == 0x00 && font[c][begin + 1] == 0x00) {
      0090DB 90 E6 92         [24] 4831 	mov	dptr,#_writeCharEPD_c_65536_309
      0090DE E0               [24] 4832 	movx	a,@dptr
      0090DF 75 F0 14         [24] 4833 	mov	b,#0x14
      0090E2 A4               [48] 4834 	mul	ab
      0090E3 FE               [12] 4835 	mov	r6,a
      0090E4 AF F0            [24] 4836 	mov	r7,b
      0090E6 24 29            [12] 4837 	add	a,#_font
      0090E8 FC               [12] 4838 	mov	r4,a
      0090E9 EF               [12] 4839 	mov	a,r7
      0090EA 34 C2            [12] 4840 	addc	a,#(_font >> 8)
      0090EC FD               [12] 4841 	mov	r5,a
      0090ED                       4842 00111$:
      0090ED 90 E6 94         [24] 4843 	mov	dptr,#_writeCharEPD_begin_65537_318
      0090F0 E0               [24] 4844 	movx	a,@dptr
      0090F1 FB               [12] 4845 	mov	r3,a
      0090F2 2C               [12] 4846 	add	a,r4
      0090F3 F9               [12] 4847 	mov	r1,a
      0090F4 E4               [12] 4848 	clr	a
      0090F5 3D               [12] 4849 	addc	a,r5
      0090F6 FA               [12] 4850 	mov	r2,a
      0090F7 89 82            [24] 4851 	mov	dpl,r1
      0090F9 8A 83            [24] 4852 	mov	dph,r2
      0090FB E4               [12] 4853 	clr	a
      0090FC 93               [24] 4854 	movc	a,@a+dptr
      0090FD 70 20            [24] 4855 	jnz	00113$
      0090FF EE               [12] 4856 	mov	a,r6
      009100 24 29            [12] 4857 	add	a,#_font
      009102 F9               [12] 4858 	mov	r1,a
      009103 EF               [12] 4859 	mov	a,r7
      009104 34 C2            [12] 4860 	addc	a,#(_font >> 8)
      009106 FA               [12] 4861 	mov	r2,a
      009107 EB               [12] 4862 	mov	a,r3
      009108 04               [12] 4863 	inc	a
      009109 29               [12] 4864 	add	a,r1
      00910A F9               [12] 4865 	mov	r1,a
      00910B E4               [12] 4866 	clr	a
      00910C 3A               [12] 4867 	addc	a,r2
      00910D FA               [12] 4868 	mov	r2,a
      00910E 89 82            [24] 4869 	mov	dpl,r1
      009110 8A 83            [24] 4870 	mov	dph,r2
      009112 E4               [12] 4871 	clr	a
      009113 93               [24] 4872 	movc	a,@a+dptr
      009114 70 09            [24] 4873 	jnz	00113$
                                   4874 ;	board/zbs29_BW_ssd1619/screen.c:734: begin += 2;
      009116 90 E6 94         [24] 4875 	mov	dptr,#_writeCharEPD_begin_65537_318
      009119 74 02            [12] 4876 	mov	a,#0x02
      00911B 2B               [12] 4877 	add	a,r3
      00911C F0               [24] 4878 	movx	@dptr,a
      00911D 80 CE            [24] 4879 	sjmp	00111$
      00911F                       4880 00113$:
                                   4881 ;	board/zbs29_BW_ssd1619/screen.c:737: uint8_t end = 20;
      00911F 90 E6 95         [24] 4882 	mov	dptr,#_writeCharEPD_end_65538_320
      009122 74 14            [12] 4883 	mov	a,#0x14
      009124 F0               [24] 4884 	movx	@dptr,a
                                   4885 ;	board/zbs29_BW_ssd1619/screen.c:738: while (font[c][end - 1] == 0x00 && font[c][end - 2] == 0x00) {
      009125 90 E6 92         [24] 4886 	mov	dptr,#_writeCharEPD_c_65536_309
      009128 E0               [24] 4887 	movx	a,@dptr
      009129 75 F0 14         [24] 4888 	mov	b,#0x14
      00912C A4               [48] 4889 	mul	ab
      00912D FE               [12] 4890 	mov	r6,a
      00912E AF F0            [24] 4891 	mov	r7,b
      009130 24 29            [12] 4892 	add	a,#_font
      009132 FC               [12] 4893 	mov	r4,a
      009133 EF               [12] 4894 	mov	a,r7
      009134 34 C2            [12] 4895 	addc	a,#(_font >> 8)
      009136 FD               [12] 4896 	mov	r5,a
      009137                       4897 00115$:
      009137 90 E6 95         [24] 4898 	mov	dptr,#_writeCharEPD_end_65538_320
      00913A E0               [24] 4899 	movx	a,@dptr
      00913B FB               [12] 4900 	mov	r3,a
      00913C 14               [12] 4901 	dec	a
      00913D 2C               [12] 4902 	add	a,r4
      00913E F9               [12] 4903 	mov	r1,a
      00913F E4               [12] 4904 	clr	a
      009140 3D               [12] 4905 	addc	a,r5
      009141 FA               [12] 4906 	mov	r2,a
      009142 89 82            [24] 4907 	mov	dpl,r1
      009144 8A 83            [24] 4908 	mov	dph,r2
      009146 E4               [12] 4909 	clr	a
      009147 93               [24] 4910 	movc	a,@a+dptr
      009148 70 21            [24] 4911 	jnz	00117$
      00914A EE               [12] 4912 	mov	a,r6
      00914B 24 29            [12] 4913 	add	a,#_font
      00914D F9               [12] 4914 	mov	r1,a
      00914E EF               [12] 4915 	mov	a,r7
      00914F 34 C2            [12] 4916 	addc	a,#(_font >> 8)
      009151 FA               [12] 4917 	mov	r2,a
      009152 EB               [12] 4918 	mov	a,r3
      009153 24 FE            [12] 4919 	add	a,#0xfe
      009155 29               [12] 4920 	add	a,r1
      009156 F9               [12] 4921 	mov	r1,a
      009157 E4               [12] 4922 	clr	a
      009158 3A               [12] 4923 	addc	a,r2
      009159 FA               [12] 4924 	mov	r2,a
      00915A 89 82            [24] 4925 	mov	dpl,r1
      00915C 8A 83            [24] 4926 	mov	dph,r2
      00915E E4               [12] 4927 	clr	a
      00915F 93               [24] 4928 	movc	a,@a+dptr
      009160 70 09            [24] 4929 	jnz	00117$
                                   4930 ;	board/zbs29_BW_ssd1619/screen.c:739: end -= 2;
      009162 EB               [12] 4931 	mov	a,r3
      009163 24 FE            [12] 4932 	add	a,#0xfe
      009165 90 E6 95         [24] 4933 	mov	dptr,#_writeCharEPD_end_65538_320
      009168 F0               [24] 4934 	movx	@dptr,a
      009169 80 CC            [24] 4935 	sjmp	00115$
      00916B                       4936 00117$:
                                   4937 ;	board/zbs29_BW_ssd1619/screen.c:742: for (uint8_t pos = begin; pos < end; pos += 2) {
      00916B 90 E6 94         [24] 4938 	mov	dptr,#_writeCharEPD_begin_65537_318
      00916E E0               [24] 4939 	movx	a,@dptr
      00916F 90 E6 96         [24] 4940 	mov	dptr,#_writeCharEPD_pos_131074_322
      009172 F0               [24] 4941 	movx	@dptr,a
      009173 90 E6 92         [24] 4942 	mov	dptr,#_writeCharEPD_c_65536_309
      009176 E0               [24] 4943 	movx	a,@dptr
      009177 75 F0 14         [24] 4944 	mov	b,#0x14
      00917A A4               [48] 4945 	mul	ab
      00917B 24 29            [12] 4946 	add	a,#_font
      00917D FE               [12] 4947 	mov	r6,a
      00917E 74 C2            [12] 4948 	mov	a,#(_font >> 8)
      009180 35 F0            [12] 4949 	addc	a,b
      009182 FF               [12] 4950 	mov	r7,a
      009183 8E 04            [24] 4951 	mov	ar4,r6
      009185 8F 05            [24] 4952 	mov	ar5,r7
      009187 90 E6 95         [24] 4953 	mov	dptr,#_writeCharEPD_end_65538_320
      00918A E0               [24] 4954 	movx	a,@dptr
      00918B FB               [12] 4955 	mov	r3,a
      00918C                       4956 00132$:
      00918C 90 E6 96         [24] 4957 	mov	dptr,#_writeCharEPD_pos_131074_322
      00918F E0               [24] 4958 	movx	a,@dptr
      009190 FA               [12] 4959 	mov	r2,a
      009191 C3               [12] 4960 	clr	c
      009192 9B               [12] 4961 	subb	a,r3
      009193 50 7B            [24] 4962 	jnc	00121$
                                   4963 ;	board/zbs29_BW_ssd1619/screen.c:743: if (directionY) {
      009195 90 FD 0E         [24] 4964 	mov	dptr,#_directionY
      009198 E0               [24] 4965 	movx	a,@dptr
      009199 60 37            [24] 4966 	jz	00119$
                                   4967 ;	board/zbs29_BW_ssd1619/screen.c:744: pushYFontBytesToEPD(font[c][pos + 1], font[c][pos]);
      00919B 8A 01            [24] 4968 	mov	ar1,r2
      00919D E9               [12] 4969 	mov	a,r1
      00919E 04               [12] 4970 	inc	a
      00919F 2C               [12] 4971 	add	a,r4
      0091A0 F5 82            [12] 4972 	mov	dpl,a
      0091A2 E4               [12] 4973 	clr	a
      0091A3 3D               [12] 4974 	addc	a,r5
      0091A4 F5 83            [12] 4975 	mov	dph,a
      0091A6 E4               [12] 4976 	clr	a
      0091A7 93               [24] 4977 	movc	a,@a+dptr
      0091A8 F9               [12] 4978 	mov	r1,a
      0091A9 EA               [12] 4979 	mov	a,r2
      0091AA 2C               [12] 4980 	add	a,r4
      0091AB F5 82            [12] 4981 	mov	dpl,a
      0091AD E4               [12] 4982 	clr	a
      0091AE 3D               [12] 4983 	addc	a,r5
      0091AF F5 83            [12] 4984 	mov	dph,a
      0091B1 E4               [12] 4985 	clr	a
      0091B2 93               [24] 4986 	movc	a,@a+dptr
      0091B3 90 E6 8F         [24] 4987 	mov	dptr,#_pushYFontBytesToEPD_PARM_2
      0091B6 F0               [24] 4988 	movx	@dptr,a
      0091B7 89 82            [24] 4989 	mov	dpl,r1
      0091B9 C0 07            [24] 4990 	push	ar7
      0091BB C0 06            [24] 4991 	push	ar6
      0091BD C0 05            [24] 4992 	push	ar5
      0091BF C0 04            [24] 4993 	push	ar4
      0091C1 C0 03            [24] 4994 	push	ar3
      0091C3 12 8F 52         [24] 4995 	lcall	_pushYFontBytesToEPD
      0091C6 D0 03            [24] 4996 	pop	ar3
      0091C8 D0 04            [24] 4997 	pop	ar4
      0091CA D0 05            [24] 4998 	pop	ar5
      0091CC D0 06            [24] 4999 	pop	ar6
      0091CE D0 07            [24] 5000 	pop	ar7
      0091D0 80 33            [24] 5001 	sjmp	00133$
      0091D2                       5002 00119$:
                                   5003 ;	board/zbs29_BW_ssd1619/screen.c:746: pushXFontBytesToEPD(font[c][pos], font[c][pos + 1]);
      0091D2 EA               [12] 5004 	mov	a,r2
      0091D3 2E               [12] 5005 	add	a,r6
      0091D4 F5 82            [12] 5006 	mov	dpl,a
      0091D6 E4               [12] 5007 	clr	a
      0091D7 3F               [12] 5008 	addc	a,r7
      0091D8 F5 83            [12] 5009 	mov	dph,a
      0091DA E4               [12] 5010 	clr	a
      0091DB 93               [24] 5011 	movc	a,@a+dptr
      0091DC F9               [12] 5012 	mov	r1,a
      0091DD EA               [12] 5013 	mov	a,r2
      0091DE 04               [12] 5014 	inc	a
      0091DF 2E               [12] 5015 	add	a,r6
      0091E0 F5 82            [12] 5016 	mov	dpl,a
      0091E2 E4               [12] 5017 	clr	a
      0091E3 3F               [12] 5018 	addc	a,r7
      0091E4 F5 83            [12] 5019 	mov	dph,a
      0091E6 E4               [12] 5020 	clr	a
      0091E7 93               [24] 5021 	movc	a,@a+dptr
      0091E8 90 E6 8A         [24] 5022 	mov	dptr,#_pushXFontBytesToEPD_PARM_2
      0091EB F0               [24] 5023 	movx	@dptr,a
      0091EC 89 82            [24] 5024 	mov	dpl,r1
      0091EE C0 07            [24] 5025 	push	ar7
      0091F0 C0 06            [24] 5026 	push	ar6
      0091F2 C0 05            [24] 5027 	push	ar5
      0091F4 C0 04            [24] 5028 	push	ar4
      0091F6 C0 03            [24] 5029 	push	ar3
      0091F8 12 8C 3D         [24] 5030 	lcall	_pushXFontBytesToEPD
      0091FB D0 03            [24] 5031 	pop	ar3
      0091FD D0 04            [24] 5032 	pop	ar4
      0091FF D0 05            [24] 5033 	pop	ar5
      009201 D0 06            [24] 5034 	pop	ar6
      009203 D0 07            [24] 5035 	pop	ar7
      009205                       5036 00133$:
                                   5037 ;	board/zbs29_BW_ssd1619/screen.c:742: for (uint8_t pos = begin; pos < end; pos += 2) {
      009205 90 E6 96         [24] 5038 	mov	dptr,#_writeCharEPD_pos_131074_322
      009208 E0               [24] 5039 	movx	a,@dptr
      009209 FA               [12] 5040 	mov	r2,a
      00920A 24 02            [12] 5041 	add	a,#0x02
      00920C F0               [24] 5042 	movx	@dptr,a
      00920D 02 91 8C         [24] 5043 	ljmp	00132$
      009210                       5044 00121$:
                                   5045 ;	board/zbs29_BW_ssd1619/screen.c:751: if (directionY) {
      009210 90 FD 0E         [24] 5046 	mov	dptr,#_directionY
      009213 E0               [24] 5047 	movx	a,@dptr
      009214 60 0B            [24] 5048 	jz	00123$
                                   5049 ;	board/zbs29_BW_ssd1619/screen.c:752: pushYFontBytesToEPD(0x00, 0x00);
      009216 90 E6 8F         [24] 5050 	mov	dptr,#_pushYFontBytesToEPD_PARM_2
      009219 E4               [12] 5051 	clr	a
      00921A F0               [24] 5052 	movx	@dptr,a
      00921B 75 82 00         [24] 5053 	mov	dpl,#0x00
      00921E 02 8F 52         [24] 5054 	ljmp	_pushYFontBytesToEPD
      009221                       5055 00123$:
                                   5056 ;	board/zbs29_BW_ssd1619/screen.c:754: pushXFontBytesToEPD(0x00, 0x00);
      009221 90 E6 8A         [24] 5057 	mov	dptr,#_pushXFontBytesToEPD_PARM_2
      009224 E4               [12] 5058 	clr	a
      009225 F0               [24] 5059 	movx	@dptr,a
      009226 75 82 00         [24] 5060 	mov	dpl,#0x00
                                   5061 ;	board/zbs29_BW_ssd1619/screen.c:756: }
      009229 02 8C 3D         [24] 5062 	ljmp	_pushXFontBytesToEPD
                                   5063 ;------------------------------------------------------------
                                   5064 ;Allocation info for local variables in function 'epdPrintBegin'
                                   5065 ;------------------------------------------------------------
                                   5066 ;sloc0                     Allocated with name '_epdPrintBegin_sloc0_1_0'
                                   5067 ;y                         Allocated with name '_epdPrintBegin_PARM_2'
                                   5068 ;direction                 Allocated with name '_epdPrintBegin_PARM_3'
                                   5069 ;fontsize                  Allocated with name '_epdPrintBegin_PARM_4'
                                   5070 ;color                     Allocated with name '_epdPrintBegin_PARM_5'
                                   5071 ;x                         Allocated with name '_epdPrintBegin_x_65536_328'
                                   5072 ;extra                     Allocated with name '_epdPrintBegin_extra_131072_330'
                                   5073 ;------------------------------------------------------------
                                   5074 ;	board/zbs29_BW_ssd1619/screen.c:759: void epdPrintBegin(uint16_t x, uint16_t y, bool direction, bool fontsize, bool color) {
                                   5075 ;	-----------------------------------------
                                   5076 ;	 function epdPrintBegin
                                   5077 ;	-----------------------------------------
      00922C                       5078 _epdPrintBegin:
      00922C AF 83            [24] 5079 	mov	r7,dph
      00922E E5 82            [12] 5080 	mov	a,dpl
      009230 90 E6 9C         [24] 5081 	mov	dptr,#_epdPrintBegin_x_65536_328
      009233 F0               [24] 5082 	movx	@dptr,a
      009234 EF               [12] 5083 	mov	a,r7
      009235 A3               [24] 5084 	inc	dptr
      009236 F0               [24] 5085 	movx	@dptr,a
                                   5086 ;	board/zbs29_BW_ssd1619/screen.c:760: directionY = direction;
      009237 90 E6 99         [24] 5087 	mov	dptr,#_epdPrintBegin_PARM_3
      00923A E0               [24] 5088 	movx	a,@dptr
      00923B FF               [12] 5089 	mov	r7,a
      00923C 90 FD 0E         [24] 5090 	mov	dptr,#_directionY
      00923F F0               [24] 5091 	movx	@dptr,a
                                   5092 ;	board/zbs29_BW_ssd1619/screen.c:761: epdCharSize = 1 + fontsize;
      009240 90 E6 9A         [24] 5093 	mov	dptr,#_epdPrintBegin_PARM_4
      009243 E0               [24] 5094 	movx	a,@dptr
      009244 FE               [12] 5095 	mov	r6,a
      009245 0E               [12] 5096 	inc	r6
      009246 90 FD 0D         [24] 5097 	mov	dptr,#_epdCharSize
      009249 EE               [12] 5098 	mov	a,r6
      00924A F0               [24] 5099 	movx	@dptr,a
                                   5100 ;	board/zbs29_BW_ssd1619/screen.c:762: if (directionY) {
      00924B EF               [12] 5101 	mov	a,r7
      00924C 70 03            [24] 5102 	jnz	00138$
      00924E 02 93 66         [24] 5103 	ljmp	00111$
      009251                       5104 00138$:
                                   5105 ;	board/zbs29_BW_ssd1619/screen.c:763: uint8_t extra = 0;
      009251 90 E6 9E         [24] 5106 	mov	dptr,#_epdPrintBegin_extra_131072_330
      009254 E4               [12] 5107 	clr	a
      009255 F0               [24] 5108 	movx	@dptr,a
                                   5109 ;	board/zbs29_BW_ssd1619/screen.c:766: if (x % 8) {
      009256 90 E6 9C         [24] 5110 	mov	dptr,#_epdPrintBegin_x_65536_328
      009259 E0               [24] 5111 	movx	a,@dptr
      00925A FD               [12] 5112 	mov	r5,a
      00925B A3               [24] 5113 	inc	dptr
      00925C E0               [24] 5114 	movx	a,@dptr
      00925D 53 05 07         [24] 5115 	anl	ar5,#0x07
      009260 7F 00            [12] 5116 	mov	r7,#0x00
      009262 ED               [12] 5117 	mov	a,r5
      009263 4F               [12] 5118 	orl	a,r7
      009264 60 22            [24] 5119 	jz	00102$
                                   5120 ;	board/zbs29_BW_ssd1619/screen.c:767: extra = 8;
      009266 90 E6 9E         [24] 5121 	mov	dptr,#_epdPrintBegin_extra_131072_330
      009269 74 08            [12] 5122 	mov	a,#0x08
      00926B F0               [24] 5123 	movx	@dptr,a
                                   5124 ;	board/zbs29_BW_ssd1619/screen.c:768: rbuffer[0] = 0;      // previous value
      00926C 90 E5 8A         [24] 5125 	mov	dptr,#_rbuffer
      00926F E4               [12] 5126 	clr	a
      009270 F0               [24] 5127 	movx	@dptr,a
                                   5128 ;	board/zbs29_BW_ssd1619/screen.c:769: rbuffer[1] = x % 8;  // offset
      009271 90 E5 8B         [24] 5129 	mov	dptr,#(_rbuffer + 0x0001)
      009274 ED               [12] 5130 	mov	a,r5
      009275 F0               [24] 5131 	movx	@dptr,a
                                   5132 ;	board/zbs29_BW_ssd1619/screen.c:770: rbuffer[2] = 0;      // current byte counter;
      009276 90 E5 8C         [24] 5133 	mov	dptr,#(_rbuffer + 0x0002)
      009279 E4               [12] 5134 	clr	a
      00927A F0               [24] 5135 	movx	@dptr,a
                                   5136 ;	board/zbs29_BW_ssd1619/screen.c:771: rbuffer[3] = (epdCharSize * 2);
      00927B 90 FD 0D         [24] 5137 	mov	dptr,#_epdCharSize
      00927E E0               [24] 5138 	movx	a,@dptr
      00927F 25 E0            [12] 5139 	add	a,acc
      009281 FF               [12] 5140 	mov	r7,a
      009282 90 E5 8D         [24] 5141 	mov	dptr,#(_rbuffer + 0x0003)
      009285 F0               [24] 5142 	movx	@dptr,a
      009286 80 05            [24] 5143 	sjmp	00103$
      009288                       5144 00102$:
                                   5145 ;	board/zbs29_BW_ssd1619/screen.c:773: rbuffer[1] = 0;
      009288 90 E5 8B         [24] 5146 	mov	dptr,#(_rbuffer + 0x0001)
      00928B E4               [12] 5147 	clr	a
      00928C F0               [24] 5148 	movx	@dptr,a
      00928D                       5149 00103$:
                                   5150 ;	board/zbs29_BW_ssd1619/screen.c:776: setWindowY(y, 1);
      00928D 90 E6 97         [24] 5151 	mov	dptr,#_epdPrintBegin_PARM_2
      009290 E0               [24] 5152 	movx	a,@dptr
      009291 FD               [12] 5153 	mov	r5,a
      009292 A3               [24] 5154 	inc	dptr
      009293 E0               [24] 5155 	movx	a,@dptr
      009294 FF               [12] 5156 	mov	r7,a
      009295 90 E6 4F         [24] 5157 	mov	dptr,#_setWindowY_PARM_2
      009298 74 01            [12] 5158 	mov	a,#0x01
      00929A F0               [24] 5159 	movx	@dptr,a
      00929B E4               [12] 5160 	clr	a
      00929C A3               [24] 5161 	inc	dptr
      00929D F0               [24] 5162 	movx	@dptr,a
      00929E 8D 82            [24] 5163 	mov	dpl,r5
      0092A0 8F 83            [24] 5164 	mov	dph,r7
      0092A2 C0 07            [24] 5165 	push	ar7
      0092A4 C0 05            [24] 5166 	push	ar5
      0092A6 12 86 04         [24] 5167 	lcall	_setWindowY
      0092A9 D0 05            [24] 5168 	pop	ar5
      0092AB D0 07            [24] 5169 	pop	ar7
                                   5170 ;	board/zbs29_BW_ssd1619/screen.c:777: if (epdCharSize == 2) {
      0092AD 90 FD 0D         [24] 5171 	mov	dptr,#_epdCharSize
      0092B0 E0               [24] 5172 	movx	a,@dptr
      0092B1 FC               [12] 5173 	mov	r4,a
      0092B2 BC 02 52         [24] 5174 	cjne	r4,#0x02,00105$
                                   5175 ;	board/zbs29_BW_ssd1619/screen.c:778: setWindowX(x, x + 32 + extra);
      0092B5 90 E6 9C         [24] 5176 	mov	dptr,#_epdPrintBegin_x_65536_328
      0092B8 E0               [24] 5177 	movx	a,@dptr
      0092B9 FB               [12] 5178 	mov	r3,a
      0092BA A3               [24] 5179 	inc	dptr
      0092BB E0               [24] 5180 	movx	a,@dptr
      0092BC FC               [12] 5181 	mov	r4,a
      0092BD 8B 01            [24] 5182 	mov	ar1,r3
      0092BF 8C 02            [24] 5183 	mov	ar2,r4
      0092C1 74 20            [12] 5184 	mov	a,#0x20
      0092C3 29               [12] 5185 	add	a,r1
      0092C4 F5 2C            [12] 5186 	mov	_epdPrintBegin_sloc0_1_0,a
      0092C6 E4               [12] 5187 	clr	a
      0092C7 3A               [12] 5188 	addc	a,r2
      0092C8 F5 2D            [12] 5189 	mov	(_epdPrintBegin_sloc0_1_0 + 1),a
      0092CA 90 E6 9E         [24] 5190 	mov	dptr,#_epdPrintBegin_extra_131072_330
      0092CD E0               [24] 5191 	movx	a,@dptr
      0092CE 7A 00            [12] 5192 	mov	r2,#0x00
      0092D0 25 2C            [12] 5193 	add	a,_epdPrintBegin_sloc0_1_0
      0092D2 F8               [12] 5194 	mov	r0,a
      0092D3 EA               [12] 5195 	mov	a,r2
      0092D4 35 2D            [12] 5196 	addc	a,(_epdPrintBegin_sloc0_1_0 + 1)
      0092D6 FA               [12] 5197 	mov	r2,a
      0092D7 90 E6 4B         [24] 5198 	mov	dptr,#_setWindowX_PARM_2
      0092DA E8               [12] 5199 	mov	a,r0
      0092DB F0               [24] 5200 	movx	@dptr,a
      0092DC EA               [12] 5201 	mov	a,r2
      0092DD A3               [24] 5202 	inc	dptr
      0092DE F0               [24] 5203 	movx	@dptr,a
      0092DF 8B 82            [24] 5204 	mov	dpl,r3
      0092E1 8C 83            [24] 5205 	mov	dph,r4
      0092E3 C0 07            [24] 5206 	push	ar7
      0092E5 C0 05            [24] 5207 	push	ar5
      0092E7 C0 04            [24] 5208 	push	ar4
      0092E9 C0 03            [24] 5209 	push	ar3
      0092EB 12 85 BE         [24] 5210 	lcall	_setWindowX
      0092EE D0 03            [24] 5211 	pop	ar3
      0092F0 D0 04            [24] 5212 	pop	ar4
      0092F2 D0 05            [24] 5213 	pop	ar5
      0092F4 D0 07            [24] 5214 	pop	ar7
                                   5215 ;	board/zbs29_BW_ssd1619/screen.c:779: setPosXY(x, y);
      0092F6 90 E6 53         [24] 5216 	mov	dptr,#_setPosXY_PARM_2
      0092F9 ED               [12] 5217 	mov	a,r5
      0092FA F0               [24] 5218 	movx	@dptr,a
      0092FB EF               [12] 5219 	mov	a,r7
      0092FC A3               [24] 5220 	inc	dptr
      0092FD F0               [24] 5221 	movx	@dptr,a
      0092FE 8B 82            [24] 5222 	mov	dpl,r3
      009300 8C 83            [24] 5223 	mov	dph,r4
      009302 12 86 4A         [24] 5224 	lcall	_setPosXY
      009305 80 50            [24] 5225 	sjmp	00106$
      009307                       5226 00105$:
                                   5227 ;	board/zbs29_BW_ssd1619/screen.c:781: setWindowX(x, x + 16 + extra);
      009307 90 E6 9C         [24] 5228 	mov	dptr,#_epdPrintBegin_x_65536_328
      00930A E0               [24] 5229 	movx	a,@dptr
      00930B FB               [12] 5230 	mov	r3,a
      00930C A3               [24] 5231 	inc	dptr
      00930D E0               [24] 5232 	movx	a,@dptr
      00930E FC               [12] 5233 	mov	r4,a
      00930F 8B 01            [24] 5234 	mov	ar1,r3
      009311 8C 02            [24] 5235 	mov	ar2,r4
      009313 74 10            [12] 5236 	mov	a,#0x10
      009315 29               [12] 5237 	add	a,r1
      009316 F5 2C            [12] 5238 	mov	_epdPrintBegin_sloc0_1_0,a
      009318 E4               [12] 5239 	clr	a
      009319 3A               [12] 5240 	addc	a,r2
      00931A F5 2D            [12] 5241 	mov	(_epdPrintBegin_sloc0_1_0 + 1),a
      00931C 90 E6 9E         [24] 5242 	mov	dptr,#_epdPrintBegin_extra_131072_330
      00931F E0               [24] 5243 	movx	a,@dptr
      009320 7A 00            [12] 5244 	mov	r2,#0x00
      009322 25 2C            [12] 5245 	add	a,_epdPrintBegin_sloc0_1_0
      009324 F8               [12] 5246 	mov	r0,a
      009325 EA               [12] 5247 	mov	a,r2
      009326 35 2D            [12] 5248 	addc	a,(_epdPrintBegin_sloc0_1_0 + 1)
      009328 FA               [12] 5249 	mov	r2,a
      009329 90 E6 4B         [24] 5250 	mov	dptr,#_setWindowX_PARM_2
      00932C E8               [12] 5251 	mov	a,r0
      00932D F0               [24] 5252 	movx	@dptr,a
      00932E EA               [12] 5253 	mov	a,r2
      00932F A3               [24] 5254 	inc	dptr
      009330 F0               [24] 5255 	movx	@dptr,a
      009331 8B 82            [24] 5256 	mov	dpl,r3
      009333 8C 83            [24] 5257 	mov	dph,r4
      009335 C0 07            [24] 5258 	push	ar7
      009337 C0 05            [24] 5259 	push	ar5
      009339 C0 04            [24] 5260 	push	ar4
      00933B C0 03            [24] 5261 	push	ar3
      00933D 12 85 BE         [24] 5262 	lcall	_setWindowX
      009340 D0 03            [24] 5263 	pop	ar3
      009342 D0 04            [24] 5264 	pop	ar4
      009344 D0 05            [24] 5265 	pop	ar5
      009346 D0 07            [24] 5266 	pop	ar7
                                   5267 ;	board/zbs29_BW_ssd1619/screen.c:782: setPosXY(x, y);
      009348 90 E6 53         [24] 5268 	mov	dptr,#_setPosXY_PARM_2
      00934B ED               [12] 5269 	mov	a,r5
      00934C F0               [24] 5270 	movx	@dptr,a
      00934D EF               [12] 5271 	mov	a,r7
      00934E A3               [24] 5272 	inc	dptr
      00934F F0               [24] 5273 	movx	@dptr,a
      009350 8B 82            [24] 5274 	mov	dpl,r3
      009352 8C 83            [24] 5275 	mov	dph,r4
      009354 12 86 4A         [24] 5276 	lcall	_setPosXY
      009357                       5277 00106$:
                                   5278 ;	board/zbs29_BW_ssd1619/screen.c:784: shortCommand1(CMD_DATA_ENTRY_MODE, 1);  // was 3
      009357 90 E6 39         [24] 5279 	mov	dptr,#_shortCommand1_PARM_2
      00935A 74 01            [12] 5280 	mov	a,#0x01
      00935C F0               [24] 5281 	movx	@dptr,a
      00935D 75 82 11         [24] 5282 	mov	dpl,#0x11
      009360 12 7D E7         [24] 5283 	lcall	_shortCommand1
      009363 02 94 3C         [24] 5284 	ljmp	00112$
      009366                       5285 00111$:
                                   5286 ;	board/zbs29_BW_ssd1619/screen.c:786: if (epdCharSize == 2) {
      009366 BE 02 4F         [24] 5287 	cjne	r6,#0x02,00108$
                                   5288 ;	board/zbs29_BW_ssd1619/screen.c:787: x /= 2;
      009369 90 E6 9C         [24] 5289 	mov	dptr,#_epdPrintBegin_x_65536_328
      00936C E0               [24] 5290 	movx	a,@dptr
      00936D FE               [12] 5291 	mov	r6,a
      00936E A3               [24] 5292 	inc	dptr
      00936F E0               [24] 5293 	movx	a,@dptr
      009370 C3               [12] 5294 	clr	c
      009371 13               [12] 5295 	rrc	a
      009372 CE               [12] 5296 	xch	a,r6
      009373 13               [12] 5297 	rrc	a
      009374 CE               [12] 5298 	xch	a,r6
      009375 FF               [12] 5299 	mov	r7,a
      009376 90 E6 9C         [24] 5300 	mov	dptr,#_epdPrintBegin_x_65536_328
      009379 EE               [12] 5301 	mov	a,r6
      00937A F0               [24] 5302 	movx	@dptr,a
      00937B EF               [12] 5303 	mov	a,r7
      00937C A3               [24] 5304 	inc	dptr
      00937D F0               [24] 5305 	movx	@dptr,a
                                   5306 ;	board/zbs29_BW_ssd1619/screen.c:788: x *= 2;
      00937E 90 E6 9C         [24] 5307 	mov	dptr,#_epdPrintBegin_x_65536_328
      009381 E0               [24] 5308 	movx	a,@dptr
      009382 FE               [12] 5309 	mov	r6,a
      009383 A3               [24] 5310 	inc	dptr
      009384 E0               [24] 5311 	movx	a,@dptr
      009385 FF               [12] 5312 	mov	r7,a
      009386 EE               [12] 5313 	mov	a,r6
      009387 2E               [12] 5314 	add	a,r6
      009388 FE               [12] 5315 	mov	r6,a
      009389 EF               [12] 5316 	mov	a,r7
      00938A 33               [12] 5317 	rlc	a
      00938B FF               [12] 5318 	mov	r7,a
      00938C 90 E6 9C         [24] 5319 	mov	dptr,#_epdPrintBegin_x_65536_328
      00938F EE               [12] 5320 	mov	a,r6
      009390 F0               [24] 5321 	movx	@dptr,a
      009391 EF               [12] 5322 	mov	a,r7
      009392 A3               [24] 5323 	inc	dptr
      009393 F0               [24] 5324 	movx	@dptr,a
                                   5325 ;	board/zbs29_BW_ssd1619/screen.c:789: setWindowY(y, y + 32);
      009394 90 E6 97         [24] 5326 	mov	dptr,#_epdPrintBegin_PARM_2
      009397 E0               [24] 5327 	movx	a,@dptr
      009398 FE               [12] 5328 	mov	r6,a
      009399 A3               [24] 5329 	inc	dptr
      00939A E0               [24] 5330 	movx	a,@dptr
      00939B FF               [12] 5331 	mov	r7,a
      00939C 8E 04            [24] 5332 	mov	ar4,r6
      00939E 8F 05            [24] 5333 	mov	ar5,r7
      0093A0 74 20            [12] 5334 	mov	a,#0x20
      0093A2 2C               [12] 5335 	add	a,r4
      0093A3 FC               [12] 5336 	mov	r4,a
      0093A4 E4               [12] 5337 	clr	a
      0093A5 3D               [12] 5338 	addc	a,r5
      0093A6 FD               [12] 5339 	mov	r5,a
      0093A7 90 E6 4F         [24] 5340 	mov	dptr,#_setWindowY_PARM_2
      0093AA EC               [12] 5341 	mov	a,r4
      0093AB F0               [24] 5342 	movx	@dptr,a
      0093AC ED               [12] 5343 	mov	a,r5
      0093AD A3               [24] 5344 	inc	dptr
      0093AE F0               [24] 5345 	movx	@dptr,a
      0093AF 8E 82            [24] 5346 	mov	dpl,r6
      0093B1 8F 83            [24] 5347 	mov	dph,r7
      0093B3 12 86 04         [24] 5348 	lcall	_setWindowY
      0093B6 80 22            [24] 5349 	sjmp	00109$
      0093B8                       5350 00108$:
                                   5351 ;	board/zbs29_BW_ssd1619/screen.c:791: setWindowY(y, y + 16);
      0093B8 90 E6 97         [24] 5352 	mov	dptr,#_epdPrintBegin_PARM_2
      0093BB E0               [24] 5353 	movx	a,@dptr
      0093BC FE               [12] 5354 	mov	r6,a
      0093BD A3               [24] 5355 	inc	dptr
      0093BE E0               [24] 5356 	movx	a,@dptr
      0093BF FF               [12] 5357 	mov	r7,a
      0093C0 8E 04            [24] 5358 	mov	ar4,r6
      0093C2 8F 05            [24] 5359 	mov	ar5,r7
      0093C4 74 10            [12] 5360 	mov	a,#0x10
      0093C6 2C               [12] 5361 	add	a,r4
      0093C7 FC               [12] 5362 	mov	r4,a
      0093C8 E4               [12] 5363 	clr	a
      0093C9 3D               [12] 5364 	addc	a,r5
      0093CA FD               [12] 5365 	mov	r5,a
      0093CB 90 E6 4F         [24] 5366 	mov	dptr,#_setWindowY_PARM_2
      0093CE EC               [12] 5367 	mov	a,r4
      0093CF F0               [24] 5368 	movx	@dptr,a
      0093D0 ED               [12] 5369 	mov	a,r5
      0093D1 A3               [24] 5370 	inc	dptr
      0093D2 F0               [24] 5371 	movx	@dptr,a
      0093D3 8E 82            [24] 5372 	mov	dpl,r6
      0093D5 8F 83            [24] 5373 	mov	dph,r7
      0093D7 12 86 04         [24] 5374 	lcall	_setWindowY
      0093DA                       5375 00109$:
                                   5376 ;	board/zbs29_BW_ssd1619/screen.c:793: setPosXY(x, y);
      0093DA 90 E6 9C         [24] 5377 	mov	dptr,#_epdPrintBegin_x_65536_328
      0093DD E0               [24] 5378 	movx	a,@dptr
      0093DE FE               [12] 5379 	mov	r6,a
      0093DF A3               [24] 5380 	inc	dptr
      0093E0 E0               [24] 5381 	movx	a,@dptr
      0093E1 FF               [12] 5382 	mov	r7,a
      0093E2 90 E6 97         [24] 5383 	mov	dptr,#_epdPrintBegin_PARM_2
      0093E5 E0               [24] 5384 	movx	a,@dptr
      0093E6 FC               [12] 5385 	mov	r4,a
      0093E7 A3               [24] 5386 	inc	dptr
      0093E8 E0               [24] 5387 	movx	a,@dptr
      0093E9 FD               [12] 5388 	mov	r5,a
      0093EA 90 E6 53         [24] 5389 	mov	dptr,#_setPosXY_PARM_2
      0093ED EC               [12] 5390 	mov	a,r4
      0093EE F0               [24] 5391 	movx	@dptr,a
      0093EF ED               [12] 5392 	mov	a,r5
      0093F0 A3               [24] 5393 	inc	dptr
      0093F1 F0               [24] 5394 	movx	@dptr,a
      0093F2 8E 82            [24] 5395 	mov	dpl,r6
      0093F4 8F 83            [24] 5396 	mov	dph,r7
      0093F6 C0 07            [24] 5397 	push	ar7
      0093F8 C0 06            [24] 5398 	push	ar6
      0093FA 12 86 4A         [24] 5399 	lcall	_setPosXY
      0093FD D0 06            [24] 5400 	pop	ar6
      0093FF D0 07            [24] 5401 	pop	ar7
                                   5402 ;	board/zbs29_BW_ssd1619/screen.c:794: fontCurXpos = x;
      009401 90 FD 0F         [24] 5403 	mov	dptr,#_fontCurXpos
      009404 EE               [12] 5404 	mov	a,r6
      009405 F0               [24] 5405 	movx	@dptr,a
      009406 EF               [12] 5406 	mov	a,r7
      009407 A3               [24] 5407 	inc	dptr
      009408 F0               [24] 5408 	movx	@dptr,a
                                   5409 ;	board/zbs29_BW_ssd1619/screen.c:795: setWindowX(x, SCREEN_WIDTH);
      009409 90 E6 4B         [24] 5410 	mov	dptr,#_setWindowX_PARM_2
      00940C 74 80            [12] 5411 	mov	a,#0x80
      00940E F0               [24] 5412 	movx	@dptr,a
      00940F E4               [12] 5413 	clr	a
      009410 A3               [24] 5414 	inc	dptr
      009411 F0               [24] 5415 	movx	@dptr,a
      009412 8E 82            [24] 5416 	mov	dpl,r6
      009414 8F 83            [24] 5417 	mov	dph,r7
      009416 12 85 BE         [24] 5418 	lcall	_setWindowX
                                   5419 ;	board/zbs29_BW_ssd1619/screen.c:796: shortCommand1(CMD_DATA_ENTRY_MODE, 7);
      009419 90 E6 39         [24] 5420 	mov	dptr,#_shortCommand1_PARM_2
      00941C 74 07            [12] 5421 	mov	a,#0x07
      00941E F0               [24] 5422 	movx	@dptr,a
      00941F 75 82 11         [24] 5423 	mov	dpl,#0x11
      009422 12 7D E7         [24] 5424 	lcall	_shortCommand1
                                   5425 ;	board/zbs29_BW_ssd1619/screen.c:797: memset(rbuffer, 0, 32);
      009425 90 E7 2E         [24] 5426 	mov	dptr,#_memset_PARM_2
      009428 E4               [12] 5427 	clr	a
      009429 F0               [24] 5428 	movx	@dptr,a
      00942A 90 E7 2F         [24] 5429 	mov	dptr,#_memset_PARM_3
      00942D 74 20            [12] 5430 	mov	a,#0x20
      00942F F0               [24] 5431 	movx	@dptr,a
      009430 E4               [12] 5432 	clr	a
      009431 A3               [24] 5433 	inc	dptr
      009432 F0               [24] 5434 	movx	@dptr,a
      009433 90 E5 8A         [24] 5435 	mov	dptr,#_rbuffer
      009436 75 F0 00         [24] 5436 	mov	b,#0x00
      009439 12 A9 AC         [24] 5437 	lcall	_memset
      00943C                       5438 00112$:
                                   5439 ;	board/zbs29_BW_ssd1619/screen.c:800: if (color) {
      00943C 90 E6 9B         [24] 5440 	mov	dptr,#_epdPrintBegin_PARM_5
      00943F E0               [24] 5441 	movx	a,@dptr
      009440 60 06            [24] 5442 	jz	00114$
                                   5443 ;	board/zbs29_BW_ssd1619/screen.c:801: commandBegin(CMD_WRITE_FB_RED);
      009442 75 82 26         [24] 5444 	mov	dpl,#0x26
      009445 02 7E 32         [24] 5445 	ljmp	_commandBegin
      009448                       5446 00114$:
                                   5447 ;	board/zbs29_BW_ssd1619/screen.c:803: commandBegin(CMD_WRITE_FB_BW);
      009448 75 82 24         [24] 5448 	mov	dpl,#0x24
                                   5449 ;	board/zbs29_BW_ssd1619/screen.c:805: }
      00944B 02 7E 32         [24] 5450 	ljmp	_commandBegin
                                   5451 ;------------------------------------------------------------
                                   5452 ;Allocation info for local variables in function 'epdPrintEnd'
                                   5453 ;------------------------------------------------------------
                                   5454 ;i                         Allocated with name '_epdPrintEnd_i_196608_342'
                                   5455 ;------------------------------------------------------------
                                   5456 ;	board/zbs29_BW_ssd1619/screen.c:806: void epdPrintEnd() {
                                   5457 ;	-----------------------------------------
                                   5458 ;	 function epdPrintEnd
                                   5459 ;	-----------------------------------------
      00944E                       5460 _epdPrintEnd:
                                   5461 ;	board/zbs29_BW_ssd1619/screen.c:807: if (!directionY && ((fontCurXpos % 8) != 0)) {
      00944E 90 FD 0E         [24] 5462 	mov	dptr,#_directionY
      009451 E0               [24] 5463 	movx	a,@dptr
      009452 70 49            [24] 5464 	jnz	00105$
      009454 90 FD 0F         [24] 5465 	mov	dptr,#_fontCurXpos
      009457 E0               [24] 5466 	movx	a,@dptr
      009458 FE               [12] 5467 	mov	r6,a
      009459 A3               [24] 5468 	inc	dptr
      00945A E0               [24] 5469 	movx	a,@dptr
      00945B FF               [12] 5470 	mov	r7,a
      00945C EE               [12] 5471 	mov	a,r6
      00945D 54 07            [12] 5472 	anl	a,#0x07
      00945F 60 3C            [24] 5473 	jz	00105$
                                   5474 ;	board/zbs29_BW_ssd1619/screen.c:808: for (uint8_t i = 0; i < (16 * epdCharSize); i++) {
      009461 7F 00            [12] 5475 	mov	r7,#0x00
      009463                       5476 00109$:
      009463 90 FD 0D         [24] 5477 	mov	dptr,#_epdCharSize
      009466 E0               [24] 5478 	movx	a,@dptr
      009467 FE               [12] 5479 	mov	r6,a
      009468 E4               [12] 5480 	clr	a
      009469 C4               [12] 5481 	swap	a
      00946A 54 F0            [12] 5482 	anl	a,#0xf0
      00946C CE               [12] 5483 	xch	a,r6
      00946D C4               [12] 5484 	swap	a
      00946E CE               [12] 5485 	xch	a,r6
      00946F 6E               [12] 5486 	xrl	a,r6
      009470 CE               [12] 5487 	xch	a,r6
      009471 54 F0            [12] 5488 	anl	a,#0xf0
      009473 CE               [12] 5489 	xch	a,r6
      009474 6E               [12] 5490 	xrl	a,r6
      009475 FD               [12] 5491 	mov	r5,a
      009476 8F 03            [24] 5492 	mov	ar3,r7
      009478 7C 00            [12] 5493 	mov	r4,#0x00
      00947A C3               [12] 5494 	clr	c
      00947B EB               [12] 5495 	mov	a,r3
      00947C 9E               [12] 5496 	subb	a,r6
      00947D EC               [12] 5497 	mov	a,r4
      00947E 64 80            [12] 5498 	xrl	a,#0x80
      009480 8D F0            [24] 5499 	mov	b,r5
      009482 63 F0 80         [24] 5500 	xrl	b,#0x80
      009485 95 F0            [12] 5501 	subb	a,b
      009487 50 14            [24] 5502 	jnc	00105$
                                   5503 ;	board/zbs29_BW_ssd1619/screen.c:809: epdSend(rbuffer[i]);
      009489 EF               [12] 5504 	mov	a,r7
      00948A 24 8A            [12] 5505 	add	a,#_rbuffer
      00948C F5 82            [12] 5506 	mov	dpl,a
      00948E E4               [12] 5507 	clr	a
      00948F 34 E5            [12] 5508 	addc	a,#(_rbuffer >> 8)
      009491 F5 83            [12] 5509 	mov	dph,a
      009493 E0               [24] 5510 	movx	a,@dptr
      009494 FE               [12] 5511 	mov	r6,a
      009495 F5 82            [12] 5512 	mov	dpl,a
      009497 12 5C C3         [24] 5513 	lcall	_spiTXByte
                                   5514 ;	board/zbs29_BW_ssd1619/screen.c:808: for (uint8_t i = 0; i < (16 * epdCharSize); i++) {
      00949A 0F               [12] 5515 	inc	r7
                                   5516 ;	board/zbs29_BW_ssd1619/screen.c:812: commandEnd();
      00949B 80 C6            [24] 5517 	sjmp	00109$
      00949D                       5518 00105$:
                                   5519 ;	assignBit
      00949D D2 97            [12] 5520 	setb	_P1_7
                                   5521 ;	board/zbs29_BW_ssd1619/screen.c:813: }
      00949F 22               [24] 5522 	ret
                                   5523 	.area CSEG    (CODE)
                                   5524 	.area CONST   (CODE)
      00C229                       5525 _font:
      00C229 00                    5526 	.db #0x00	; 0
      00C22A 00                    5527 	.db #0x00	; 0
      00C22B 00                    5528 	.db #0x00	; 0
      00C22C 00                    5529 	.db #0x00	; 0
      00C22D 00                    5530 	.db #0x00	; 0
      00C22E 00                    5531 	.db #0x00	; 0
      00C22F 00                    5532 	.db #0x00	; 0
      00C230 00                    5533 	.db #0x00	; 0
      00C231 00                    5534 	.db #0x00	; 0
      00C232 00                    5535 	.db #0x00	; 0
      00C233 00                    5536 	.db #0x00	; 0
      00C234 00                    5537 	.db #0x00	; 0
      00C235 00                    5538 	.db #0x00	; 0
      00C236 00                    5539 	.db #0x00	; 0
      00C237 00                    5540 	.db #0x00	; 0
      00C238 00                    5541 	.db #0x00	; 0
      00C239 00                    5542 	.db #0x00	; 0
      00C23A 00                    5543 	.db #0x00	; 0
      00C23B 00                    5544 	.db #0x00	; 0
      00C23C 00                    5545 	.db #0x00	; 0
      00C23D E0                    5546 	.db #0xe0	; 224
      00C23E 01                    5547 	.db #0x01	; 1
      00C23F 30                    5548 	.db #0x30	; 48	'0'
      00C240 03                    5549 	.db #0x03	; 3
      00C241 50                    5550 	.db #0x50	; 80	'P'
      00C242 02                    5551 	.db #0x02	; 2
      00C243 28                    5552 	.db #0x28	; 40
      00C244 05                    5553 	.db #0x05	; 5
      00C245 28                    5554 	.db #0x28	; 40
      00C246 04                    5555 	.db #0x04	; 4
      00C247 28                    5556 	.db #0x28	; 40
      00C248 04                    5557 	.db #0x04	; 4
      00C249 28                    5558 	.db #0x28	; 40
      00C24A 05                    5559 	.db #0x05	; 5
      00C24B 50                    5560 	.db #0x50	; 80	'P'
      00C24C 02                    5561 	.db #0x02	; 2
      00C24D 30                    5562 	.db #0x30	; 48	'0'
      00C24E 03                    5563 	.db #0x03	; 3
      00C24F E0                    5564 	.db #0xe0	; 224
      00C250 01                    5565 	.db #0x01	; 1
      00C251 E0                    5566 	.db #0xe0	; 224
      00C252 01                    5567 	.db #0x01	; 1
      00C253 F0                    5568 	.db #0xf0	; 240
      00C254 03                    5569 	.db #0x03	; 3
      00C255 B0                    5570 	.db #0xb0	; 176
      00C256 03                    5571 	.db #0x03	; 3
      00C257 D8                    5572 	.db #0xd8	; 216
      00C258 06                    5573 	.db #0x06	; 6
      00C259 D8                    5574 	.db #0xd8	; 216
      00C25A 07                    5575 	.db #0x07	; 7
      00C25B D8                    5576 	.db #0xd8	; 216
      00C25C 07                    5577 	.db #0x07	; 7
      00C25D D8                    5578 	.db #0xd8	; 216
      00C25E 06                    5579 	.db #0x06	; 6
      00C25F B0                    5580 	.db #0xb0	; 176
      00C260 03                    5581 	.db #0x03	; 3
      00C261 F0                    5582 	.db #0xf0	; 240
      00C262 03                    5583 	.db #0x03	; 3
      00C263 E0                    5584 	.db #0xe0	; 224
      00C264 01                    5585 	.db #0x01	; 1
      00C265 00                    5586 	.db #0x00	; 0
      00C266 3E                    5587 	.db #0x3e	; 62
      00C267 80                    5588 	.db #0x80	; 128
      00C268 7F                    5589 	.db #0x7f	; 127
      00C269 E0                    5590 	.db #0xe0	; 224
      00C26A 7F                    5591 	.db #0x7f	; 127
      00C26B F0                    5592 	.db #0xf0	; 240
      00C26C 7F                    5593 	.db #0x7f	; 127
      00C26D F8                    5594 	.db #0xf8	; 248
      00C26E 3F                    5595 	.db #0x3f	; 63
      00C26F F8                    5596 	.db #0xf8	; 248
      00C270 3F                    5597 	.db #0x3f	; 63
      00C271 F0                    5598 	.db #0xf0	; 240
      00C272 7F                    5599 	.db #0x7f	; 127
      00C273 E0                    5600 	.db #0xe0	; 224
      00C274 7F                    5601 	.db #0x7f	; 127
      00C275 80                    5602 	.db #0x80	; 128
      00C276 7F                    5603 	.db #0x7f	; 127
      00C277 00                    5604 	.db #0x00	; 0
      00C278 3E                    5605 	.db #0x3e	; 62
      00C279 00                    5606 	.db #0x00	; 0
      00C27A 01                    5607 	.db #0x01	; 1
      00C27B 80                    5608 	.db #0x80	; 128
      00C27C 03                    5609 	.db #0x03	; 3
      00C27D C0                    5610 	.db #0xc0	; 192
      00C27E 0F                    5611 	.db #0x0f	; 15
      00C27F E0                    5612 	.db #0xe0	; 224
      00C280 1F                    5613 	.db #0x1f	; 31
      00C281 F8                    5614 	.db #0xf8	; 248
      00C282 7F                    5615 	.db #0x7f	; 127
      00C283 F0                    5616 	.db #0xf0	; 240
      00C284 1F                    5617 	.db #0x1f	; 31
      00C285 E0                    5618 	.db #0xe0	; 224
      00C286 0F                    5619 	.db #0x0f	; 15
      00C287 C0                    5620 	.db #0xc0	; 192
      00C288 07                    5621 	.db #0x07	; 7
      00C289 80                    5622 	.db #0x80	; 128
      00C28A 03                    5623 	.db #0x03	; 3
      00C28B 00                    5624 	.db #0x00	; 0
      00C28C 01                    5625 	.db #0x01	; 1
      00C28D 80                    5626 	.db #0x80	; 128
      00C28E 03                    5627 	.db #0x03	; 3
      00C28F C0                    5628 	.db #0xc0	; 192
      00C290 07                    5629 	.db #0x07	; 7
      00C291 C0                    5630 	.db #0xc0	; 192
      00C292 07                    5631 	.db #0x07	; 7
      00C293 C0                    5632 	.db #0xc0	; 192
      00C294 3F                    5633 	.db #0x3f	; 63
      00C295 F8                    5634 	.db #0xf8	; 248
      00C296 7F                    5635 	.db #0x7f	; 127
      00C297 B8                    5636 	.db #0xb8	; 184
      00C298 7F                    5637 	.db #0x7f	; 127
      00C299 C0                    5638 	.db #0xc0	; 192
      00C29A 3F                    5639 	.db #0x3f	; 63
      00C29B C0                    5640 	.db #0xc0	; 192
      00C29C 07                    5641 	.db #0x07	; 7
      00C29D C0                    5642 	.db #0xc0	; 192
      00C29E 07                    5643 	.db #0x07	; 7
      00C29F 80                    5644 	.db #0x80	; 128
      00C2A0 03                    5645 	.db #0x03	; 3
      00C2A1 80                    5646 	.db #0x80	; 128
      00C2A2 03                    5647 	.db #0x03	; 3
      00C2A3 C0                    5648 	.db #0xc0	; 192
      00C2A4 07                    5649 	.db #0x07	; 7
      00C2A5 C0                    5650 	.db #0xc0	; 192
      00C2A6 0F                    5651 	.db #0x0f	; 15
      00C2A7 C0                    5652 	.db #0xc0	; 192
      00C2A8 1F                    5653 	.db #0x1f	; 31
      00C2A9 F8                    5654 	.db #0xf8	; 248
      00C2AA 3F                    5655 	.db #0x3f	; 63
      00C2AB B8                    5656 	.db #0xb8	; 184
      00C2AC 7F                    5657 	.db #0x7f	; 127
      00C2AD C0                    5658 	.db #0xc0	; 192
      00C2AE 1F                    5659 	.db #0x1f	; 31
      00C2AF C0                    5660 	.db #0xc0	; 192
      00C2B0 0F                    5661 	.db #0x0f	; 15
      00C2B1 C0                    5662 	.db #0xc0	; 192
      00C2B2 07                    5663 	.db #0x07	; 7
      00C2B3 80                    5664 	.db #0x80	; 128
      00C2B4 03                    5665 	.db #0x03	; 3
      00C2B5 00                    5666 	.db #0x00	; 0
      00C2B6 00                    5667 	.db #0x00	; 0
      00C2B7 00                    5668 	.db #0x00	; 0
      00C2B8 00                    5669 	.db #0x00	; 0
      00C2B9 00                    5670 	.db #0x00	; 0
      00C2BA 00                    5671 	.db #0x00	; 0
      00C2BB 00                    5672 	.db #0x00	; 0
      00C2BC 00                    5673 	.db #0x00	; 0
      00C2BD 00                    5674 	.db #0x00	; 0
      00C2BE 00                    5675 	.db #0x00	; 0
      00C2BF 00                    5676 	.db #0x00	; 0
      00C2C0 00                    5677 	.db #0x00	; 0
      00C2C1 00                    5678 	.db #0x00	; 0
      00C2C2 00                    5679 	.db #0x00	; 0
      00C2C3 00                    5680 	.db #0x00	; 0
      00C2C4 00                    5681 	.db #0x00	; 0
      00C2C5 00                    5682 	.db #0x00	; 0
      00C2C6 00                    5683 	.db #0x00	; 0
      00C2C7 00                    5684 	.db #0x00	; 0
      00C2C8 00                    5685 	.db #0x00	; 0
      00C2C9 00                    5686 	.db #0x00	; 0
      00C2CA 00                    5687 	.db #0x00	; 0
      00C2CB 00                    5688 	.db #0x00	; 0
      00C2CC 00                    5689 	.db #0x00	; 0
      00C2CD 00                    5690 	.db #0x00	; 0
      00C2CE 00                    5691 	.db #0x00	; 0
      00C2CF 00                    5692 	.db #0x00	; 0
      00C2D0 00                    5693 	.db #0x00	; 0
      00C2D1 00                    5694 	.db #0x00	; 0
      00C2D2 00                    5695 	.db #0x00	; 0
      00C2D3 00                    5696 	.db #0x00	; 0
      00C2D4 00                    5697 	.db #0x00	; 0
      00C2D5 00                    5698 	.db #0x00	; 0
      00C2D6 00                    5699 	.db #0x00	; 0
      00C2D7 00                    5700 	.db #0x00	; 0
      00C2D8 00                    5701 	.db #0x00	; 0
      00C2D9 00                    5702 	.db #0x00	; 0
      00C2DA 00                    5703 	.db #0x00	; 0
      00C2DB 00                    5704 	.db #0x00	; 0
      00C2DC 00                    5705 	.db #0x00	; 0
      00C2DD 00                    5706 	.db #0x00	; 0
      00C2DE 00                    5707 	.db #0x00	; 0
      00C2DF 00                    5708 	.db #0x00	; 0
      00C2E0 00                    5709 	.db #0x00	; 0
      00C2E1 00                    5710 	.db #0x00	; 0
      00C2E2 00                    5711 	.db #0x00	; 0
      00C2E3 00                    5712 	.db #0x00	; 0
      00C2E4 00                    5713 	.db #0x00	; 0
      00C2E5 00                    5714 	.db #0x00	; 0
      00C2E6 00                    5715 	.db #0x00	; 0
      00C2E7 00                    5716 	.db #0x00	; 0
      00C2E8 00                    5717 	.db #0x00	; 0
      00C2E9 00                    5718 	.db #0x00	; 0
      00C2EA 00                    5719 	.db #0x00	; 0
      00C2EB 00                    5720 	.db #0x00	; 0
      00C2EC 00                    5721 	.db #0x00	; 0
      00C2ED 00                    5722 	.db #0x00	; 0
      00C2EE 00                    5723 	.db #0x00	; 0
      00C2EF 00                    5724 	.db #0x00	; 0
      00C2F0 00                    5725 	.db #0x00	; 0
      00C2F1 00                    5726 	.db #0x00	; 0
      00C2F2 00                    5727 	.db #0x00	; 0
      00C2F3 00                    5728 	.db #0x00	; 0
      00C2F4 00                    5729 	.db #0x00	; 0
      00C2F5 00                    5730 	.db #0x00	; 0
      00C2F6 00                    5731 	.db #0x00	; 0
      00C2F7 00                    5732 	.db #0x00	; 0
      00C2F8 00                    5733 	.db #0x00	; 0
      00C2F9 00                    5734 	.db #0x00	; 0
      00C2FA 00                    5735 	.db #0x00	; 0
      00C2FB 00                    5736 	.db #0x00	; 0
      00C2FC 00                    5737 	.db #0x00	; 0
      00C2FD 00                    5738 	.db #0x00	; 0
      00C2FE 00                    5739 	.db #0x00	; 0
      00C2FF 00                    5740 	.db #0x00	; 0
      00C300 00                    5741 	.db #0x00	; 0
      00C301 00                    5742 	.db #0x00	; 0
      00C302 00                    5743 	.db #0x00	; 0
      00C303 00                    5744 	.db #0x00	; 0
      00C304 00                    5745 	.db #0x00	; 0
      00C305 E0                    5746 	.db #0xe0	; 224
      00C306 01                    5747 	.db #0x01	; 1
      00C307 10                    5748 	.db #0x10	; 16
      00C308 02                    5749 	.db #0x02	; 2
      00C309 08                    5750 	.db #0x08	; 8
      00C30A 04                    5751 	.db #0x04	; 4
      00C30B 08                    5752 	.db #0x08	; 8
      00C30C 04                    5753 	.db #0x04	; 4
      00C30D 08                    5754 	.db #0x08	; 8
      00C30E 04                    5755 	.db #0x04	; 4
      00C30F 08                    5756 	.db #0x08	; 8
      00C310 24                    5757 	.db #0x24	; 36
      00C311 10                    5758 	.db #0x10	; 16
      00C312 2E                    5759 	.db #0x2e	; 46
      00C313 E0                    5760 	.db #0xe0	; 224
      00C314 71                    5761 	.db #0x71	; 113	'q'
      00C315 00                    5762 	.db #0x00	; 0
      00C316 70                    5763 	.db #0x70	; 112	'p'
      00C317 00                    5764 	.db #0x00	; 0
      00C318 18                    5765 	.db #0x18	; 24
      00C319 00                    5766 	.db #0x00	; 0
      00C31A 00                    5767 	.db #0x00	; 0
      00C31B 00                    5768 	.db #0x00	; 0
      00C31C 1E                    5769 	.db #0x1e	; 30
      00C31D 20                    5770 	.db #0x20	; 32
      00C31E 21                    5771 	.db #0x21	; 33
      00C31F A0                    5772 	.db #0xa0	; 160
      00C320 40                    5773 	.db #0x40	; 64
      00C321 F8                    5774 	.db #0xf8	; 248
      00C322 40                    5775 	.db #0x40	; 64
      00C323 A0                    5776 	.db #0xa0	; 160
      00C324 40                    5777 	.db #0x40	; 64
      00C325 A0                    5778 	.db #0xa0	; 160
      00C326 41                    5779 	.db #0x41	; 65	'A'
      00C327 00                    5780 	.db #0x00	; 0
      00C328 21                    5781 	.db #0x21	; 33
      00C329 00                    5782 	.db #0x00	; 0
      00C32A 1E                    5783 	.db #0x1e	; 30
      00C32B 00                    5784 	.db #0x00	; 0
      00C32C 00                    5785 	.db #0x00	; 0
      00C32D 00                    5786 	.db #0x00	; 0
      00C32E 00                    5787 	.db #0x00	; 0
      00C32F 00                    5788 	.db #0x00	; 0
      00C330 00                    5789 	.db #0x00	; 0
      00C331 00                    5790 	.db #0x00	; 0
      00C332 00                    5791 	.db #0x00	; 0
      00C333 00                    5792 	.db #0x00	; 0
      00C334 00                    5793 	.db #0x00	; 0
      00C335 00                    5794 	.db #0x00	; 0
      00C336 00                    5795 	.db #0x00	; 0
      00C337 00                    5796 	.db #0x00	; 0
      00C338 00                    5797 	.db #0x00	; 0
      00C339 00                    5798 	.db #0x00	; 0
      00C33A 00                    5799 	.db #0x00	; 0
      00C33B 00                    5800 	.db #0x00	; 0
      00C33C 00                    5801 	.db #0x00	; 0
      00C33D 00                    5802 	.db #0x00	; 0
      00C33E 00                    5803 	.db #0x00	; 0
      00C33F 00                    5804 	.db #0x00	; 0
      00C340 00                    5805 	.db #0x00	; 0
      00C341 06                    5806 	.db #0x06	; 6
      00C342 00                    5807 	.db #0x00	; 0
      00C343 0E                    5808 	.db #0x0e	; 14
      00C344 00                    5809 	.db #0x00	; 0
      00C345 0E                    5810 	.db #0x0e	; 14
      00C346 00                    5811 	.db #0x00	; 0
      00C347 FC                    5812 	.db #0xfc	; 252
      00C348 1F                    5813 	.db #0x1f	; 31
      00C349 00                    5814 	.db #0x00	; 0
      00C34A 18                    5815 	.db #0x18	; 24
      00C34B 30                    5816 	.db #0x30	; 48	'0'
      00C34C 10                    5817 	.db #0x10	; 16
      00C34D 70                    5818 	.db #0x70	; 112	'p'
      00C34E 30                    5819 	.db #0x30	; 48	'0'
      00C34F 70                    5820 	.db #0x70	; 112	'p'
      00C350 20                    5821 	.db #0x20	; 32
      00C351 E0                    5822 	.db #0xe0	; 224
      00C352 7F                    5823 	.db #0x7f	; 127
      00C353 00                    5824 	.db #0x00	; 0
      00C354 00                    5825 	.db #0x00	; 0
      00C355 00                    5826 	.db #0x00	; 0
      00C356 01                    5827 	.db #0x01	; 1
      00C357 C0                    5828 	.db #0xc0	; 192
      00C358 0F                    5829 	.db #0x0f	; 15
      00C359 C0                    5830 	.db #0xc0	; 192
      00C35A 04                    5831 	.db #0x04	; 4
      00C35B 40                    5832 	.db #0x40	; 64
      00C35C 08                    5833 	.db #0x08	; 8
      00C35D 60                    5834 	.db #0x60	; 96
      00C35E 18                    5835 	.db #0x18	; 24
      00C35F 40                    5836 	.db #0x40	; 64
      00C360 08                    5837 	.db #0x08	; 8
      00C361 40                    5838 	.db #0x40	; 64
      00C362 04                    5839 	.db #0x04	; 4
      00C363 C0                    5840 	.db #0xc0	; 192
      00C364 0C                    5841 	.db #0x0c	; 12
      00C365 C0                    5842 	.db #0xc0	; 192
      00C366 0B                    5843 	.db #0x0b	; 11
      00C367 00                    5844 	.db #0x00	; 0
      00C368 01                    5845 	.db #0x01	; 1
      00C369 F8                    5846 	.db #0xf8	; 248
      00C36A 0F                    5847 	.db #0x0f	; 15
      00C36B F0                    5848 	.db #0xf0	; 240
      00C36C 07                    5849 	.db #0x07	; 7
      00C36D F0                    5850 	.db #0xf0	; 240
      00C36E 07                    5851 	.db #0x07	; 7
      00C36F E0                    5852 	.db #0xe0	; 224
      00C370 03                    5853 	.db #0x03	; 3
      00C371 E0                    5854 	.db #0xe0	; 224
      00C372 03                    5855 	.db #0x03	; 3
      00C373 E0                    5856 	.db #0xe0	; 224
      00C374 03                    5857 	.db #0x03	; 3
      00C375 C0                    5858 	.db #0xc0	; 192
      00C376 01                    5859 	.db #0x01	; 1
      00C377 C0                    5860 	.db #0xc0	; 192
      00C378 01                    5861 	.db #0x01	; 1
      00C379 80                    5862 	.db #0x80	; 128
      00C37A 00                    5863 	.db #0x00	; 0
      00C37B 80                    5864 	.db #0x80	; 128
      00C37C 00                    5865 	.db #0x00	; 0
      00C37D 80                    5866 	.db #0x80	; 128
      00C37E 00                    5867 	.db #0x00	; 0
      00C37F 80                    5868 	.db #0x80	; 128
      00C380 00                    5869 	.db #0x00	; 0
      00C381 C0                    5870 	.db #0xc0	; 192
      00C382 01                    5871 	.db #0x01	; 1
      00C383 C0                    5872 	.db #0xc0	; 192
      00C384 01                    5873 	.db #0x01	; 1
      00C385 E0                    5874 	.db #0xe0	; 224
      00C386 03                    5875 	.db #0x03	; 3
      00C387 E0                    5876 	.db #0xe0	; 224
      00C388 03                    5877 	.db #0x03	; 3
      00C389 E0                    5878 	.db #0xe0	; 224
      00C38A 03                    5879 	.db #0x03	; 3
      00C38B F0                    5880 	.db #0xf0	; 240
      00C38C 07                    5881 	.db #0x07	; 7
      00C38D F0                    5882 	.db #0xf0	; 240
      00C38E 07                    5883 	.db #0x07	; 7
      00C38F F8                    5884 	.db #0xf8	; 248
      00C390 0F                    5885 	.db #0x0f	; 15
      00C391 00                    5886 	.db #0x00	; 0
      00C392 00                    5887 	.db #0x00	; 0
      00C393 00                    5888 	.db #0x00	; 0
      00C394 00                    5889 	.db #0x00	; 0
      00C395 08                    5890 	.db #0x08	; 8
      00C396 10                    5891 	.db #0x10	; 16
      00C397 04                    5892 	.db #0x04	; 4
      00C398 20                    5893 	.db #0x20	; 32
      00C399 FE                    5894 	.db #0xfe	; 254
      00C39A 7F                    5895 	.db #0x7f	; 127
      00C39B 04                    5896 	.db #0x04	; 4
      00C39C 20                    5897 	.db #0x20	; 32
      00C39D 08                    5898 	.db #0x08	; 8
      00C39E 10                    5899 	.db #0x10	; 16
      00C39F 00                    5900 	.db #0x00	; 0
      00C3A0 00                    5901 	.db #0x00	; 0
      00C3A1 00                    5902 	.db #0x00	; 0
      00C3A2 00                    5903 	.db #0x00	; 0
      00C3A3 00                    5904 	.db #0x00	; 0
      00C3A4 00                    5905 	.db #0x00	; 0
      00C3A5 00                    5906 	.db #0x00	; 0
      00C3A6 00                    5907 	.db #0x00	; 0
      00C3A7 00                    5908 	.db #0x00	; 0
      00C3A8 00                    5909 	.db #0x00	; 0
      00C3A9 D8                    5910 	.db #0xd8	; 216
      00C3AA 7F                    5911 	.db #0x7f	; 127
      00C3AB 00                    5912 	.db #0x00	; 0
      00C3AC 00                    5913 	.db #0x00	; 0
      00C3AD 00                    5914 	.db #0x00	; 0
      00C3AE 00                    5915 	.db #0x00	; 0
      00C3AF D8                    5916 	.db #0xd8	; 216
      00C3B0 7F                    5917 	.db #0x7f	; 127
      00C3B1 00                    5918 	.db #0x00	; 0
      00C3B2 00                    5919 	.db #0x00	; 0
      00C3B3 00                    5920 	.db #0x00	; 0
      00C3B4 00                    5921 	.db #0x00	; 0
      00C3B5 00                    5922 	.db #0x00	; 0
      00C3B6 00                    5923 	.db #0x00	; 0
      00C3B7 00                    5924 	.db #0x00	; 0
      00C3B8 00                    5925 	.db #0x00	; 0
      00C3B9 00                    5926 	.db #0x00	; 0
      00C3BA 00                    5927 	.db #0x00	; 0
      00C3BB 00                    5928 	.db #0x00	; 0
      00C3BC 38                    5929 	.db #0x38	; 56	'8'
      00C3BD 00                    5930 	.db #0x00	; 0
      00C3BE 7C                    5931 	.db #0x7c	; 124
      00C3BF 00                    5932 	.db #0x00	; 0
      00C3C0 7E                    5933 	.db #0x7e	; 126
      00C3C1 FE                    5934 	.db #0xfe	; 254
      00C3C2 7F                    5935 	.db #0x7f	; 127
      00C3C3 00                    5936 	.db #0x00	; 0
      00C3C4 40                    5937 	.db #0x40	; 64
      00C3C5 00                    5938 	.db #0x00	; 0
      00C3C6 40                    5939 	.db #0x40	; 64
      00C3C7 FE                    5940 	.db #0xfe	; 254
      00C3C8 7F                    5941 	.db #0x7f	; 127
      00C3C9 00                    5942 	.db #0x00	; 0
      00C3CA 00                    5943 	.db #0x00	; 0
      00C3CB 00                    5944 	.db #0x00	; 0
      00C3CC 00                    5945 	.db #0x00	; 0
      00C3CD 00                    5946 	.db #0x00	; 0
      00C3CE 00                    5947 	.db #0x00	; 0
      00C3CF 00                    5948 	.db #0x00	; 0
      00C3D0 00                    5949 	.db #0x00	; 0
      00C3D1 86                    5950 	.db #0x86	; 134
      00C3D2 3B                    5951 	.db #0x3b	; 59
      00C3D3 C2                    5952 	.db #0xc2	; 194
      00C3D4 4C                    5953 	.db #0x4c	; 76	'L'
      00C3D5 42                    5954 	.db #0x42	; 66	'B'
      00C3D6 44                    5955 	.db #0x44	; 68	'D'
      00C3D7 62                    5956 	.db #0x62	; 98	'b'
      00C3D8 46                    5957 	.db #0x46	; 70	'F'
      00C3D9 32                    5958 	.db #0x32	; 50	'2'
      00C3DA 42                    5959 	.db #0x42	; 66	'B'
      00C3DB DC                    5960 	.db #0xdc	; 220
      00C3DC 41                    5961 	.db #0x41	; 65	'A'
      00C3DD 00                    5962 	.db #0x00	; 0
      00C3DE 00                    5963 	.db #0x00	; 0
      00C3DF 00                    5964 	.db #0x00	; 0
      00C3E0 00                    5965 	.db #0x00	; 0
      00C3E1 00                    5966 	.db #0x00	; 0
      00C3E2 00                    5967 	.db #0x00	; 0
      00C3E3 00                    5968 	.db #0x00	; 0
      00C3E4 07                    5969 	.db #0x07	; 7
      00C3E5 00                    5970 	.db #0x00	; 0
      00C3E6 07                    5971 	.db #0x07	; 7
      00C3E7 00                    5972 	.db #0x00	; 0
      00C3E8 07                    5973 	.db #0x07	; 7
      00C3E9 00                    5974 	.db #0x00	; 0
      00C3EA 07                    5975 	.db #0x07	; 7
      00C3EB 00                    5976 	.db #0x00	; 0
      00C3EC 07                    5977 	.db #0x07	; 7
      00C3ED 00                    5978 	.db #0x00	; 0
      00C3EE 07                    5979 	.db #0x07	; 7
      00C3EF 00                    5980 	.db #0x00	; 0
      00C3F0 07                    5981 	.db #0x07	; 7
      00C3F1 00                    5982 	.db #0x00	; 0
      00C3F2 07                    5983 	.db #0x07	; 7
      00C3F3 00                    5984 	.db #0x00	; 0
      00C3F4 00                    5985 	.db #0x00	; 0
      00C3F5 00                    5986 	.db #0x00	; 0
      00C3F6 00                    5987 	.db #0x00	; 0
      00C3F7 00                    5988 	.db #0x00	; 0
      00C3F8 00                    5989 	.db #0x00	; 0
      00C3F9 11                    5990 	.db #0x11	; 17
      00C3FA 10                    5991 	.db #0x10	; 16
      00C3FB 09                    5992 	.db #0x09	; 9
      00C3FC 20                    5993 	.db #0x20	; 32
      00C3FD FD                    5994 	.db #0xfd	; 253
      00C3FE 7F                    5995 	.db #0x7f	; 127
      00C3FF 09                    5996 	.db #0x09	; 9
      00C400 20                    5997 	.db #0x20	; 32
      00C401 11                    5998 	.db #0x11	; 17
      00C402 10                    5999 	.db #0x10	; 16
      00C403 00                    6000 	.db #0x00	; 0
      00C404 00                    6001 	.db #0x00	; 0
      00C405 00                    6002 	.db #0x00	; 0
      00C406 00                    6003 	.db #0x00	; 0
      00C407 00                    6004 	.db #0x00	; 0
      00C408 00                    6005 	.db #0x00	; 0
      00C409 00                    6006 	.db #0x00	; 0
      00C40A 00                    6007 	.db #0x00	; 0
      00C40B 00                    6008 	.db #0x00	; 0
      00C40C 00                    6009 	.db #0x00	; 0
      00C40D 00                    6010 	.db #0x00	; 0
      00C40E 10                    6011 	.db #0x10	; 16
      00C40F 00                    6012 	.db #0x00	; 0
      00C410 20                    6013 	.db #0x20	; 32
      00C411 FE                    6014 	.db #0xfe	; 254
      00C412 7F                    6015 	.db #0x7f	; 127
      00C413 00                    6016 	.db #0x00	; 0
      00C414 20                    6017 	.db #0x20	; 32
      00C415 00                    6018 	.db #0x00	; 0
      00C416 10                    6019 	.db #0x10	; 16
      00C417 00                    6020 	.db #0x00	; 0
      00C418 00                    6021 	.db #0x00	; 0
      00C419 00                    6022 	.db #0x00	; 0
      00C41A 00                    6023 	.db #0x00	; 0
      00C41B 00                    6024 	.db #0x00	; 0
      00C41C 00                    6025 	.db #0x00	; 0
      00C41D 00                    6026 	.db #0x00	; 0
      00C41E 00                    6027 	.db #0x00	; 0
      00C41F 00                    6028 	.db #0x00	; 0
      00C420 00                    6029 	.db #0x00	; 0
      00C421 08                    6030 	.db #0x08	; 8
      00C422 00                    6031 	.db #0x00	; 0
      00C423 04                    6032 	.db #0x04	; 4
      00C424 00                    6033 	.db #0x00	; 0
      00C425 FE                    6034 	.db #0xfe	; 254
      00C426 7F                    6035 	.db #0x7f	; 127
      00C427 04                    6036 	.db #0x04	; 4
      00C428 00                    6037 	.db #0x00	; 0
      00C429 08                    6038 	.db #0x08	; 8
      00C42A 00                    6039 	.db #0x00	; 0
      00C42B 00                    6040 	.db #0x00	; 0
      00C42C 00                    6041 	.db #0x00	; 0
      00C42D 00                    6042 	.db #0x00	; 0
      00C42E 00                    6043 	.db #0x00	; 0
      00C42F 00                    6044 	.db #0x00	; 0
      00C430 00                    6045 	.db #0x00	; 0
      00C431 00                    6046 	.db #0x00	; 0
      00C432 00                    6047 	.db #0x00	; 0
      00C433 80                    6048 	.db #0x80	; 128
      00C434 00                    6049 	.db #0x00	; 0
      00C435 80                    6050 	.db #0x80	; 128
      00C436 00                    6051 	.db #0x00	; 0
      00C437 80                    6052 	.db #0x80	; 128
      00C438 00                    6053 	.db #0x00	; 0
      00C439 80                    6054 	.db #0x80	; 128
      00C43A 00                    6055 	.db #0x00	; 0
      00C43B 80                    6056 	.db #0x80	; 128
      00C43C 00                    6057 	.db #0x00	; 0
      00C43D A0                    6058 	.db #0xa0	; 160
      00C43E 02                    6059 	.db #0x02	; 2
      00C43F C0                    6060 	.db #0xc0	; 192
      00C440 01                    6061 	.db #0x01	; 1
      00C441 80                    6062 	.db #0x80	; 128
      00C442 00                    6063 	.db #0x00	; 0
      00C443 00                    6064 	.db #0x00	; 0
      00C444 00                    6065 	.db #0x00	; 0
      00C445 00                    6066 	.db #0x00	; 0
      00C446 00                    6067 	.db #0x00	; 0
      00C447 80                    6068 	.db #0x80	; 128
      00C448 00                    6069 	.db #0x00	; 0
      00C449 C0                    6070 	.db #0xc0	; 192
      00C44A 01                    6071 	.db #0x01	; 1
      00C44B A0                    6072 	.db #0xa0	; 160
      00C44C 02                    6073 	.db #0x02	; 2
      00C44D 80                    6074 	.db #0x80	; 128
      00C44E 00                    6075 	.db #0x00	; 0
      00C44F 80                    6076 	.db #0x80	; 128
      00C450 00                    6077 	.db #0x00	; 0
      00C451 80                    6078 	.db #0x80	; 128
      00C452 00                    6079 	.db #0x00	; 0
      00C453 80                    6080 	.db #0x80	; 128
      00C454 00                    6081 	.db #0x00	; 0
      00C455 80                    6082 	.db #0x80	; 128
      00C456 00                    6083 	.db #0x00	; 0
      00C457 00                    6084 	.db #0x00	; 0
      00C458 00                    6085 	.db #0x00	; 0
      00C459 00                    6086 	.db #0x00	; 0
      00C45A 00                    6087 	.db #0x00	; 0
      00C45B F8                    6088 	.db #0xf8	; 248
      00C45C 07                    6089 	.db #0x07	; 7
      00C45D 08                    6090 	.db #0x08	; 8
      00C45E 00                    6091 	.db #0x00	; 0
      00C45F 08                    6092 	.db #0x08	; 8
      00C460 00                    6093 	.db #0x00	; 0
      00C461 08                    6094 	.db #0x08	; 8
      00C462 00                    6095 	.db #0x00	; 0
      00C463 08                    6096 	.db #0x08	; 8
      00C464 00                    6097 	.db #0x00	; 0
      00C465 08                    6098 	.db #0x08	; 8
      00C466 00                    6099 	.db #0x00	; 0
      00C467 08                    6100 	.db #0x08	; 8
      00C468 00                    6101 	.db #0x00	; 0
      00C469 08                    6102 	.db #0x08	; 8
      00C46A 00                    6103 	.db #0x00	; 0
      00C46B 00                    6104 	.db #0x00	; 0
      00C46C 00                    6105 	.db #0x00	; 0
      00C46D 00                    6106 	.db #0x00	; 0
      00C46E 00                    6107 	.db #0x00	; 0
      00C46F 80                    6108 	.db #0x80	; 128
      00C470 00                    6109 	.db #0x00	; 0
      00C471 C0                    6110 	.db #0xc0	; 192
      00C472 01                    6111 	.db #0x01	; 1
      00C473 A0                    6112 	.db #0xa0	; 160
      00C474 02                    6113 	.db #0x02	; 2
      00C475 80                    6114 	.db #0x80	; 128
      00C476 00                    6115 	.db #0x00	; 0
      00C477 80                    6116 	.db #0x80	; 128
      00C478 00                    6117 	.db #0x00	; 0
      00C479 A0                    6118 	.db #0xa0	; 160
      00C47A 02                    6119 	.db #0x02	; 2
      00C47B C0                    6120 	.db #0xc0	; 192
      00C47C 01                    6121 	.db #0x01	; 1
      00C47D 80                    6122 	.db #0x80	; 128
      00C47E 00                    6123 	.db #0x00	; 0
      00C47F 00                    6124 	.db #0x00	; 0
      00C480 00                    6125 	.db #0x00	; 0
      00C481 08                    6126 	.db #0x08	; 8
      00C482 00                    6127 	.db #0x00	; 0
      00C483 18                    6128 	.db #0x18	; 24
      00C484 00                    6129 	.db #0x00	; 0
      00C485 78                    6130 	.db #0x78	; 120	'x'
      00C486 00                    6131 	.db #0x00	; 0
      00C487 F8                    6132 	.db #0xf8	; 248
      00C488 01                    6133 	.db #0x01	; 1
      00C489 F8                    6134 	.db #0xf8	; 248
      00C48A 03                    6135 	.db #0x03	; 3
      00C48B F8                    6136 	.db #0xf8	; 248
      00C48C 0F                    6137 	.db #0x0f	; 15
      00C48D F8                    6138 	.db #0xf8	; 248
      00C48E 03                    6139 	.db #0x03	; 3
      00C48F F8                    6140 	.db #0xf8	; 248
      00C490 00                    6141 	.db #0x00	; 0
      00C491 38                    6142 	.db #0x38	; 56	'8'
      00C492 00                    6143 	.db #0x00	; 0
      00C493 08                    6144 	.db #0x08	; 8
      00C494 00                    6145 	.db #0x00	; 0
      00C495 00                    6146 	.db #0x00	; 0
      00C496 08                    6147 	.db #0x08	; 8
      00C497 00                    6148 	.db #0x00	; 0
      00C498 0C                    6149 	.db #0x0c	; 12
      00C499 00                    6150 	.db #0x00	; 0
      00C49A 0F                    6151 	.db #0x0f	; 15
      00C49B C0                    6152 	.db #0xc0	; 192
      00C49C 0F                    6153 	.db #0x0f	; 15
      00C49D E0                    6154 	.db #0xe0	; 224
      00C49E 0F                    6155 	.db #0x0f	; 15
      00C49F F8                    6156 	.db #0xf8	; 248
      00C4A0 0F                    6157 	.db #0x0f	; 15
      00C4A1 E0                    6158 	.db #0xe0	; 224
      00C4A2 0F                    6159 	.db #0x0f	; 15
      00C4A3 80                    6160 	.db #0x80	; 128
      00C4A4 0F                    6161 	.db #0x0f	; 15
      00C4A5 00                    6162 	.db #0x00	; 0
      00C4A6 0E                    6163 	.db #0x0e	; 14
      00C4A7 00                    6164 	.db #0x00	; 0
      00C4A8 08                    6165 	.db #0x08	; 8
      00C4A9 00                    6166 	.db #0x00	; 0
      00C4AA 00                    6167 	.db #0x00	; 0
      00C4AB 00                    6168 	.db #0x00	; 0
      00C4AC 00                    6169 	.db #0x00	; 0
      00C4AD 00                    6170 	.db #0x00	; 0
      00C4AE 00                    6171 	.db #0x00	; 0
      00C4AF 00                    6172 	.db #0x00	; 0
      00C4B0 00                    6173 	.db #0x00	; 0
      00C4B1 00                    6174 	.db #0x00	; 0
      00C4B2 00                    6175 	.db #0x00	; 0
      00C4B3 00                    6176 	.db #0x00	; 0
      00C4B4 00                    6177 	.db #0x00	; 0
      00C4B5 00                    6178 	.db #0x00	; 0
      00C4B6 00                    6179 	.db #0x00	; 0
      00C4B7 00                    6180 	.db #0x00	; 0
      00C4B8 00                    6181 	.db #0x00	; 0
      00C4B9 00                    6182 	.db #0x00	; 0
      00C4BA 00                    6183 	.db #0x00	; 0
      00C4BB 00                    6184 	.db #0x00	; 0
      00C4BC 00                    6185 	.db #0x00	; 0
      00C4BD 00                    6186 	.db #0x00	; 0
      00C4BE 00                    6187 	.db #0x00	; 0
      00C4BF 00                    6188 	.db #0x00	; 0
      00C4C0 00                    6189 	.db #0x00	; 0
      00C4C1 00                    6190 	.db #0x00	; 0
      00C4C2 00                    6191 	.db #0x00	; 0
      00C4C3 00                    6192 	.db #0x00	; 0
      00C4C4 00                    6193 	.db #0x00	; 0
      00C4C5 D8                    6194 	.db #0xd8	; 216
      00C4C6 7F                    6195 	.db #0x7f	; 127
      00C4C7 00                    6196 	.db #0x00	; 0
      00C4C8 00                    6197 	.db #0x00	; 0
      00C4C9 00                    6198 	.db #0x00	; 0
      00C4CA 00                    6199 	.db #0x00	; 0
      00C4CB 00                    6200 	.db #0x00	; 0
      00C4CC 00                    6201 	.db #0x00	; 0
      00C4CD 00                    6202 	.db #0x00	; 0
      00C4CE 00                    6203 	.db #0x00	; 0
      00C4CF 00                    6204 	.db #0x00	; 0
      00C4D0 00                    6205 	.db #0x00	; 0
      00C4D1 00                    6206 	.db #0x00	; 0
      00C4D2 00                    6207 	.db #0x00	; 0
      00C4D3 00                    6208 	.db #0x00	; 0
      00C4D4 00                    6209 	.db #0x00	; 0
      00C4D5 00                    6210 	.db #0x00	; 0
      00C4D6 78                    6211 	.db #0x78	; 120	'x'
      00C4D7 00                    6212 	.db #0x00	; 0
      00C4D8 00                    6213 	.db #0x00	; 0
      00C4D9 00                    6214 	.db #0x00	; 0
      00C4DA 00                    6215 	.db #0x00	; 0
      00C4DB 00                    6216 	.db #0x00	; 0
      00C4DC 00                    6217 	.db #0x00	; 0
      00C4DD 00                    6218 	.db #0x00	; 0
      00C4DE 78                    6219 	.db #0x78	; 120	'x'
      00C4DF 00                    6220 	.db #0x00	; 0
      00C4E0 00                    6221 	.db #0x00	; 0
      00C4E1 00                    6222 	.db #0x00	; 0
      00C4E2 00                    6223 	.db #0x00	; 0
      00C4E3 00                    6224 	.db #0x00	; 0
      00C4E4 00                    6225 	.db #0x00	; 0
      00C4E5 80                    6226 	.db #0x80	; 128
      00C4E6 00                    6227 	.db #0x00	; 0
      00C4E7 98                    6228 	.db #0x98	; 152
      00C4E8 04                    6229 	.db #0x04	; 4
      00C4E9 E0                    6230 	.db #0xe0	; 224
      00C4EA 05                    6231 	.db #0x05	; 5
      00C4EB 80                    6232 	.db #0x80	; 128
      00C4EC 1E                    6233 	.db #0x1e	; 30
      00C4ED 98                    6234 	.db #0x98	; 152
      00C4EE 64                    6235 	.db #0x64	; 100	'd'
      00C4EF E0                    6236 	.db #0xe0	; 224
      00C4F0 05                    6237 	.db #0x05	; 5
      00C4F1 80                    6238 	.db #0x80	; 128
      00C4F2 1E                    6239 	.db #0x1e	; 30
      00C4F3 80                    6240 	.db #0x80	; 128
      00C4F4 64                    6241 	.db #0x64	; 100	'd'
      00C4F5 80                    6242 	.db #0x80	; 128
      00C4F6 04                    6243 	.db #0x04	; 4
      00C4F7 00                    6244 	.db #0x00	; 0
      00C4F8 00                    6245 	.db #0x00	; 0
      00C4F9 00                    6246 	.db #0x00	; 0
      00C4FA 00                    6247 	.db #0x00	; 0
      00C4FB 00                    6248 	.db #0x00	; 0
      00C4FC 00                    6249 	.db #0x00	; 0
      00C4FD 18                    6250 	.db #0x18	; 24
      00C4FE 38                    6251 	.db #0x38	; 56	'8'
      00C4FF 08                    6252 	.db #0x08	; 8
      00C500 64                    6253 	.db #0x64	; 100	'd'
      00C501 08                    6254 	.db #0x08	; 8
      00C502 42                    6255 	.db #0x42	; 66	'B'
      00C503 FC                    6256 	.db #0xfc	; 252
      00C504 FF                    6257 	.db #0xff	; 255
      00C505 88                    6258 	.db #0x88	; 136
      00C506 41                    6259 	.db #0x41	; 65	'A'
      00C507 F0                    6260 	.db #0xf0	; 240
      00C508 40                    6261 	.db #0x40	; 64
      00C509 00                    6262 	.db #0x00	; 0
      00C50A 00                    6263 	.db #0x00	; 0
      00C50B 00                    6264 	.db #0x00	; 0
      00C50C 00                    6265 	.db #0x00	; 0
      00C50D 08                    6266 	.db #0x08	; 8
      00C50E 38                    6267 	.db #0x38	; 56	'8'
      00C50F 10                    6268 	.db #0x10	; 16
      00C510 44                    6269 	.db #0x44	; 68	'D'
      00C511 20                    6270 	.db #0x20	; 32
      00C512 44                    6271 	.db #0x44	; 68	'D'
      00C513 C0                    6272 	.db #0xc0	; 192
      00C514 44                    6273 	.db #0x44	; 68	'D'
      00C515 00                    6274 	.db #0x00	; 0
      00C516 39                    6275 	.db #0x39	; 57	'9'
      00C517 70                    6276 	.db #0x70	; 112	'p'
      00C518 02                    6277 	.db #0x02	; 2
      00C519 88                    6278 	.db #0x88	; 136
      00C51A 0C                    6279 	.db #0x0c	; 12
      00C51B 88                    6280 	.db #0x88	; 136
      00C51C 10                    6281 	.db #0x10	; 16
      00C51D 88                    6282 	.db #0x88	; 136
      00C51E 20                    6283 	.db #0x20	; 32
      00C51F 70                    6284 	.db #0x70	; 112	'p'
      00C520 40                    6285 	.db #0x40	; 64
      00C521 E0                    6286 	.db #0xe0	; 224
      00C522 00                    6287 	.db #0x00	; 0
      00C523 10                    6288 	.db #0x10	; 16
      00C524 01                    6289 	.db #0x01	; 1
      00C525 08                    6290 	.db #0x08	; 8
      00C526 3A                    6291 	.db #0x3a	; 58
      00C527 08                    6292 	.db #0x08	; 8
      00C528 46                    6293 	.db #0x46	; 70	'F'
      00C529 88                    6294 	.db #0x88	; 136
      00C52A 45                    6295 	.db #0x45	; 69	'E'
      00C52B C8                    6296 	.db #0xc8	; 200
      00C52C 4C                    6297 	.db #0x4c	; 76	'L'
      00C52D 38                    6298 	.db #0x38	; 56	'8'
      00C52E 38                    6299 	.db #0x38	; 56	'8'
      00C52F 18                    6300 	.db #0x18	; 24
      00C530 00                    6301 	.db #0x00	; 0
      00C531 68                    6302 	.db #0x68	; 104	'h'
      00C532 00                    6303 	.db #0x00	; 0
      00C533 80                    6304 	.db #0x80	; 128
      00C534 01                    6305 	.db #0x01	; 1
      00C535 00                    6306 	.db #0x00	; 0
      00C536 00                    6307 	.db #0x00	; 0
      00C537 00                    6308 	.db #0x00	; 0
      00C538 00                    6309 	.db #0x00	; 0
      00C539 00                    6310 	.db #0x00	; 0
      00C53A 00                    6311 	.db #0x00	; 0
      00C53B 00                    6312 	.db #0x00	; 0
      00C53C 00                    6313 	.db #0x00	; 0
      00C53D 00                    6314 	.db #0x00	; 0
      00C53E 78                    6315 	.db #0x78	; 120	'x'
      00C53F 00                    6316 	.db #0x00	; 0
      00C540 00                    6317 	.db #0x00	; 0
      00C541 00                    6318 	.db #0x00	; 0
      00C542 00                    6319 	.db #0x00	; 0
      00C543 00                    6320 	.db #0x00	; 0
      00C544 00                    6321 	.db #0x00	; 0
      00C545 00                    6322 	.db #0x00	; 0
      00C546 00                    6323 	.db #0x00	; 0
      00C547 00                    6324 	.db #0x00	; 0
      00C548 00                    6325 	.db #0x00	; 0
      00C549 00                    6326 	.db #0x00	; 0
      00C54A 00                    6327 	.db #0x00	; 0
      00C54B 00                    6328 	.db #0x00	; 0
      00C54C 00                    6329 	.db #0x00	; 0
      00C54D 00                    6330 	.db #0x00	; 0
      00C54E 00                    6331 	.db #0x00	; 0
      00C54F E0                    6332 	.db #0xe0	; 224
      00C550 07                    6333 	.db #0x07	; 7
      00C551 18                    6334 	.db #0x18	; 24
      00C552 18                    6335 	.db #0x18	; 24
      00C553 0C                    6336 	.db #0x0c	; 12
      00C554 30                    6337 	.db #0x30	; 48	'0'
      00C555 04                    6338 	.db #0x04	; 4
      00C556 20                    6339 	.db #0x20	; 32
      00C557 02                    6340 	.db #0x02	; 2
      00C558 40                    6341 	.db #0x40	; 64
      00C559 02                    6342 	.db #0x02	; 2
      00C55A 40                    6343 	.db #0x40	; 64
      00C55B 00                    6344 	.db #0x00	; 0
      00C55C 00                    6345 	.db #0x00	; 0
      00C55D 00                    6346 	.db #0x00	; 0
      00C55E 00                    6347 	.db #0x00	; 0
      00C55F 02                    6348 	.db #0x02	; 2
      00C560 40                    6349 	.db #0x40	; 64
      00C561 02                    6350 	.db #0x02	; 2
      00C562 40                    6351 	.db #0x40	; 64
      00C563 04                    6352 	.db #0x04	; 4
      00C564 20                    6353 	.db #0x20	; 32
      00C565 0C                    6354 	.db #0x0c	; 12
      00C566 30                    6355 	.db #0x30	; 48	'0'
      00C567 18                    6356 	.db #0x18	; 24
      00C568 18                    6357 	.db #0x18	; 24
      00C569 E0                    6358 	.db #0xe0	; 224
      00C56A 07                    6359 	.db #0x07	; 7
      00C56B 00                    6360 	.db #0x00	; 0
      00C56C 00                    6361 	.db #0x00	; 0
      00C56D 00                    6362 	.db #0x00	; 0
      00C56E 00                    6363 	.db #0x00	; 0
      00C56F 00                    6364 	.db #0x00	; 0
      00C570 00                    6365 	.db #0x00	; 0
      00C571 00                    6366 	.db #0x00	; 0
      00C572 00                    6367 	.db #0x00	; 0
      00C573 00                    6368 	.db #0x00	; 0
      00C574 10                    6369 	.db #0x10	; 16
      00C575 00                    6370 	.db #0x00	; 0
      00C576 18                    6371 	.db #0x18	; 24
      00C577 00                    6372 	.db #0x00	; 0
      00C578 0F                    6373 	.db #0x0f	; 15
      00C579 00                    6374 	.db #0x00	; 0
      00C57A 72                    6375 	.db #0x72	; 114	'r'
      00C57B 00                    6376 	.db #0x00	; 0
      00C57C 0F                    6377 	.db #0x0f	; 15
      00C57D 00                    6378 	.db #0x00	; 0
      00C57E 18                    6379 	.db #0x18	; 24
      00C57F 00                    6380 	.db #0x00	; 0
      00C580 10                    6381 	.db #0x10	; 16
      00C581 00                    6382 	.db #0x00	; 0
      00C582 00                    6383 	.db #0x00	; 0
      00C583 00                    6384 	.db #0x00	; 0
      00C584 00                    6385 	.db #0x00	; 0
      00C585 40                    6386 	.db #0x40	; 64
      00C586 00                    6387 	.db #0x00	; 0
      00C587 40                    6388 	.db #0x40	; 64
      00C588 00                    6389 	.db #0x00	; 0
      00C589 40                    6390 	.db #0x40	; 64
      00C58A 00                    6391 	.db #0x00	; 0
      00C58B 40                    6392 	.db #0x40	; 64
      00C58C 00                    6393 	.db #0x00	; 0
      00C58D F8                    6394 	.db #0xf8	; 248
      00C58E 07                    6395 	.db #0x07	; 7
      00C58F 40                    6396 	.db #0x40	; 64
      00C590 00                    6397 	.db #0x00	; 0
      00C591 40                    6398 	.db #0x40	; 64
      00C592 00                    6399 	.db #0x00	; 0
      00C593 40                    6400 	.db #0x40	; 64
      00C594 00                    6401 	.db #0x00	; 0
      00C595 40                    6402 	.db #0x40	; 64
      00C596 00                    6403 	.db #0x00	; 0
      00C597 00                    6404 	.db #0x00	; 0
      00C598 00                    6405 	.db #0x00	; 0
      00C599 00                    6406 	.db #0x00	; 0
      00C59A 00                    6407 	.db #0x00	; 0
      00C59B 00                    6408 	.db #0x00	; 0
      00C59C 00                    6409 	.db #0x00	; 0
      00C59D 00                    6410 	.db #0x00	; 0
      00C59E 00                    6411 	.db #0x00	; 0
      00C59F 19                    6412 	.db #0x19	; 25
      00C5A0 00                    6413 	.db #0x00	; 0
      00C5A1 1E                    6414 	.db #0x1e	; 30
      00C5A2 00                    6415 	.db #0x00	; 0
      00C5A3 00                    6416 	.db #0x00	; 0
      00C5A4 00                    6417 	.db #0x00	; 0
      00C5A5 00                    6418 	.db #0x00	; 0
      00C5A6 00                    6419 	.db #0x00	; 0
      00C5A7 00                    6420 	.db #0x00	; 0
      00C5A8 00                    6421 	.db #0x00	; 0
      00C5A9 00                    6422 	.db #0x00	; 0
      00C5AA 00                    6423 	.db #0x00	; 0
      00C5AB 00                    6424 	.db #0x00	; 0
      00C5AC 00                    6425 	.db #0x00	; 0
      00C5AD 00                    6426 	.db #0x00	; 0
      00C5AE 00                    6427 	.db #0x00	; 0
      00C5AF 00                    6428 	.db #0x00	; 0
      00C5B0 00                    6429 	.db #0x00	; 0
      00C5B1 80                    6430 	.db #0x80	; 128
      00C5B2 00                    6431 	.db #0x00	; 0
      00C5B3 80                    6432 	.db #0x80	; 128
      00C5B4 00                    6433 	.db #0x00	; 0
      00C5B5 80                    6434 	.db #0x80	; 128
      00C5B6 00                    6435 	.db #0x00	; 0
      00C5B7 80                    6436 	.db #0x80	; 128
      00C5B8 00                    6437 	.db #0x00	; 0
      00C5B9 80                    6438 	.db #0x80	; 128
      00C5BA 00                    6439 	.db #0x00	; 0
      00C5BB 80                    6440 	.db #0x80	; 128
      00C5BC 00                    6441 	.db #0x00	; 0
      00C5BD 00                    6442 	.db #0x00	; 0
      00C5BE 00                    6443 	.db #0x00	; 0
      00C5BF 00                    6444 	.db #0x00	; 0
      00C5C0 00                    6445 	.db #0x00	; 0
      00C5C1 00                    6446 	.db #0x00	; 0
      00C5C2 00                    6447 	.db #0x00	; 0
      00C5C3 00                    6448 	.db #0x00	; 0
      00C5C4 00                    6449 	.db #0x00	; 0
      00C5C5 00                    6450 	.db #0x00	; 0
      00C5C6 00                    6451 	.db #0x00	; 0
      00C5C7 18                    6452 	.db #0x18	; 24
      00C5C8 00                    6453 	.db #0x00	; 0
      00C5C9 18                    6454 	.db #0x18	; 24
      00C5CA 00                    6455 	.db #0x00	; 0
      00C5CB 00                    6456 	.db #0x00	; 0
      00C5CC 00                    6457 	.db #0x00	; 0
      00C5CD 00                    6458 	.db #0x00	; 0
      00C5CE 00                    6459 	.db #0x00	; 0
      00C5CF 00                    6460 	.db #0x00	; 0
      00C5D0 00                    6461 	.db #0x00	; 0
      00C5D1 00                    6462 	.db #0x00	; 0
      00C5D2 00                    6463 	.db #0x00	; 0
      00C5D3 00                    6464 	.db #0x00	; 0
      00C5D4 00                    6465 	.db #0x00	; 0
      00C5D5 00                    6466 	.db #0x00	; 0
      00C5D6 00                    6467 	.db #0x00	; 0
      00C5D7 02                    6468 	.db #0x02	; 2
      00C5D8 00                    6469 	.db #0x00	; 0
      00C5D9 0C                    6470 	.db #0x0c	; 12
      00C5DA 00                    6471 	.db #0x00	; 0
      00C5DB 30                    6472 	.db #0x30	; 48	'0'
      00C5DC 00                    6473 	.db #0x00	; 0
      00C5DD C0                    6474 	.db #0xc0	; 192
      00C5DE 00                    6475 	.db #0x00	; 0
      00C5DF 00                    6476 	.db #0x00	; 0
      00C5E0 03                    6477 	.db #0x03	; 3
      00C5E1 00                    6478 	.db #0x00	; 0
      00C5E2 0C                    6479 	.db #0x0c	; 12
      00C5E3 00                    6480 	.db #0x00	; 0
      00C5E4 30                    6481 	.db #0x30	; 48	'0'
      00C5E5 00                    6482 	.db #0x00	; 0
      00C5E6 40                    6483 	.db #0x40	; 64
      00C5E7 00                    6484 	.db #0x00	; 0
      00C5E8 00                    6485 	.db #0x00	; 0
      00C5E9 00                    6486 	.db #0x00	; 0
      00C5EA 00                    6487 	.db #0x00	; 0
      00C5EB C0                    6488 	.db #0xc0	; 192
      00C5EC 0F                    6489 	.db #0x0f	; 15
      00C5ED 30                    6490 	.db #0x30	; 48	'0'
      00C5EE 30                    6491 	.db #0x30	; 48	'0'
      00C5EF 08                    6492 	.db #0x08	; 8
      00C5F0 40                    6493 	.db #0x40	; 64
      00C5F1 08                    6494 	.db #0x08	; 8
      00C5F2 40                    6495 	.db #0x40	; 64
      00C5F3 08                    6496 	.db #0x08	; 8
      00C5F4 40                    6497 	.db #0x40	; 64
      00C5F5 30                    6498 	.db #0x30	; 48	'0'
      00C5F6 30                    6499 	.db #0x30	; 48	'0'
      00C5F7 C0                    6500 	.db #0xc0	; 192
      00C5F8 0F                    6501 	.db #0x0f	; 15
      00C5F9 00                    6502 	.db #0x00	; 0
      00C5FA 00                    6503 	.db #0x00	; 0
      00C5FB 00                    6504 	.db #0x00	; 0
      00C5FC 00                    6505 	.db #0x00	; 0
      00C5FD 00                    6506 	.db #0x00	; 0
      00C5FE 00                    6507 	.db #0x00	; 0
      00C5FF 08                    6508 	.db #0x08	; 8
      00C600 20                    6509 	.db #0x20	; 32
      00C601 08                    6510 	.db #0x08	; 8
      00C602 20                    6511 	.db #0x20	; 32
      00C603 08                    6512 	.db #0x08	; 8
      00C604 20                    6513 	.db #0x20	; 32
      00C605 F8                    6514 	.db #0xf8	; 248
      00C606 7F                    6515 	.db #0x7f	; 127
      00C607 08                    6516 	.db #0x08	; 8
      00C608 00                    6517 	.db #0x00	; 0
      00C609 08                    6518 	.db #0x08	; 8
      00C60A 00                    6519 	.db #0x00	; 0
      00C60B 08                    6520 	.db #0x08	; 8
      00C60C 00                    6521 	.db #0x00	; 0
      00C60D 00                    6522 	.db #0x00	; 0
      00C60E 00                    6523 	.db #0x00	; 0
      00C60F 00                    6524 	.db #0x00	; 0
      00C610 00                    6525 	.db #0x00	; 0
      00C611 00                    6526 	.db #0x00	; 0
      00C612 00                    6527 	.db #0x00	; 0
      00C613 18                    6528 	.db #0x18	; 24
      00C614 60                    6529 	.db #0x60	; 96
      00C615 28                    6530 	.db #0x28	; 40
      00C616 40                    6531 	.db #0x40	; 64
      00C617 48                    6532 	.db #0x48	; 72	'H'
      00C618 40                    6533 	.db #0x40	; 64
      00C619 88                    6534 	.db #0x88	; 136
      00C61A 40                    6535 	.db #0x40	; 64
      00C61B 08                    6536 	.db #0x08	; 8
      00C61C 43                    6537 	.db #0x43	; 67	'C'
      00C61D 08                    6538 	.db #0x08	; 8
      00C61E 3C                    6539 	.db #0x3c	; 60
      00C61F 00                    6540 	.db #0x00	; 0
      00C620 00                    6541 	.db #0x00	; 0
      00C621 00                    6542 	.db #0x00	; 0
      00C622 00                    6543 	.db #0x00	; 0
      00C623 00                    6544 	.db #0x00	; 0
      00C624 00                    6545 	.db #0x00	; 0
      00C625 00                    6546 	.db #0x00	; 0
      00C626 00                    6547 	.db #0x00	; 0
      00C627 00                    6548 	.db #0x00	; 0
      00C628 00                    6549 	.db #0x00	; 0
      00C629 08                    6550 	.db #0x08	; 8
      00C62A 40                    6551 	.db #0x40	; 64
      00C62B 08                    6552 	.db #0x08	; 8
      00C62C 42                    6553 	.db #0x42	; 66	'B'
      00C62D 08                    6554 	.db #0x08	; 8
      00C62E 42                    6555 	.db #0x42	; 66	'B'
      00C62F 08                    6556 	.db #0x08	; 8
      00C630 42                    6557 	.db #0x42	; 66	'B'
      00C631 F0                    6558 	.db #0xf0	; 240
      00C632 3D                    6559 	.db #0x3d	; 61
      00C633 00                    6560 	.db #0x00	; 0
      00C634 00                    6561 	.db #0x00	; 0
      00C635 00                    6562 	.db #0x00	; 0
      00C636 00                    6563 	.db #0x00	; 0
      00C637 00                    6564 	.db #0x00	; 0
      00C638 00                    6565 	.db #0x00	; 0
      00C639 C0                    6566 	.db #0xc0	; 192
      00C63A 00                    6567 	.db #0x00	; 0
      00C63B 40                    6568 	.db #0x40	; 64
      00C63C 03                    6569 	.db #0x03	; 3
      00C63D 40                    6570 	.db #0x40	; 64
      00C63E 04                    6571 	.db #0x04	; 4
      00C63F 40                    6572 	.db #0x40	; 64
      00C640 18                    6573 	.db #0x18	; 24
      00C641 40                    6574 	.db #0x40	; 64
      00C642 20                    6575 	.db #0x20	; 32
      00C643 F8                    6576 	.db #0xf8	; 248
      00C644 7F                    6577 	.db #0x7f	; 127
      00C645 40                    6578 	.db #0x40	; 64
      00C646 00                    6579 	.db #0x00	; 0
      00C647 40                    6580 	.db #0x40	; 64
      00C648 00                    6581 	.db #0x00	; 0
      00C649 00                    6582 	.db #0x00	; 0
      00C64A 00                    6583 	.db #0x00	; 0
      00C64B 00                    6584 	.db #0x00	; 0
      00C64C 00                    6585 	.db #0x00	; 0
      00C64D 00                    6586 	.db #0x00	; 0
      00C64E 00                    6587 	.db #0x00	; 0
      00C64F 00                    6588 	.db #0x00	; 0
      00C650 00                    6589 	.db #0x00	; 0
      00C651 08                    6590 	.db #0x08	; 8
      00C652 7C                    6591 	.db #0x7c	; 124
      00C653 08                    6592 	.db #0x08	; 8
      00C654 44                    6593 	.db #0x44	; 68	'D'
      00C655 08                    6594 	.db #0x08	; 8
      00C656 44                    6595 	.db #0x44	; 68	'D'
      00C657 10                    6596 	.db #0x10	; 16
      00C658 42                    6597 	.db #0x42	; 66	'B'
      00C659 E0                    6598 	.db #0xe0	; 224
      00C65A 41                    6599 	.db #0x41	; 65	'A'
      00C65B 00                    6600 	.db #0x00	; 0
      00C65C 00                    6601 	.db #0x00	; 0
      00C65D 00                    6602 	.db #0x00	; 0
      00C65E 00                    6603 	.db #0x00	; 0
      00C65F 00                    6604 	.db #0x00	; 0
      00C660 00                    6605 	.db #0x00	; 0
      00C661 00                    6606 	.db #0x00	; 0
      00C662 00                    6607 	.db #0x00	; 0
      00C663 E0                    6608 	.db #0xe0	; 224
      00C664 0F                    6609 	.db #0x0f	; 15
      00C665 10                    6610 	.db #0x10	; 16
      00C666 32                    6611 	.db #0x32	; 50	'2'
      00C667 08                    6612 	.db #0x08	; 8
      00C668 44                    6613 	.db #0x44	; 68	'D'
      00C669 08                    6614 	.db #0x08	; 8
      00C66A 44                    6615 	.db #0x44	; 68	'D'
      00C66B 08                    6616 	.db #0x08	; 8
      00C66C 44                    6617 	.db #0x44	; 68	'D'
      00C66D 10                    6618 	.db #0x10	; 16
      00C66E 42                    6619 	.db #0x42	; 66	'B'
      00C66F E0                    6620 	.db #0xe0	; 224
      00C670 01                    6621 	.db #0x01	; 1
      00C671 00                    6622 	.db #0x00	; 0
      00C672 00                    6623 	.db #0x00	; 0
      00C673 00                    6624 	.db #0x00	; 0
      00C674 00                    6625 	.db #0x00	; 0
      00C675 00                    6626 	.db #0x00	; 0
      00C676 00                    6627 	.db #0x00	; 0
      00C677 00                    6628 	.db #0x00	; 0
      00C678 40                    6629 	.db #0x40	; 64
      00C679 18                    6630 	.db #0x18	; 24
      00C67A 40                    6631 	.db #0x40	; 64
      00C67B E0                    6632 	.db #0xe0	; 224
      00C67C 40                    6633 	.db #0x40	; 64
      00C67D 00                    6634 	.db #0x00	; 0
      00C67E 43                    6635 	.db #0x43	; 67	'C'
      00C67F 00                    6636 	.db #0x00	; 0
      00C680 4C                    6637 	.db #0x4c	; 76	'L'
      00C681 00                    6638 	.db #0x00	; 0
      00C682 50                    6639 	.db #0x50	; 80	'P'
      00C683 00                    6640 	.db #0x00	; 0
      00C684 60                    6641 	.db #0x60	; 96
      00C685 00                    6642 	.db #0x00	; 0
      00C686 00                    6643 	.db #0x00	; 0
      00C687 00                    6644 	.db #0x00	; 0
      00C688 00                    6645 	.db #0x00	; 0
      00C689 00                    6646 	.db #0x00	; 0
      00C68A 00                    6647 	.db #0x00	; 0
      00C68B F0                    6648 	.db #0xf0	; 240
      00C68C 38                    6649 	.db #0x38	; 56	'8'
      00C68D 08                    6650 	.db #0x08	; 8
      00C68E 45                    6651 	.db #0x45	; 69	'E'
      00C68F 08                    6652 	.db #0x08	; 8
      00C690 42                    6653 	.db #0x42	; 66	'B'
      00C691 08                    6654 	.db #0x08	; 8
      00C692 42                    6655 	.db #0x42	; 66	'B'
      00C693 08                    6656 	.db #0x08	; 8
      00C694 45                    6657 	.db #0x45	; 69	'E'
      00C695 90                    6658 	.db #0x90	; 144
      00C696 45                    6659 	.db #0x45	; 69	'E'
      00C697 60                    6660 	.db #0x60	; 96
      00C698 38                    6661 	.db #0x38	; 56	'8'
      00C699 00                    6662 	.db #0x00	; 0
      00C69A 00                    6663 	.db #0x00	; 0
      00C69B 00                    6664 	.db #0x00	; 0
      00C69C 00                    6665 	.db #0x00	; 0
      00C69D 00                    6666 	.db #0x00	; 0
      00C69E 00                    6667 	.db #0x00	; 0
      00C69F 00                    6668 	.db #0x00	; 0
      00C6A0 1E                    6669 	.db #0x1e	; 30
      00C6A1 08                    6670 	.db #0x08	; 8
      00C6A2 21                    6671 	.db #0x21	; 33
      00C6A3 88                    6672 	.db #0x88	; 136
      00C6A4 40                    6673 	.db #0x40	; 64
      00C6A5 88                    6674 	.db #0x88	; 136
      00C6A6 40                    6675 	.db #0x40	; 64
      00C6A7 88                    6676 	.db #0x88	; 136
      00C6A8 40                    6677 	.db #0x40	; 64
      00C6A9 30                    6678 	.db #0x30	; 48	'0'
      00C6AA 21                    6679 	.db #0x21	; 33
      00C6AB C0                    6680 	.db #0xc0	; 192
      00C6AC 1F                    6681 	.db #0x1f	; 31
      00C6AD 00                    6682 	.db #0x00	; 0
      00C6AE 00                    6683 	.db #0x00	; 0
      00C6AF 00                    6684 	.db #0x00	; 0
      00C6B0 00                    6685 	.db #0x00	; 0
      00C6B1 00                    6686 	.db #0x00	; 0
      00C6B2 00                    6687 	.db #0x00	; 0
      00C6B3 00                    6688 	.db #0x00	; 0
      00C6B4 00                    6689 	.db #0x00	; 0
      00C6B5 00                    6690 	.db #0x00	; 0
      00C6B6 00                    6691 	.db #0x00	; 0
      00C6B7 18                    6692 	.db #0x18	; 24
      00C6B8 06                    6693 	.db #0x06	; 6
      00C6B9 18                    6694 	.db #0x18	; 24
      00C6BA 06                    6695 	.db #0x06	; 6
      00C6BB 00                    6696 	.db #0x00	; 0
      00C6BC 00                    6697 	.db #0x00	; 0
      00C6BD 00                    6698 	.db #0x00	; 0
      00C6BE 00                    6699 	.db #0x00	; 0
      00C6BF 00                    6700 	.db #0x00	; 0
      00C6C0 00                    6701 	.db #0x00	; 0
      00C6C1 00                    6702 	.db #0x00	; 0
      00C6C2 00                    6703 	.db #0x00	; 0
      00C6C3 00                    6704 	.db #0x00	; 0
      00C6C4 00                    6705 	.db #0x00	; 0
      00C6C5 00                    6706 	.db #0x00	; 0
      00C6C6 00                    6707 	.db #0x00	; 0
      00C6C7 00                    6708 	.db #0x00	; 0
      00C6C8 00                    6709 	.db #0x00	; 0
      00C6C9 00                    6710 	.db #0x00	; 0
      00C6CA 00                    6711 	.db #0x00	; 0
      00C6CB 19                    6712 	.db #0x19	; 25
      00C6CC 06                    6713 	.db #0x06	; 6
      00C6CD 1E                    6714 	.db #0x1e	; 30
      00C6CE 06                    6715 	.db #0x06	; 6
      00C6CF 00                    6716 	.db #0x00	; 0
      00C6D0 00                    6717 	.db #0x00	; 0
      00C6D1 00                    6718 	.db #0x00	; 0
      00C6D2 00                    6719 	.db #0x00	; 0
      00C6D3 00                    6720 	.db #0x00	; 0
      00C6D4 00                    6721 	.db #0x00	; 0
      00C6D5 00                    6722 	.db #0x00	; 0
      00C6D6 00                    6723 	.db #0x00	; 0
      00C6D7 00                    6724 	.db #0x00	; 0
      00C6D8 00                    6725 	.db #0x00	; 0
      00C6D9 00                    6726 	.db #0x00	; 0
      00C6DA 00                    6727 	.db #0x00	; 0
      00C6DB 00                    6728 	.db #0x00	; 0
      00C6DC 00                    6729 	.db #0x00	; 0
      00C6DD C0                    6730 	.db #0xc0	; 192
      00C6DE 00                    6731 	.db #0x00	; 0
      00C6DF C0                    6732 	.db #0xc0	; 192
      00C6E0 00                    6733 	.db #0x00	; 0
      00C6E1 20                    6734 	.db #0x20	; 32
      00C6E2 01                    6735 	.db #0x01	; 1
      00C6E3 20                    6736 	.db #0x20	; 32
      00C6E4 01                    6737 	.db #0x01	; 1
      00C6E5 10                    6738 	.db #0x10	; 16
      00C6E6 02                    6739 	.db #0x02	; 2
      00C6E7 10                    6740 	.db #0x10	; 16
      00C6E8 02                    6741 	.db #0x02	; 2
      00C6E9 08                    6742 	.db #0x08	; 8
      00C6EA 04                    6743 	.db #0x04	; 4
      00C6EB 00                    6744 	.db #0x00	; 0
      00C6EC 00                    6745 	.db #0x00	; 0
      00C6ED 00                    6746 	.db #0x00	; 0
      00C6EE 00                    6747 	.db #0x00	; 0
      00C6EF 20                    6748 	.db #0x20	; 32
      00C6F0 01                    6749 	.db #0x01	; 1
      00C6F1 20                    6750 	.db #0x20	; 32
      00C6F2 01                    6751 	.db #0x01	; 1
      00C6F3 20                    6752 	.db #0x20	; 32
      00C6F4 01                    6753 	.db #0x01	; 1
      00C6F5 20                    6754 	.db #0x20	; 32
      00C6F6 01                    6755 	.db #0x01	; 1
      00C6F7 20                    6756 	.db #0x20	; 32
      00C6F8 01                    6757 	.db #0x01	; 1
      00C6F9 20                    6758 	.db #0x20	; 32
      00C6FA 01                    6759 	.db #0x01	; 1
      00C6FB 20                    6760 	.db #0x20	; 32
      00C6FC 01                    6761 	.db #0x01	; 1
      00C6FD 20                    6762 	.db #0x20	; 32
      00C6FE 01                    6763 	.db #0x01	; 1
      00C6FF 00                    6764 	.db #0x00	; 0
      00C700 00                    6765 	.db #0x00	; 0
      00C701 00                    6766 	.db #0x00	; 0
      00C702 00                    6767 	.db #0x00	; 0
      00C703 08                    6768 	.db #0x08	; 8
      00C704 04                    6769 	.db #0x04	; 4
      00C705 10                    6770 	.db #0x10	; 16
      00C706 02                    6771 	.db #0x02	; 2
      00C707 10                    6772 	.db #0x10	; 16
      00C708 02                    6773 	.db #0x02	; 2
      00C709 20                    6774 	.db #0x20	; 32
      00C70A 01                    6775 	.db #0x01	; 1
      00C70B 20                    6776 	.db #0x20	; 32
      00C70C 01                    6777 	.db #0x01	; 1
      00C70D C0                    6778 	.db #0xc0	; 192
      00C70E 00                    6779 	.db #0x00	; 0
      00C70F C0                    6780 	.db #0xc0	; 192
      00C710 00                    6781 	.db #0x00	; 0
      00C711 00                    6782 	.db #0x00	; 0
      00C712 00                    6783 	.db #0x00	; 0
      00C713 00                    6784 	.db #0x00	; 0
      00C714 00                    6785 	.db #0x00	; 0
      00C715 00                    6786 	.db #0x00	; 0
      00C716 00                    6787 	.db #0x00	; 0
      00C717 00                    6788 	.db #0x00	; 0
      00C718 70                    6789 	.db #0x70	; 112	'p'
      00C719 00                    6790 	.db #0x00	; 0
      00C71A 40                    6791 	.db #0x40	; 64
      00C71B D8                    6792 	.db #0xd8	; 216
      00C71C 40                    6793 	.db #0x40	; 64
      00C71D 00                    6794 	.db #0x00	; 0
      00C71E 41                    6795 	.db #0x41	; 65	'A'
      00C71F 00                    6796 	.db #0x00	; 0
      00C720 42                    6797 	.db #0x42	; 66	'B'
      00C721 00                    6798 	.db #0x00	; 0
      00C722 64                    6799 	.db #0x64	; 100	'd'
      00C723 00                    6800 	.db #0x00	; 0
      00C724 38                    6801 	.db #0x38	; 56	'8'
      00C725 00                    6802 	.db #0x00	; 0
      00C726 00                    6803 	.db #0x00	; 0
      00C727 00                    6804 	.db #0x00	; 0
      00C728 00                    6805 	.db #0x00	; 0
      00C729 C0                    6806 	.db #0xc0	; 192
      00C72A 0F                    6807 	.db #0x0f	; 15
      00C72B 30                    6808 	.db #0x30	; 48	'0'
      00C72C 18                    6809 	.db #0x18	; 24
      00C72D 18                    6810 	.db #0x18	; 24
      00C72E 20                    6811 	.db #0x20	; 32
      00C72F C8                    6812 	.db #0xc8	; 200
      00C730 47                    6813 	.db #0x47	; 71	'G'
      00C731 28                    6814 	.db #0x28	; 40
      00C732 48                    6815 	.db #0x48	; 72	'H'
      00C733 68                    6816 	.db #0x68	; 104	'h'
      00C734 50                    6817 	.db #0x50	; 80	'P'
      00C735 D8                    6818 	.db #0xd8	; 216
      00C736 51                    6819 	.db #0x51	; 81	'Q'
      00C737 E0                    6820 	.db #0xe0	; 224
      00C738 3F                    6821 	.db #0x3f	; 63
      00C739 20                    6822 	.db #0x20	; 32
      00C73A 00                    6823 	.db #0x00	; 0
      00C73B 20                    6824 	.db #0x20	; 32
      00C73C 00                    6825 	.db #0x00	; 0
      00C73D 08                    6826 	.db #0x08	; 8
      00C73E 00                    6827 	.db #0x00	; 0
      00C73F 70                    6828 	.db #0x70	; 112	'p'
      00C740 00                    6829 	.db #0x00	; 0
      00C741 C0                    6830 	.db #0xc0	; 192
      00C742 01                    6831 	.db #0x01	; 1
      00C743 40                    6832 	.db #0x40	; 64
      00C744 0E                    6833 	.db #0x0e	; 14
      00C745 40                    6834 	.db #0x40	; 64
      00C746 18                    6835 	.db #0x18	; 24
      00C747 40                    6836 	.db #0x40	; 64
      00C748 0C                    6837 	.db #0x0c	; 12
      00C749 40                    6838 	.db #0x40	; 64
      00C74A 03                    6839 	.db #0x03	; 3
      00C74B C0                    6840 	.db #0xc0	; 192
      00C74C 00                    6841 	.db #0x00	; 0
      00C74D 30                    6842 	.db #0x30	; 48	'0'
      00C74E 00                    6843 	.db #0x00	; 0
      00C74F 08                    6844 	.db #0x08	; 8
      00C750 00                    6845 	.db #0x00	; 0
      00C751 00                    6846 	.db #0x00	; 0
      00C752 00                    6847 	.db #0x00	; 0
      00C753 F8                    6848 	.db #0xf8	; 248
      00C754 1F                    6849 	.db #0x1f	; 31
      00C755 08                    6850 	.db #0x08	; 8
      00C756 11                    6851 	.db #0x11	; 17
      00C757 08                    6852 	.db #0x08	; 8
      00C758 11                    6853 	.db #0x11	; 17
      00C759 08                    6854 	.db #0x08	; 8
      00C75A 11                    6855 	.db #0x11	; 17
      00C75B 08                    6856 	.db #0x08	; 8
      00C75C 11                    6857 	.db #0x11	; 17
      00C75D 88                    6858 	.db #0x88	; 136
      00C75E 12                    6859 	.db #0x12	; 18
      00C75F 70                    6860 	.db #0x70	; 112	'p'
      00C760 0C                    6861 	.db #0x0c	; 12
      00C761 00                    6862 	.db #0x00	; 0
      00C762 00                    6863 	.db #0x00	; 0
      00C763 00                    6864 	.db #0x00	; 0
      00C764 00                    6865 	.db #0x00	; 0
      00C765 C0                    6866 	.db #0xc0	; 192
      00C766 03                    6867 	.db #0x03	; 3
      00C767 30                    6868 	.db #0x30	; 48	'0'
      00C768 0C                    6869 	.db #0x0c	; 12
      00C769 10                    6870 	.db #0x10	; 16
      00C76A 08                    6871 	.db #0x08	; 8
      00C76B 08                    6872 	.db #0x08	; 8
      00C76C 10                    6873 	.db #0x10	; 16
      00C76D 08                    6874 	.db #0x08	; 8
      00C76E 10                    6875 	.db #0x10	; 16
      00C76F 08                    6876 	.db #0x08	; 8
      00C770 10                    6877 	.db #0x10	; 16
      00C771 08                    6878 	.db #0x08	; 8
      00C772 10                    6879 	.db #0x10	; 16
      00C773 08                    6880 	.db #0x08	; 8
      00C774 18                    6881 	.db #0x18	; 24
      00C775 00                    6882 	.db #0x00	; 0
      00C776 00                    6883 	.db #0x00	; 0
      00C777 00                    6884 	.db #0x00	; 0
      00C778 00                    6885 	.db #0x00	; 0
      00C779 00                    6886 	.db #0x00	; 0
      00C77A 00                    6887 	.db #0x00	; 0
      00C77B F8                    6888 	.db #0xf8	; 248
      00C77C 1F                    6889 	.db #0x1f	; 31
      00C77D 08                    6890 	.db #0x08	; 8
      00C77E 10                    6891 	.db #0x10	; 16
      00C77F 08                    6892 	.db #0x08	; 8
      00C780 10                    6893 	.db #0x10	; 16
      00C781 08                    6894 	.db #0x08	; 8
      00C782 10                    6895 	.db #0x10	; 16
      00C783 08                    6896 	.db #0x08	; 8
      00C784 10                    6897 	.db #0x10	; 16
      00C785 10                    6898 	.db #0x10	; 16
      00C786 08                    6899 	.db #0x08	; 8
      00C787 E0                    6900 	.db #0xe0	; 224
      00C788 07                    6901 	.db #0x07	; 7
      00C789 00                    6902 	.db #0x00	; 0
      00C78A 00                    6903 	.db #0x00	; 0
      00C78B 00                    6904 	.db #0x00	; 0
      00C78C 00                    6905 	.db #0x00	; 0
      00C78D 00                    6906 	.db #0x00	; 0
      00C78E 00                    6907 	.db #0x00	; 0
      00C78F F8                    6908 	.db #0xf8	; 248
      00C790 1F                    6909 	.db #0x1f	; 31
      00C791 88                    6910 	.db #0x88	; 136
      00C792 10                    6911 	.db #0x10	; 16
      00C793 88                    6912 	.db #0x88	; 136
      00C794 10                    6913 	.db #0x10	; 16
      00C795 88                    6914 	.db #0x88	; 136
      00C796 10                    6915 	.db #0x10	; 16
      00C797 88                    6916 	.db #0x88	; 136
      00C798 10                    6917 	.db #0x10	; 16
      00C799 88                    6918 	.db #0x88	; 136
      00C79A 10                    6919 	.db #0x10	; 16
      00C79B 08                    6920 	.db #0x08	; 8
      00C79C 10                    6921 	.db #0x10	; 16
      00C79D 00                    6922 	.db #0x00	; 0
      00C79E 00                    6923 	.db #0x00	; 0
      00C79F 00                    6924 	.db #0x00	; 0
      00C7A0 00                    6925 	.db #0x00	; 0
      00C7A1 00                    6926 	.db #0x00	; 0
      00C7A2 00                    6927 	.db #0x00	; 0
      00C7A3 F8                    6928 	.db #0xf8	; 248
      00C7A4 1F                    6929 	.db #0x1f	; 31
      00C7A5 80                    6930 	.db #0x80	; 128
      00C7A6 10                    6931 	.db #0x10	; 16
      00C7A7 80                    6932 	.db #0x80	; 128
      00C7A8 10                    6933 	.db #0x10	; 16
      00C7A9 80                    6934 	.db #0x80	; 128
      00C7AA 10                    6935 	.db #0x10	; 16
      00C7AB 80                    6936 	.db #0x80	; 128
      00C7AC 10                    6937 	.db #0x10	; 16
      00C7AD 80                    6938 	.db #0x80	; 128
      00C7AE 10                    6939 	.db #0x10	; 16
      00C7AF 00                    6940 	.db #0x00	; 0
      00C7B0 10                    6941 	.db #0x10	; 16
      00C7B1 00                    6942 	.db #0x00	; 0
      00C7B2 00                    6943 	.db #0x00	; 0
      00C7B3 00                    6944 	.db #0x00	; 0
      00C7B4 00                    6945 	.db #0x00	; 0
      00C7B5 00                    6946 	.db #0x00	; 0
      00C7B6 00                    6947 	.db #0x00	; 0
      00C7B7 C0                    6948 	.db #0xc0	; 192
      00C7B8 03                    6949 	.db #0x03	; 3
      00C7B9 30                    6950 	.db #0x30	; 48	'0'
      00C7BA 0C                    6951 	.db #0x0c	; 12
      00C7BB 10                    6952 	.db #0x10	; 16
      00C7BC 08                    6953 	.db #0x08	; 8
      00C7BD 08                    6954 	.db #0x08	; 8
      00C7BE 10                    6955 	.db #0x10	; 16
      00C7BF 08                    6956 	.db #0x08	; 8
      00C7C0 10                    6957 	.db #0x10	; 16
      00C7C1 88                    6958 	.db #0x88	; 136
      00C7C2 10                    6959 	.db #0x10	; 16
      00C7C3 88                    6960 	.db #0x88	; 136
      00C7C4 10                    6961 	.db #0x10	; 16
      00C7C5 F8                    6962 	.db #0xf8	; 248
      00C7C6 18                    6963 	.db #0x18	; 24
      00C7C7 00                    6964 	.db #0x00	; 0
      00C7C8 00                    6965 	.db #0x00	; 0
      00C7C9 00                    6966 	.db #0x00	; 0
      00C7CA 00                    6967 	.db #0x00	; 0
      00C7CB F8                    6968 	.db #0xf8	; 248
      00C7CC 1F                    6969 	.db #0x1f	; 31
      00C7CD 80                    6970 	.db #0x80	; 128
      00C7CE 00                    6971 	.db #0x00	; 0
      00C7CF 80                    6972 	.db #0x80	; 128
      00C7D0 00                    6973 	.db #0x00	; 0
      00C7D1 80                    6974 	.db #0x80	; 128
      00C7D2 00                    6975 	.db #0x00	; 0
      00C7D3 80                    6976 	.db #0x80	; 128
      00C7D4 00                    6977 	.db #0x00	; 0
      00C7D5 80                    6978 	.db #0x80	; 128
      00C7D6 00                    6979 	.db #0x00	; 0
      00C7D7 F8                    6980 	.db #0xf8	; 248
      00C7D8 1F                    6981 	.db #0x1f	; 31
      00C7D9 00                    6982 	.db #0x00	; 0
      00C7DA 00                    6983 	.db #0x00	; 0
      00C7DB 00                    6984 	.db #0x00	; 0
      00C7DC 00                    6985 	.db #0x00	; 0
      00C7DD 00                    6986 	.db #0x00	; 0
      00C7DE 00                    6987 	.db #0x00	; 0
      00C7DF 08                    6988 	.db #0x08	; 8
      00C7E0 10                    6989 	.db #0x10	; 16
      00C7E1 08                    6990 	.db #0x08	; 8
      00C7E2 10                    6991 	.db #0x10	; 16
      00C7E3 08                    6992 	.db #0x08	; 8
      00C7E4 10                    6993 	.db #0x10	; 16
      00C7E5 F8                    6994 	.db #0xf8	; 248
      00C7E6 1F                    6995 	.db #0x1f	; 31
      00C7E7 08                    6996 	.db #0x08	; 8
      00C7E8 10                    6997 	.db #0x10	; 16
      00C7E9 08                    6998 	.db #0x08	; 8
      00C7EA 10                    6999 	.db #0x10	; 16
      00C7EB 08                    7000 	.db #0x08	; 8
      00C7EC 10                    7001 	.db #0x10	; 16
      00C7ED 00                    7002 	.db #0x00	; 0
      00C7EE 00                    7003 	.db #0x00	; 0
      00C7EF 00                    7004 	.db #0x00	; 0
      00C7F0 00                    7005 	.db #0x00	; 0
      00C7F1 00                    7006 	.db #0x00	; 0
      00C7F2 00                    7007 	.db #0x00	; 0
      00C7F3 00                    7008 	.db #0x00	; 0
      00C7F4 00                    7009 	.db #0x00	; 0
      00C7F5 08                    7010 	.db #0x08	; 8
      00C7F6 00                    7011 	.db #0x00	; 0
      00C7F7 08                    7012 	.db #0x08	; 8
      00C7F8 10                    7013 	.db #0x10	; 16
      00C7F9 08                    7014 	.db #0x08	; 8
      00C7FA 10                    7015 	.db #0x10	; 16
      00C7FB 08                    7016 	.db #0x08	; 8
      00C7FC 10                    7017 	.db #0x10	; 16
      00C7FD F0                    7018 	.db #0xf0	; 240
      00C7FE 1F                    7019 	.db #0x1f	; 31
      00C7FF 00                    7020 	.db #0x00	; 0
      00C800 00                    7021 	.db #0x00	; 0
      00C801 00                    7022 	.db #0x00	; 0
      00C802 00                    7023 	.db #0x00	; 0
      00C803 00                    7024 	.db #0x00	; 0
      00C804 00                    7025 	.db #0x00	; 0
      00C805 00                    7026 	.db #0x00	; 0
      00C806 00                    7027 	.db #0x00	; 0
      00C807 F8                    7028 	.db #0xf8	; 248
      00C808 1F                    7029 	.db #0x1f	; 31
      00C809 00                    7030 	.db #0x00	; 0
      00C80A 01                    7031 	.db #0x01	; 1
      00C80B 80                    7032 	.db #0x80	; 128
      00C80C 01                    7033 	.db #0x01	; 1
      00C80D 40                    7034 	.db #0x40	; 64
      00C80E 02                    7035 	.db #0x02	; 2
      00C80F 20                    7036 	.db #0x20	; 32
      00C810 04                    7037 	.db #0x04	; 4
      00C811 20                    7038 	.db #0x20	; 32
      00C812 08                    7039 	.db #0x08	; 8
      00C813 10                    7040 	.db #0x10	; 16
      00C814 10                    7041 	.db #0x10	; 16
      00C815 08                    7042 	.db #0x08	; 8
      00C816 00                    7043 	.db #0x00	; 0
      00C817 00                    7044 	.db #0x00	; 0
      00C818 00                    7045 	.db #0x00	; 0
      00C819 00                    7046 	.db #0x00	; 0
      00C81A 00                    7047 	.db #0x00	; 0
      00C81B F8                    7048 	.db #0xf8	; 248
      00C81C 1F                    7049 	.db #0x1f	; 31
      00C81D 08                    7050 	.db #0x08	; 8
      00C81E 00                    7051 	.db #0x00	; 0
      00C81F 08                    7052 	.db #0x08	; 8
      00C820 00                    7053 	.db #0x00	; 0
      00C821 08                    7054 	.db #0x08	; 8
      00C822 00                    7055 	.db #0x00	; 0
      00C823 08                    7056 	.db #0x08	; 8
      00C824 00                    7057 	.db #0x00	; 0
      00C825 08                    7058 	.db #0x08	; 8
      00C826 00                    7059 	.db #0x00	; 0
      00C827 08                    7060 	.db #0x08	; 8
      00C828 00                    7061 	.db #0x00	; 0
      00C829 00                    7062 	.db #0x00	; 0
      00C82A 00                    7063 	.db #0x00	; 0
      00C82B 00                    7064 	.db #0x00	; 0
      00C82C 00                    7065 	.db #0x00	; 0
      00C82D F8                    7066 	.db #0xf8	; 248
      00C82E 1F                    7067 	.db #0x1f	; 31
      00C82F 00                    7068 	.db #0x00	; 0
      00C830 1C                    7069 	.db #0x1c	; 28
      00C831 80                    7070 	.db #0x80	; 128
      00C832 07                    7071 	.db #0x07	; 7
      00C833 E0                    7072 	.db #0xe0	; 224
      00C834 00                    7073 	.db #0x00	; 0
      00C835 60                    7074 	.db #0x60	; 96
      00C836 00                    7075 	.db #0x00	; 0
      00C837 80                    7076 	.db #0x80	; 128
      00C838 03                    7077 	.db #0x03	; 3
      00C839 00                    7078 	.db #0x00	; 0
      00C83A 1C                    7079 	.db #0x1c	; 28
      00C83B F8                    7080 	.db #0xf8	; 248
      00C83C 1F                    7081 	.db #0x1f	; 31
      00C83D 00                    7082 	.db #0x00	; 0
      00C83E 00                    7083 	.db #0x00	; 0
      00C83F 00                    7084 	.db #0x00	; 0
      00C840 00                    7085 	.db #0x00	; 0
      00C841 00                    7086 	.db #0x00	; 0
      00C842 00                    7087 	.db #0x00	; 0
      00C843 F8                    7088 	.db #0xf8	; 248
      00C844 1F                    7089 	.db #0x1f	; 31
      00C845 00                    7090 	.db #0x00	; 0
      00C846 08                    7091 	.db #0x08	; 8
      00C847 00                    7092 	.db #0x00	; 0
      00C848 06                    7093 	.db #0x06	; 6
      00C849 80                    7094 	.db #0x80	; 128
      00C84A 01                    7095 	.db #0x01	; 1
      00C84B 60                    7096 	.db #0x60	; 96
      00C84C 00                    7097 	.db #0x00	; 0
      00C84D 10                    7098 	.db #0x10	; 16
      00C84E 00                    7099 	.db #0x00	; 0
      00C84F F8                    7100 	.db #0xf8	; 248
      00C850 1F                    7101 	.db #0x1f	; 31
      00C851 00                    7102 	.db #0x00	; 0
      00C852 00                    7103 	.db #0x00	; 0
      00C853 00                    7104 	.db #0x00	; 0
      00C854 00                    7105 	.db #0x00	; 0
      00C855 00                    7106 	.db #0x00	; 0
      00C856 00                    7107 	.db #0x00	; 0
      00C857 E0                    7108 	.db #0xe0	; 224
      00C858 07                    7109 	.db #0x07	; 7
      00C859 10                    7110 	.db #0x10	; 16
      00C85A 08                    7111 	.db #0x08	; 8
      00C85B 08                    7112 	.db #0x08	; 8
      00C85C 10                    7113 	.db #0x10	; 16
      00C85D 08                    7114 	.db #0x08	; 8
      00C85E 10                    7115 	.db #0x10	; 16
      00C85F 08                    7116 	.db #0x08	; 8
      00C860 10                    7117 	.db #0x10	; 16
      00C861 08                    7118 	.db #0x08	; 8
      00C862 10                    7119 	.db #0x10	; 16
      00C863 10                    7120 	.db #0x10	; 16
      00C864 08                    7121 	.db #0x08	; 8
      00C865 E0                    7122 	.db #0xe0	; 224
      00C866 07                    7123 	.db #0x07	; 7
      00C867 00                    7124 	.db #0x00	; 0
      00C868 00                    7125 	.db #0x00	; 0
      00C869 00                    7126 	.db #0x00	; 0
      00C86A 00                    7127 	.db #0x00	; 0
      00C86B F8                    7128 	.db #0xf8	; 248
      00C86C 1F                    7129 	.db #0x1f	; 31
      00C86D 80                    7130 	.db #0x80	; 128
      00C86E 10                    7131 	.db #0x10	; 16
      00C86F 80                    7132 	.db #0x80	; 128
      00C870 10                    7133 	.db #0x10	; 16
      00C871 80                    7134 	.db #0x80	; 128
      00C872 10                    7135 	.db #0x10	; 16
      00C873 80                    7136 	.db #0x80	; 128
      00C874 10                    7137 	.db #0x10	; 16
      00C875 00                    7138 	.db #0x00	; 0
      00C876 11                    7139 	.db #0x11	; 17
      00C877 00                    7140 	.db #0x00	; 0
      00C878 0E                    7141 	.db #0x0e	; 14
      00C879 00                    7142 	.db #0x00	; 0
      00C87A 00                    7143 	.db #0x00	; 0
      00C87B 00                    7144 	.db #0x00	; 0
      00C87C 00                    7145 	.db #0x00	; 0
      00C87D 00                    7146 	.db #0x00	; 0
      00C87E 00                    7147 	.db #0x00	; 0
      00C87F E0                    7148 	.db #0xe0	; 224
      00C880 07                    7149 	.db #0x07	; 7
      00C881 10                    7150 	.db #0x10	; 16
      00C882 08                    7151 	.db #0x08	; 8
      00C883 08                    7152 	.db #0x08	; 8
      00C884 10                    7153 	.db #0x10	; 16
      00C885 08                    7154 	.db #0x08	; 8
      00C886 10                    7155 	.db #0x10	; 16
      00C887 08                    7156 	.db #0x08	; 8
      00C888 10                    7157 	.db #0x10	; 16
      00C889 0C                    7158 	.db #0x0c	; 12
      00C88A 10                    7159 	.db #0x10	; 16
      00C88B 12                    7160 	.db #0x12	; 18
      00C88C 08                    7161 	.db #0x08	; 8
      00C88D E2                    7162 	.db #0xe2	; 226
      00C88E 07                    7163 	.db #0x07	; 7
      00C88F 00                    7164 	.db #0x00	; 0
      00C890 00                    7165 	.db #0x00	; 0
      00C891 00                    7166 	.db #0x00	; 0
      00C892 00                    7167 	.db #0x00	; 0
      00C893 F8                    7168 	.db #0xf8	; 248
      00C894 1F                    7169 	.db #0x1f	; 31
      00C895 80                    7170 	.db #0x80	; 128
      00C896 10                    7171 	.db #0x10	; 16
      00C897 80                    7172 	.db #0x80	; 128
      00C898 10                    7173 	.db #0x10	; 16
      00C899 C0                    7174 	.db #0xc0	; 192
      00C89A 10                    7175 	.db #0x10	; 16
      00C89B 20                    7176 	.db #0x20	; 32
      00C89C 11                    7177 	.db #0x11	; 17
      00C89D 10                    7178 	.db #0x10	; 16
      00C89E 0E                    7179 	.db #0x0e	; 14
      00C89F 08                    7180 	.db #0x08	; 8
      00C8A0 00                    7181 	.db #0x00	; 0
      00C8A1 00                    7182 	.db #0x00	; 0
      00C8A2 00                    7183 	.db #0x00	; 0
      00C8A3 00                    7184 	.db #0x00	; 0
      00C8A4 00                    7185 	.db #0x00	; 0
      00C8A5 00                    7186 	.db #0x00	; 0
      00C8A6 00                    7187 	.db #0x00	; 0
      00C8A7 18                    7188 	.db #0x18	; 24
      00C8A8 0E                    7189 	.db #0x0e	; 14
      00C8A9 08                    7190 	.db #0x08	; 8
      00C8AA 12                    7191 	.db #0x12	; 18
      00C8AB 08                    7192 	.db #0x08	; 8
      00C8AC 11                    7193 	.db #0x11	; 17
      00C8AD 08                    7194 	.db #0x08	; 8
      00C8AE 11                    7195 	.db #0x11	; 17
      00C8AF 88                    7196 	.db #0x88	; 136
      00C8B0 10                    7197 	.db #0x10	; 16
      00C8B1 90                    7198 	.db #0x90	; 144
      00C8B2 10                    7199 	.db #0x10	; 16
      00C8B3 70                    7200 	.db #0x70	; 112	'p'
      00C8B4 18                    7201 	.db #0x18	; 24
      00C8B5 00                    7202 	.db #0x00	; 0
      00C8B6 00                    7203 	.db #0x00	; 0
      00C8B7 00                    7204 	.db #0x00	; 0
      00C8B8 00                    7205 	.db #0x00	; 0
      00C8B9 00                    7206 	.db #0x00	; 0
      00C8BA 10                    7207 	.db #0x10	; 16
      00C8BB 00                    7208 	.db #0x00	; 0
      00C8BC 10                    7209 	.db #0x10	; 16
      00C8BD 00                    7210 	.db #0x00	; 0
      00C8BE 10                    7211 	.db #0x10	; 16
      00C8BF 00                    7212 	.db #0x00	; 0
      00C8C0 10                    7213 	.db #0x10	; 16
      00C8C1 F8                    7214 	.db #0xf8	; 248
      00C8C2 1F                    7215 	.db #0x1f	; 31
      00C8C3 00                    7216 	.db #0x00	; 0
      00C8C4 10                    7217 	.db #0x10	; 16
      00C8C5 00                    7218 	.db #0x00	; 0
      00C8C6 10                    7219 	.db #0x10	; 16
      00C8C7 00                    7220 	.db #0x00	; 0
      00C8C8 10                    7221 	.db #0x10	; 16
      00C8C9 00                    7222 	.db #0x00	; 0
      00C8CA 10                    7223 	.db #0x10	; 16
      00C8CB 00                    7224 	.db #0x00	; 0
      00C8CC 00                    7225 	.db #0x00	; 0
      00C8CD 00                    7226 	.db #0x00	; 0
      00C8CE 00                    7227 	.db #0x00	; 0
      00C8CF E0                    7228 	.db #0xe0	; 224
      00C8D0 1F                    7229 	.db #0x1f	; 31
      00C8D1 18                    7230 	.db #0x18	; 24
      00C8D2 00                    7231 	.db #0x00	; 0
      00C8D3 08                    7232 	.db #0x08	; 8
      00C8D4 00                    7233 	.db #0x00	; 0
      00C8D5 08                    7234 	.db #0x08	; 8
      00C8D6 00                    7235 	.db #0x00	; 0
      00C8D7 08                    7236 	.db #0x08	; 8
      00C8D8 00                    7237 	.db #0x00	; 0
      00C8D9 10                    7238 	.db #0x10	; 16
      00C8DA 00                    7239 	.db #0x00	; 0
      00C8DB E0                    7240 	.db #0xe0	; 224
      00C8DC 1F                    7241 	.db #0x1f	; 31
      00C8DD 00                    7242 	.db #0x00	; 0
      00C8DE 00                    7243 	.db #0x00	; 0
      00C8DF 00                    7244 	.db #0x00	; 0
      00C8E0 00                    7245 	.db #0x00	; 0
      00C8E1 00                    7246 	.db #0x00	; 0
      00C8E2 10                    7247 	.db #0x10	; 16
      00C8E3 00                    7248 	.db #0x00	; 0
      00C8E4 0C                    7249 	.db #0x0c	; 12
      00C8E5 80                    7250 	.db #0x80	; 128
      00C8E6 03                    7251 	.db #0x03	; 3
      00C8E7 60                    7252 	.db #0x60	; 96
      00C8E8 00                    7253 	.db #0x00	; 0
      00C8E9 18                    7254 	.db #0x18	; 24
      00C8EA 00                    7255 	.db #0x00	; 0
      00C8EB 18                    7256 	.db #0x18	; 24
      00C8EC 00                    7257 	.db #0x00	; 0
      00C8ED E0                    7258 	.db #0xe0	; 224
      00C8EE 00                    7259 	.db #0x00	; 0
      00C8EF 00                    7260 	.db #0x00	; 0
      00C8F0 03                    7261 	.db #0x03	; 3
      00C8F1 00                    7262 	.db #0x00	; 0
      00C8F2 0C                    7263 	.db #0x0c	; 12
      00C8F3 00                    7264 	.db #0x00	; 0
      00C8F4 10                    7265 	.db #0x10	; 16
      00C8F5 00                    7266 	.db #0x00	; 0
      00C8F6 18                    7267 	.db #0x18	; 24
      00C8F7 C0                    7268 	.db #0xc0	; 192
      00C8F8 07                    7269 	.db #0x07	; 7
      00C8F9 38                    7270 	.db #0x38	; 56	'8'
      00C8FA 00                    7271 	.db #0x00	; 0
      00C8FB F0                    7272 	.db #0xf0	; 240
      00C8FC 00                    7273 	.db #0x00	; 0
      00C8FD 00                    7274 	.db #0x00	; 0
      00C8FE 07                    7275 	.db #0x07	; 7
      00C8FF 80                    7276 	.db #0x80	; 128
      00C900 03                    7277 	.db #0x03	; 3
      00C901 70                    7278 	.db #0x70	; 112	'p'
      00C902 00                    7279 	.db #0x00	; 0
      00C903 38                    7280 	.db #0x38	; 56	'8'
      00C904 00                    7281 	.db #0x00	; 0
      00C905 C0                    7282 	.db #0xc0	; 192
      00C906 07                    7283 	.db #0x07	; 7
      00C907 00                    7284 	.db #0x00	; 0
      00C908 18                    7285 	.db #0x18	; 24
      00C909 08                    7286 	.db #0x08	; 8
      00C90A 10                    7287 	.db #0x10	; 16
      00C90B 10                    7288 	.db #0x10	; 16
      00C90C 08                    7289 	.db #0x08	; 8
      00C90D 20                    7290 	.db #0x20	; 32
      00C90E 04                    7291 	.db #0x04	; 4
      00C90F 40                    7292 	.db #0x40	; 64
      00C910 02                    7293 	.db #0x02	; 2
      00C911 80                    7294 	.db #0x80	; 128
      00C912 01                    7295 	.db #0x01	; 1
      00C913 80                    7296 	.db #0x80	; 128
      00C914 01                    7297 	.db #0x01	; 1
      00C915 40                    7298 	.db #0x40	; 64
      00C916 02                    7299 	.db #0x02	; 2
      00C917 20                    7300 	.db #0x20	; 32
      00C918 04                    7301 	.db #0x04	; 4
      00C919 10                    7302 	.db #0x10	; 16
      00C91A 08                    7303 	.db #0x08	; 8
      00C91B 08                    7304 	.db #0x08	; 8
      00C91C 10                    7305 	.db #0x10	; 16
      00C91D 00                    7306 	.db #0x00	; 0
      00C91E 10                    7307 	.db #0x10	; 16
      00C91F 00                    7308 	.db #0x00	; 0
      00C920 08                    7309 	.db #0x08	; 8
      00C921 00                    7310 	.db #0x00	; 0
      00C922 06                    7311 	.db #0x06	; 6
      00C923 00                    7312 	.db #0x00	; 0
      00C924 01                    7313 	.db #0x01	; 1
      00C925 F8                    7314 	.db #0xf8	; 248
      00C926 00                    7315 	.db #0x00	; 0
      00C927 00                    7316 	.db #0x00	; 0
      00C928 01                    7317 	.db #0x01	; 1
      00C929 00                    7318 	.db #0x00	; 0
      00C92A 02                    7319 	.db #0x02	; 2
      00C92B 00                    7320 	.db #0x00	; 0
      00C92C 04                    7321 	.db #0x04	; 4
      00C92D 00                    7322 	.db #0x00	; 0
      00C92E 08                    7323 	.db #0x08	; 8
      00C92F 00                    7324 	.db #0x00	; 0
      00C930 10                    7325 	.db #0x10	; 16
      00C931 00                    7326 	.db #0x00	; 0
      00C932 00                    7327 	.db #0x00	; 0
      00C933 18                    7328 	.db #0x18	; 24
      00C934 10                    7329 	.db #0x10	; 16
      00C935 28                    7330 	.db #0x28	; 40
      00C936 10                    7331 	.db #0x10	; 16
      00C937 48                    7332 	.db #0x48	; 72	'H'
      00C938 10                    7333 	.db #0x10	; 16
      00C939 88                    7334 	.db #0x88	; 136
      00C93A 10                    7335 	.db #0x10	; 16
      00C93B 08                    7336 	.db #0x08	; 8
      00C93C 11                    7337 	.db #0x11	; 17
      00C93D 08                    7338 	.db #0x08	; 8
      00C93E 12                    7339 	.db #0x12	; 18
      00C93F 08                    7340 	.db #0x08	; 8
      00C940 14                    7341 	.db #0x14	; 20
      00C941 08                    7342 	.db #0x08	; 8
      00C942 18                    7343 	.db #0x18	; 24
      00C943 00                    7344 	.db #0x00	; 0
      00C944 00                    7345 	.db #0x00	; 0
      00C945 00                    7346 	.db #0x00	; 0
      00C946 00                    7347 	.db #0x00	; 0
      00C947 00                    7348 	.db #0x00	; 0
      00C948 00                    7349 	.db #0x00	; 0
      00C949 00                    7350 	.db #0x00	; 0
      00C94A 00                    7351 	.db #0x00	; 0
      00C94B FE                    7352 	.db #0xfe	; 254
      00C94C 7F                    7353 	.db #0x7f	; 127
      00C94D 02                    7354 	.db #0x02	; 2
      00C94E 40                    7355 	.db #0x40	; 64
      00C94F 02                    7356 	.db #0x02	; 2
      00C950 40                    7357 	.db #0x40	; 64
      00C951 02                    7358 	.db #0x02	; 2
      00C952 40                    7359 	.db #0x40	; 64
      00C953 02                    7360 	.db #0x02	; 2
      00C954 40                    7361 	.db #0x40	; 64
      00C955 00                    7362 	.db #0x00	; 0
      00C956 00                    7363 	.db #0x00	; 0
      00C957 00                    7364 	.db #0x00	; 0
      00C958 00                    7365 	.db #0x00	; 0
      00C959 00                    7366 	.db #0x00	; 0
      00C95A 00                    7367 	.db #0x00	; 0
      00C95B 00                    7368 	.db #0x00	; 0
      00C95C 40                    7369 	.db #0x40	; 64
      00C95D 00                    7370 	.db #0x00	; 0
      00C95E 30                    7371 	.db #0x30	; 48	'0'
      00C95F 00                    7372 	.db #0x00	; 0
      00C960 0C                    7373 	.db #0x0c	; 12
      00C961 00                    7374 	.db #0x00	; 0
      00C962 03                    7375 	.db #0x03	; 3
      00C963 C0                    7376 	.db #0xc0	; 192
      00C964 00                    7377 	.db #0x00	; 0
      00C965 30                    7378 	.db #0x30	; 48	'0'
      00C966 00                    7379 	.db #0x00	; 0
      00C967 0C                    7380 	.db #0x0c	; 12
      00C968 00                    7381 	.db #0x00	; 0
      00C969 02                    7382 	.db #0x02	; 2
      00C96A 00                    7383 	.db #0x00	; 0
      00C96B 00                    7384 	.db #0x00	; 0
      00C96C 00                    7385 	.db #0x00	; 0
      00C96D 00                    7386 	.db #0x00	; 0
      00C96E 00                    7387 	.db #0x00	; 0
      00C96F 02                    7388 	.db #0x02	; 2
      00C970 40                    7389 	.db #0x40	; 64
      00C971 02                    7390 	.db #0x02	; 2
      00C972 40                    7391 	.db #0x40	; 64
      00C973 02                    7392 	.db #0x02	; 2
      00C974 40                    7393 	.db #0x40	; 64
      00C975 02                    7394 	.db #0x02	; 2
      00C976 40                    7395 	.db #0x40	; 64
      00C977 FE                    7396 	.db #0xfe	; 254
      00C978 7F                    7397 	.db #0x7f	; 127
      00C979 00                    7398 	.db #0x00	; 0
      00C97A 00                    7399 	.db #0x00	; 0
      00C97B 00                    7400 	.db #0x00	; 0
      00C97C 00                    7401 	.db #0x00	; 0
      00C97D 00                    7402 	.db #0x00	; 0
      00C97E 00                    7403 	.db #0x00	; 0
      00C97F 00                    7404 	.db #0x00	; 0
      00C980 00                    7405 	.db #0x00	; 0
      00C981 00                    7406 	.db #0x00	; 0
      00C982 00                    7407 	.db #0x00	; 0
      00C983 20                    7408 	.db #0x20	; 32
      00C984 00                    7409 	.db #0x00	; 0
      00C985 C0                    7410 	.db #0xc0	; 192
      00C986 00                    7411 	.db #0x00	; 0
      00C987 00                    7412 	.db #0x00	; 0
      00C988 07                    7413 	.db #0x07	; 7
      00C989 00                    7414 	.db #0x00	; 0
      00C98A 1C                    7415 	.db #0x1c	; 28
      00C98B 00                    7416 	.db #0x00	; 0
      00C98C 70                    7417 	.db #0x70	; 112	'p'
      00C98D 00                    7418 	.db #0x00	; 0
      00C98E 0E                    7419 	.db #0x0e	; 14
      00C98F C0                    7420 	.db #0xc0	; 192
      00C990 01                    7421 	.db #0x01	; 1
      00C991 20                    7422 	.db #0x20	; 32
      00C992 00                    7423 	.db #0x00	; 0
      00C993 00                    7424 	.db #0x00	; 0
      00C994 00                    7425 	.db #0x00	; 0
      00C995 04                    7426 	.db #0x04	; 4
      00C996 00                    7427 	.db #0x00	; 0
      00C997 04                    7428 	.db #0x04	; 4
      00C998 00                    7429 	.db #0x00	; 0
      00C999 04                    7430 	.db #0x04	; 4
      00C99A 00                    7431 	.db #0x00	; 0
      00C99B 04                    7432 	.db #0x04	; 4
      00C99C 00                    7433 	.db #0x00	; 0
      00C99D 04                    7434 	.db #0x04	; 4
      00C99E 00                    7435 	.db #0x00	; 0
      00C99F 04                    7436 	.db #0x04	; 4
      00C9A0 00                    7437 	.db #0x00	; 0
      00C9A1 04                    7438 	.db #0x04	; 4
      00C9A2 00                    7439 	.db #0x00	; 0
      00C9A3 04                    7440 	.db #0x04	; 4
      00C9A4 00                    7441 	.db #0x00	; 0
      00C9A5 04                    7442 	.db #0x04	; 4
      00C9A6 00                    7443 	.db #0x00	; 0
      00C9A7 04                    7444 	.db #0x04	; 4
      00C9A8 00                    7445 	.db #0x00	; 0
      00C9A9 00                    7446 	.db #0x00	; 0
      00C9AA 00                    7447 	.db #0x00	; 0
      00C9AB 00                    7448 	.db #0x00	; 0
      00C9AC 00                    7449 	.db #0x00	; 0
      00C9AD 00                    7450 	.db #0x00	; 0
      00C9AE 00                    7451 	.db #0x00	; 0
      00C9AF 00                    7452 	.db #0x00	; 0
      00C9B0 00                    7453 	.db #0x00	; 0
      00C9B1 00                    7454 	.db #0x00	; 0
      00C9B2 80                    7455 	.db #0x80	; 128
      00C9B3 00                    7456 	.db #0x00	; 0
      00C9B4 40                    7457 	.db #0x40	; 64
      00C9B5 00                    7458 	.db #0x00	; 0
      00C9B6 00                    7459 	.db #0x00	; 0
      00C9B7 00                    7460 	.db #0x00	; 0
      00C9B8 00                    7461 	.db #0x00	; 0
      00C9B9 00                    7462 	.db #0x00	; 0
      00C9BA 00                    7463 	.db #0x00	; 0
      00C9BB 00                    7464 	.db #0x00	; 0
      00C9BC 00                    7465 	.db #0x00	; 0
      00C9BD 00                    7466 	.db #0x00	; 0
      00C9BE 00                    7467 	.db #0x00	; 0
      00C9BF 30                    7468 	.db #0x30	; 48	'0'
      00C9C0 00                    7469 	.db #0x00	; 0
      00C9C1 48                    7470 	.db #0x48	; 72	'H'
      00C9C2 04                    7471 	.db #0x04	; 4
      00C9C3 88                    7472 	.db #0x88	; 136
      00C9C4 04                    7473 	.db #0x04	; 4
      00C9C5 88                    7474 	.db #0x88	; 136
      00C9C6 04                    7475 	.db #0x04	; 4
      00C9C7 90                    7476 	.db #0x90	; 144
      00C9C8 04                    7477 	.db #0x04	; 4
      00C9C9 F8                    7478 	.db #0xf8	; 248
      00C9CA 03                    7479 	.db #0x03	; 3
      00C9CB 08                    7480 	.db #0x08	; 8
      00C9CC 00                    7481 	.db #0x00	; 0
      00C9CD 00                    7482 	.db #0x00	; 0
      00C9CE 00                    7483 	.db #0x00	; 0
      00C9CF 00                    7484 	.db #0x00	; 0
      00C9D0 00                    7485 	.db #0x00	; 0
      00C9D1 00                    7486 	.db #0x00	; 0
      00C9D2 00                    7487 	.db #0x00	; 0
      00C9D3 F8                    7488 	.db #0xf8	; 248
      00C9D4 7F                    7489 	.db #0x7f	; 127
      00C9D5 10                    7490 	.db #0x10	; 16
      00C9D6 02                    7491 	.db #0x02	; 2
      00C9D7 08                    7492 	.db #0x08	; 8
      00C9D8 04                    7493 	.db #0x04	; 4
      00C9D9 08                    7494 	.db #0x08	; 8
      00C9DA 04                    7495 	.db #0x04	; 4
      00C9DB 08                    7496 	.db #0x08	; 8
      00C9DC 04                    7497 	.db #0x04	; 4
      00C9DD 10                    7498 	.db #0x10	; 16
      00C9DE 06                    7499 	.db #0x06	; 6
      00C9DF E0                    7500 	.db #0xe0	; 224
      00C9E0 01                    7501 	.db #0x01	; 1
      00C9E1 00                    7502 	.db #0x00	; 0
      00C9E2 00                    7503 	.db #0x00	; 0
      00C9E3 00                    7504 	.db #0x00	; 0
      00C9E4 00                    7505 	.db #0x00	; 0
      00C9E5 00                    7506 	.db #0x00	; 0
      00C9E6 00                    7507 	.db #0x00	; 0
      00C9E7 E0                    7508 	.db #0xe0	; 224
      00C9E8 01                    7509 	.db #0x01	; 1
      00C9E9 10                    7510 	.db #0x10	; 16
      00C9EA 02                    7511 	.db #0x02	; 2
      00C9EB 08                    7512 	.db #0x08	; 8
      00C9EC 04                    7513 	.db #0x04	; 4
      00C9ED 08                    7514 	.db #0x08	; 8
      00C9EE 04                    7515 	.db #0x04	; 4
      00C9EF 08                    7516 	.db #0x08	; 8
      00C9F0 04                    7517 	.db #0x04	; 4
      00C9F1 08                    7518 	.db #0x08	; 8
      00C9F2 04                    7519 	.db #0x04	; 4
      00C9F3 08                    7520 	.db #0x08	; 8
      00C9F4 04                    7521 	.db #0x04	; 4
      00C9F5 00                    7522 	.db #0x00	; 0
      00C9F6 00                    7523 	.db #0x00	; 0
      00C9F7 00                    7524 	.db #0x00	; 0
      00C9F8 00                    7525 	.db #0x00	; 0
      00C9F9 00                    7526 	.db #0x00	; 0
      00C9FA 00                    7527 	.db #0x00	; 0
      00C9FB E0                    7528 	.db #0xe0	; 224
      00C9FC 01                    7529 	.db #0x01	; 1
      00C9FD 18                    7530 	.db #0x18	; 24
      00C9FE 02                    7531 	.db #0x02	; 2
      00C9FF 08                    7532 	.db #0x08	; 8
      00CA00 04                    7533 	.db #0x04	; 4
      00CA01 08                    7534 	.db #0x08	; 8
      00CA02 04                    7535 	.db #0x04	; 4
      00CA03 08                    7536 	.db #0x08	; 8
      00CA04 04                    7537 	.db #0x04	; 4
      00CA05 10                    7538 	.db #0x10	; 16
      00CA06 02                    7539 	.db #0x02	; 2
      00CA07 F8                    7540 	.db #0xf8	; 248
      00CA08 7F                    7541 	.db #0x7f	; 127
      00CA09 00                    7542 	.db #0x00	; 0
      00CA0A 00                    7543 	.db #0x00	; 0
      00CA0B 00                    7544 	.db #0x00	; 0
      00CA0C 00                    7545 	.db #0x00	; 0
      00CA0D 00                    7546 	.db #0x00	; 0
      00CA0E 00                    7547 	.db #0x00	; 0
      00CA0F E0                    7548 	.db #0xe0	; 224
      00CA10 01                    7549 	.db #0x01	; 1
      00CA11 90                    7550 	.db #0x90	; 144
      00CA12 02                    7551 	.db #0x02	; 2
      00CA13 88                    7552 	.db #0x88	; 136
      00CA14 04                    7553 	.db #0x04	; 4
      00CA15 88                    7554 	.db #0x88	; 136
      00CA16 04                    7555 	.db #0x04	; 4
      00CA17 88                    7556 	.db #0x88	; 136
      00CA18 04                    7557 	.db #0x04	; 4
      00CA19 88                    7558 	.db #0x88	; 136
      00CA1A 04                    7559 	.db #0x04	; 4
      00CA1B 88                    7560 	.db #0x88	; 136
      00CA1C 03                    7561 	.db #0x03	; 3
      00CA1D 00                    7562 	.db #0x00	; 0
      00CA1E 00                    7563 	.db #0x00	; 0
      00CA1F 00                    7564 	.db #0x00	; 0
      00CA20 00                    7565 	.db #0x00	; 0
      00CA21 00                    7566 	.db #0x00	; 0
      00CA22 00                    7567 	.db #0x00	; 0
      00CA23 00                    7568 	.db #0x00	; 0
      00CA24 04                    7569 	.db #0x04	; 4
      00CA25 00                    7570 	.db #0x00	; 0
      00CA26 04                    7571 	.db #0x04	; 4
      00CA27 F8                    7572 	.db #0xf8	; 248
      00CA28 3F                    7573 	.db #0x3f	; 63
      00CA29 00                    7574 	.db #0x00	; 0
      00CA2A 24                    7575 	.db #0x24	; 36
      00CA2B 00                    7576 	.db #0x00	; 0
      00CA2C 44                    7577 	.db #0x44	; 68	'D'
      00CA2D 00                    7578 	.db #0x00	; 0
      00CA2E 44                    7579 	.db #0x44	; 68	'D'
      00CA2F 00                    7580 	.db #0x00	; 0
      00CA30 44                    7581 	.db #0x44	; 68	'D'
      00CA31 00                    7582 	.db #0x00	; 0
      00CA32 44                    7583 	.db #0x44	; 68	'D'
      00CA33 00                    7584 	.db #0x00	; 0
      00CA34 00                    7585 	.db #0x00	; 0
      00CA35 00                    7586 	.db #0x00	; 0
      00CA36 00                    7587 	.db #0x00	; 0
      00CA37 E0                    7588 	.db #0xe0	; 224
      00CA38 01                    7589 	.db #0x01	; 1
      00CA39 19                    7590 	.db #0x19	; 25
      00CA3A 02                    7591 	.db #0x02	; 2
      00CA3B 09                    7592 	.db #0x09	; 9
      00CA3C 04                    7593 	.db #0x04	; 4
      00CA3D 09                    7594 	.db #0x09	; 9
      00CA3E 04                    7595 	.db #0x04	; 4
      00CA3F 09                    7596 	.db #0x09	; 9
      00CA40 04                    7597 	.db #0x04	; 4
      00CA41 12                    7598 	.db #0x12	; 18
      00CA42 02                    7599 	.db #0x02	; 2
      00CA43 FC                    7600 	.db #0xfc	; 252
      00CA44 07                    7601 	.db #0x07	; 7
      00CA45 00                    7602 	.db #0x00	; 0
      00CA46 00                    7603 	.db #0x00	; 0
      00CA47 00                    7604 	.db #0x00	; 0
      00CA48 00                    7605 	.db #0x00	; 0
      00CA49 00                    7606 	.db #0x00	; 0
      00CA4A 00                    7607 	.db #0x00	; 0
      00CA4B F8                    7608 	.db #0xf8	; 248
      00CA4C 7F                    7609 	.db #0x7f	; 127
      00CA4D 00                    7610 	.db #0x00	; 0
      00CA4E 01                    7611 	.db #0x01	; 1
      00CA4F 00                    7612 	.db #0x00	; 0
      00CA50 02                    7613 	.db #0x02	; 2
      00CA51 00                    7614 	.db #0x00	; 0
      00CA52 04                    7615 	.db #0x04	; 4
      00CA53 00                    7616 	.db #0x00	; 0
      00CA54 04                    7617 	.db #0x04	; 4
      00CA55 00                    7618 	.db #0x00	; 0
      00CA56 04                    7619 	.db #0x04	; 4
      00CA57 F8                    7620 	.db #0xf8	; 248
      00CA58 03                    7621 	.db #0x03	; 3
      00CA59 00                    7622 	.db #0x00	; 0
      00CA5A 00                    7623 	.db #0x00	; 0
      00CA5B 00                    7624 	.db #0x00	; 0
      00CA5C 00                    7625 	.db #0x00	; 0
      00CA5D 00                    7626 	.db #0x00	; 0
      00CA5E 00                    7627 	.db #0x00	; 0
      00CA5F 00                    7628 	.db #0x00	; 0
      00CA60 04                    7629 	.db #0x04	; 4
      00CA61 00                    7630 	.db #0x00	; 0
      00CA62 04                    7631 	.db #0x04	; 4
      00CA63 00                    7632 	.db #0x00	; 0
      00CA64 64                    7633 	.db #0x64	; 100	'd'
      00CA65 F8                    7634 	.db #0xf8	; 248
      00CA66 67                    7635 	.db #0x67	; 103	'g'
      00CA67 00                    7636 	.db #0x00	; 0
      00CA68 00                    7637 	.db #0x00	; 0
      00CA69 00                    7638 	.db #0x00	; 0
      00CA6A 00                    7639 	.db #0x00	; 0
      00CA6B 00                    7640 	.db #0x00	; 0
      00CA6C 00                    7641 	.db #0x00	; 0
      00CA6D 00                    7642 	.db #0x00	; 0
      00CA6E 00                    7643 	.db #0x00	; 0
      00CA6F 00                    7644 	.db #0x00	; 0
      00CA70 00                    7645 	.db #0x00	; 0
      00CA71 00                    7646 	.db #0x00	; 0
      00CA72 00                    7647 	.db #0x00	; 0
      00CA73 01                    7648 	.db #0x01	; 1
      00CA74 00                    7649 	.db #0x00	; 0
      00CA75 01                    7650 	.db #0x01	; 1
      00CA76 04                    7651 	.db #0x04	; 4
      00CA77 01                    7652 	.db #0x01	; 1
      00CA78 04                    7653 	.db #0x04	; 4
      00CA79 01                    7654 	.db #0x01	; 1
      00CA7A 64                    7655 	.db #0x64	; 100	'd'
      00CA7B FE                    7656 	.db #0xfe	; 254
      00CA7C 67                    7657 	.db #0x67	; 103	'g'
      00CA7D 00                    7658 	.db #0x00	; 0
      00CA7E 00                    7659 	.db #0x00	; 0
      00CA7F 00                    7660 	.db #0x00	; 0
      00CA80 00                    7661 	.db #0x00	; 0
      00CA81 00                    7662 	.db #0x00	; 0
      00CA82 00                    7663 	.db #0x00	; 0
      00CA83 00                    7664 	.db #0x00	; 0
      00CA84 00                    7665 	.db #0x00	; 0
      00CA85 00                    7666 	.db #0x00	; 0
      00CA86 00                    7667 	.db #0x00	; 0
      00CA87 F8                    7668 	.db #0xf8	; 248
      00CA88 7F                    7669 	.db #0x7f	; 127
      00CA89 80                    7670 	.db #0x80	; 128
      00CA8A 00                    7671 	.db #0x00	; 0
      00CA8B C0                    7672 	.db #0xc0	; 192
      00CA8C 00                    7673 	.db #0x00	; 0
      00CA8D 20                    7674 	.db #0x20	; 32
      00CA8E 01                    7675 	.db #0x01	; 1
      00CA8F 20                    7676 	.db #0x20	; 32
      00CA90 02                    7677 	.db #0x02	; 2
      00CA91 10                    7678 	.db #0x10	; 16
      00CA92 02                    7679 	.db #0x02	; 2
      00CA93 08                    7680 	.db #0x08	; 8
      00CA94 04                    7681 	.db #0x04	; 4
      00CA95 00                    7682 	.db #0x00	; 0
      00CA96 00                    7683 	.db #0x00	; 0
      00CA97 00                    7684 	.db #0x00	; 0
      00CA98 00                    7685 	.db #0x00	; 0
      00CA99 00                    7686 	.db #0x00	; 0
      00CA9A 00                    7687 	.db #0x00	; 0
      00CA9B 00                    7688 	.db #0x00	; 0
      00CA9C 00                    7689 	.db #0x00	; 0
      00CA9D 00                    7690 	.db #0x00	; 0
      00CA9E 40                    7691 	.db #0x40	; 64
      00CA9F 00                    7692 	.db #0x00	; 0
      00CAA0 40                    7693 	.db #0x40	; 64
      00CAA1 00                    7694 	.db #0x00	; 0
      00CAA2 40                    7695 	.db #0x40	; 64
      00CAA3 F8                    7696 	.db #0xf8	; 248
      00CAA4 7F                    7697 	.db #0x7f	; 127
      00CAA5 00                    7698 	.db #0x00	; 0
      00CAA6 00                    7699 	.db #0x00	; 0
      00CAA7 00                    7700 	.db #0x00	; 0
      00CAA8 00                    7701 	.db #0x00	; 0
      00CAA9 00                    7702 	.db #0x00	; 0
      00CAAA 00                    7703 	.db #0x00	; 0
      00CAAB 00                    7704 	.db #0x00	; 0
      00CAAC 00                    7705 	.db #0x00	; 0
      00CAAD F8                    7706 	.db #0xf8	; 248
      00CAAE 07                    7707 	.db #0x07	; 7
      00CAAF 00                    7708 	.db #0x00	; 0
      00CAB0 02                    7709 	.db #0x02	; 2
      00CAB1 00                    7710 	.db #0x00	; 0
      00CAB2 04                    7711 	.db #0x04	; 4
      00CAB3 00                    7712 	.db #0x00	; 0
      00CAB4 04                    7713 	.db #0x04	; 4
      00CAB5 F8                    7714 	.db #0xf8	; 248
      00CAB6 03                    7715 	.db #0x03	; 3
      00CAB7 00                    7716 	.db #0x00	; 0
      00CAB8 02                    7717 	.db #0x02	; 2
      00CAB9 00                    7718 	.db #0x00	; 0
      00CABA 04                    7719 	.db #0x04	; 4
      00CABB 00                    7720 	.db #0x00	; 0
      00CABC 04                    7721 	.db #0x04	; 4
      00CABD F8                    7722 	.db #0xf8	; 248
      00CABE 03                    7723 	.db #0x03	; 3
      00CABF 00                    7724 	.db #0x00	; 0
      00CAC0 00                    7725 	.db #0x00	; 0
      00CAC1 00                    7726 	.db #0x00	; 0
      00CAC2 00                    7727 	.db #0x00	; 0
      00CAC3 F8                    7728 	.db #0xf8	; 248
      00CAC4 07                    7729 	.db #0x07	; 7
      00CAC5 00                    7730 	.db #0x00	; 0
      00CAC6 03                    7731 	.db #0x03	; 3
      00CAC7 00                    7732 	.db #0x00	; 0
      00CAC8 02                    7733 	.db #0x02	; 2
      00CAC9 00                    7734 	.db #0x00	; 0
      00CACA 04                    7735 	.db #0x04	; 4
      00CACB 00                    7736 	.db #0x00	; 0
      00CACC 04                    7737 	.db #0x04	; 4
      00CACD 00                    7738 	.db #0x00	; 0
      00CACE 04                    7739 	.db #0x04	; 4
      00CACF F8                    7740 	.db #0xf8	; 248
      00CAD0 03                    7741 	.db #0x03	; 3
      00CAD1 00                    7742 	.db #0x00	; 0
      00CAD2 00                    7743 	.db #0x00	; 0
      00CAD3 00                    7744 	.db #0x00	; 0
      00CAD4 00                    7745 	.db #0x00	; 0
      00CAD5 00                    7746 	.db #0x00	; 0
      00CAD6 00                    7747 	.db #0x00	; 0
      00CAD7 E0                    7748 	.db #0xe0	; 224
      00CAD8 01                    7749 	.db #0x01	; 1
      00CAD9 10                    7750 	.db #0x10	; 16
      00CADA 02                    7751 	.db #0x02	; 2
      00CADB 08                    7752 	.db #0x08	; 8
      00CADC 04                    7753 	.db #0x04	; 4
      00CADD 08                    7754 	.db #0x08	; 8
      00CADE 04                    7755 	.db #0x04	; 4
      00CADF 08                    7756 	.db #0x08	; 8
      00CAE0 04                    7757 	.db #0x04	; 4
      00CAE1 10                    7758 	.db #0x10	; 16
      00CAE2 02                    7759 	.db #0x02	; 2
      00CAE3 E0                    7760 	.db #0xe0	; 224
      00CAE4 01                    7761 	.db #0x01	; 1
      00CAE5 00                    7762 	.db #0x00	; 0
      00CAE6 00                    7763 	.db #0x00	; 0
      00CAE7 00                    7764 	.db #0x00	; 0
      00CAE8 00                    7765 	.db #0x00	; 0
      00CAE9 00                    7766 	.db #0x00	; 0
      00CAEA 00                    7767 	.db #0x00	; 0
      00CAEB FF                    7768 	.db #0xff	; 255
      00CAEC 07                    7769 	.db #0x07	; 7
      00CAED 10                    7770 	.db #0x10	; 16
      00CAEE 02                    7771 	.db #0x02	; 2
      00CAEF 08                    7772 	.db #0x08	; 8
      00CAF0 04                    7773 	.db #0x04	; 4
      00CAF1 08                    7774 	.db #0x08	; 8
      00CAF2 04                    7775 	.db #0x04	; 4
      00CAF3 08                    7776 	.db #0x08	; 8
      00CAF4 04                    7777 	.db #0x04	; 4
      00CAF5 10                    7778 	.db #0x10	; 16
      00CAF6 06                    7779 	.db #0x06	; 6
      00CAF7 E0                    7780 	.db #0xe0	; 224
      00CAF8 01                    7781 	.db #0x01	; 1
      00CAF9 00                    7782 	.db #0x00	; 0
      00CAFA 00                    7783 	.db #0x00	; 0
      00CAFB 00                    7784 	.db #0x00	; 0
      00CAFC 00                    7785 	.db #0x00	; 0
      00CAFD 00                    7786 	.db #0x00	; 0
      00CAFE 00                    7787 	.db #0x00	; 0
      00CAFF E0                    7788 	.db #0xe0	; 224
      00CB00 01                    7789 	.db #0x01	; 1
      00CB01 18                    7790 	.db #0x18	; 24
      00CB02 02                    7791 	.db #0x02	; 2
      00CB03 08                    7792 	.db #0x08	; 8
      00CB04 04                    7793 	.db #0x04	; 4
      00CB05 08                    7794 	.db #0x08	; 8
      00CB06 04                    7795 	.db #0x04	; 4
      00CB07 08                    7796 	.db #0x08	; 8
      00CB08 04                    7797 	.db #0x04	; 4
      00CB09 10                    7798 	.db #0x10	; 16
      00CB0A 02                    7799 	.db #0x02	; 2
      00CB0B FF                    7800 	.db #0xff	; 255
      00CB0C 07                    7801 	.db #0x07	; 7
      00CB0D 00                    7802 	.db #0x00	; 0
      00CB0E 00                    7803 	.db #0x00	; 0
      00CB0F 00                    7804 	.db #0x00	; 0
      00CB10 00                    7805 	.db #0x00	; 0
      00CB11 00                    7806 	.db #0x00	; 0
      00CB12 00                    7807 	.db #0x00	; 0
      00CB13 00                    7808 	.db #0x00	; 0
      00CB14 00                    7809 	.db #0x00	; 0
      00CB15 F8                    7810 	.db #0xf8	; 248
      00CB16 07                    7811 	.db #0x07	; 7
      00CB17 00                    7812 	.db #0x00	; 0
      00CB18 01                    7813 	.db #0x01	; 1
      00CB19 00                    7814 	.db #0x00	; 0
      00CB1A 02                    7815 	.db #0x02	; 2
      00CB1B 00                    7816 	.db #0x00	; 0
      00CB1C 04                    7817 	.db #0x04	; 4
      00CB1D 00                    7818 	.db #0x00	; 0
      00CB1E 04                    7819 	.db #0x04	; 4
      00CB1F 00                    7820 	.db #0x00	; 0
      00CB20 07                    7821 	.db #0x07	; 7
      00CB21 00                    7822 	.db #0x00	; 0
      00CB22 00                    7823 	.db #0x00	; 0
      00CB23 00                    7824 	.db #0x00	; 0
      00CB24 00                    7825 	.db #0x00	; 0
      00CB25 00                    7826 	.db #0x00	; 0
      00CB26 00                    7827 	.db #0x00	; 0
      00CB27 18                    7828 	.db #0x18	; 24
      00CB28 03                    7829 	.db #0x03	; 3
      00CB29 88                    7830 	.db #0x88	; 136
      00CB2A 04                    7831 	.db #0x04	; 4
      00CB2B 88                    7832 	.db #0x88	; 136
      00CB2C 04                    7833 	.db #0x04	; 4
      00CB2D 48                    7834 	.db #0x48	; 72	'H'
      00CB2E 04                    7835 	.db #0x04	; 4
      00CB2F 48                    7836 	.db #0x48	; 72	'H'
      00CB30 04                    7837 	.db #0x04	; 4
      00CB31 30                    7838 	.db #0x30	; 48	'0'
      00CB32 04                    7839 	.db #0x04	; 4
      00CB33 00                    7840 	.db #0x00	; 0
      00CB34 00                    7841 	.db #0x00	; 0
      00CB35 00                    7842 	.db #0x00	; 0
      00CB36 00                    7843 	.db #0x00	; 0
      00CB37 00                    7844 	.db #0x00	; 0
      00CB38 00                    7845 	.db #0x00	; 0
      00CB39 00                    7846 	.db #0x00	; 0
      00CB3A 00                    7847 	.db #0x00	; 0
      00CB3B 00                    7848 	.db #0x00	; 0
      00CB3C 04                    7849 	.db #0x04	; 4
      00CB3D 00                    7850 	.db #0x00	; 0
      00CB3E 04                    7851 	.db #0x04	; 4
      00CB3F F0                    7852 	.db #0xf0	; 240
      00CB40 1F                    7853 	.db #0x1f	; 31
      00CB41 08                    7854 	.db #0x08	; 8
      00CB42 04                    7855 	.db #0x04	; 4
      00CB43 08                    7856 	.db #0x08	; 8
      00CB44 04                    7857 	.db #0x04	; 4
      00CB45 08                    7858 	.db #0x08	; 8
      00CB46 04                    7859 	.db #0x04	; 4
      00CB47 08                    7860 	.db #0x08	; 8
      00CB48 04                    7861 	.db #0x04	; 4
      00CB49 00                    7862 	.db #0x00	; 0
      00CB4A 00                    7863 	.db #0x00	; 0
      00CB4B 00                    7864 	.db #0x00	; 0
      00CB4C 00                    7865 	.db #0x00	; 0
      00CB4D 00                    7866 	.db #0x00	; 0
      00CB4E 00                    7867 	.db #0x00	; 0
      00CB4F F0                    7868 	.db #0xf0	; 240
      00CB50 07                    7869 	.db #0x07	; 7
      00CB51 08                    7870 	.db #0x08	; 8
      00CB52 00                    7871 	.db #0x00	; 0
      00CB53 08                    7872 	.db #0x08	; 8
      00CB54 00                    7873 	.db #0x00	; 0
      00CB55 08                    7874 	.db #0x08	; 8
      00CB56 00                    7875 	.db #0x00	; 0
      00CB57 10                    7876 	.db #0x10	; 16
      00CB58 00                    7877 	.db #0x00	; 0
      00CB59 F8                    7878 	.db #0xf8	; 248
      00CB5A 07                    7879 	.db #0x07	; 7
      00CB5B 00                    7880 	.db #0x00	; 0
      00CB5C 00                    7881 	.db #0x00	; 0
      00CB5D 00                    7882 	.db #0x00	; 0
      00CB5E 00                    7883 	.db #0x00	; 0
      00CB5F 00                    7884 	.db #0x00	; 0
      00CB60 00                    7885 	.db #0x00	; 0
      00CB61 00                    7886 	.db #0x00	; 0
      00CB62 04                    7887 	.db #0x04	; 4
      00CB63 80                    7888 	.db #0x80	; 128
      00CB64 03                    7889 	.db #0x03	; 3
      00CB65 60                    7890 	.db #0x60	; 96
      00CB66 00                    7891 	.db #0x00	; 0
      00CB67 18                    7892 	.db #0x18	; 24
      00CB68 00                    7893 	.db #0x00	; 0
      00CB69 08                    7894 	.db #0x08	; 8
      00CB6A 00                    7895 	.db #0x00	; 0
      00CB6B 30                    7896 	.db #0x30	; 48	'0'
      00CB6C 00                    7897 	.db #0x00	; 0
      00CB6D C0                    7898 	.db #0xc0	; 192
      00CB6E 00                    7899 	.db #0x00	; 0
      00CB6F 00                    7900 	.db #0x00	; 0
      00CB70 03                    7901 	.db #0x03	; 3
      00CB71 00                    7902 	.db #0x00	; 0
      00CB72 04                    7903 	.db #0x04	; 4
      00CB73 00                    7904 	.db #0x00	; 0
      00CB74 00                    7905 	.db #0x00	; 0
      00CB75 00                    7906 	.db #0x00	; 0
      00CB76 06                    7907 	.db #0x06	; 6
      00CB77 E0                    7908 	.db #0xe0	; 224
      00CB78 01                    7909 	.db #0x01	; 1
      00CB79 18                    7910 	.db #0x18	; 24
      00CB7A 00                    7911 	.db #0x00	; 0
      00CB7B 70                    7912 	.db #0x70	; 112	'p'
      00CB7C 00                    7913 	.db #0x00	; 0
      00CB7D 80                    7914 	.db #0x80	; 128
      00CB7E 03                    7915 	.db #0x03	; 3
      00CB7F 80                    7916 	.db #0x80	; 128
      00CB80 01                    7917 	.db #0x01	; 1
      00CB81 70                    7918 	.db #0x70	; 112	'p'
      00CB82 00                    7919 	.db #0x00	; 0
      00CB83 18                    7920 	.db #0x18	; 24
      00CB84 00                    7921 	.db #0x00	; 0
      00CB85 E0                    7922 	.db #0xe0	; 224
      00CB86 01                    7923 	.db #0x01	; 1
      00CB87 00                    7924 	.db #0x00	; 0
      00CB88 06                    7925 	.db #0x06	; 6
      00CB89 00                    7926 	.db #0x00	; 0
      00CB8A 00                    7927 	.db #0x00	; 0
      00CB8B 08                    7928 	.db #0x08	; 8
      00CB8C 04                    7929 	.db #0x04	; 4
      00CB8D 10                    7930 	.db #0x10	; 16
      00CB8E 02                    7931 	.db #0x02	; 2
      00CB8F 20                    7932 	.db #0x20	; 32
      00CB90 01                    7933 	.db #0x01	; 1
      00CB91 C0                    7934 	.db #0xc0	; 192
      00CB92 00                    7935 	.db #0x00	; 0
      00CB93 C0                    7936 	.db #0xc0	; 192
      00CB94 00                    7937 	.db #0x00	; 0
      00CB95 20                    7938 	.db #0x20	; 32
      00CB96 01                    7939 	.db #0x01	; 1
      00CB97 10                    7940 	.db #0x10	; 16
      00CB98 02                    7941 	.db #0x02	; 2
      00CB99 08                    7942 	.db #0x08	; 8
      00CB9A 04                    7943 	.db #0x04	; 4
      00CB9B 00                    7944 	.db #0x00	; 0
      00CB9C 00                    7945 	.db #0x00	; 0
      00CB9D 01                    7946 	.db #0x01	; 1
      00CB9E 04                    7947 	.db #0x04	; 4
      00CB9F 01                    7948 	.db #0x01	; 1
      00CBA0 03                    7949 	.db #0x03	; 3
      00CBA1 C1                    7950 	.db #0xc1	; 193
      00CBA2 00                    7951 	.db #0x00	; 0
      00CBA3 62                    7952 	.db #0x62	; 98	'b'
      00CBA4 00                    7953 	.db #0x00	; 0
      00CBA5 1C                    7954 	.db #0x1c	; 28
      00CBA6 00                    7955 	.db #0x00	; 0
      00CBA7 18                    7956 	.db #0x18	; 24
      00CBA8 00                    7957 	.db #0x00	; 0
      00CBA9 60                    7958 	.db #0x60	; 96
      00CBAA 00                    7959 	.db #0x00	; 0
      00CBAB 80                    7960 	.db #0x80	; 128
      00CBAC 00                    7961 	.db #0x00	; 0
      00CBAD 00                    7962 	.db #0x00	; 0
      00CBAE 03                    7963 	.db #0x03	; 3
      00CBAF 00                    7964 	.db #0x00	; 0
      00CBB0 04                    7965 	.db #0x04	; 4
      00CBB1 00                    7966 	.db #0x00	; 0
      00CBB2 00                    7967 	.db #0x00	; 0
      00CBB3 08                    7968 	.db #0x08	; 8
      00CBB4 04                    7969 	.db #0x04	; 4
      00CBB5 18                    7970 	.db #0x18	; 24
      00CBB6 04                    7971 	.db #0x04	; 4
      00CBB7 28                    7972 	.db #0x28	; 40
      00CBB8 04                    7973 	.db #0x04	; 4
      00CBB9 48                    7974 	.db #0x48	; 72	'H'
      00CBBA 04                    7975 	.db #0x04	; 4
      00CBBB 88                    7976 	.db #0x88	; 136
      00CBBC 04                    7977 	.db #0x04	; 4
      00CBBD 08                    7978 	.db #0x08	; 8
      00CBBE 05                    7979 	.db #0x05	; 5
      00CBBF 08                    7980 	.db #0x08	; 8
      00CBC0 06                    7981 	.db #0x06	; 6
      00CBC1 08                    7982 	.db #0x08	; 8
      00CBC2 04                    7983 	.db #0x04	; 4
      00CBC3 00                    7984 	.db #0x00	; 0
      00CBC4 00                    7985 	.db #0x00	; 0
      00CBC5 00                    7986 	.db #0x00	; 0
      00CBC6 00                    7987 	.db #0x00	; 0
      00CBC7 00                    7988 	.db #0x00	; 0
      00CBC8 00                    7989 	.db #0x00	; 0
      00CBC9 80                    7990 	.db #0x80	; 128
      00CBCA 00                    7991 	.db #0x00	; 0
      00CBCB 80                    7992 	.db #0x80	; 128
      00CBCC 00                    7993 	.db #0x00	; 0
      00CBCD 7C                    7994 	.db #0x7c	; 124
      00CBCE 3F                    7995 	.db #0x3f	; 63
      00CBCF 02                    7996 	.db #0x02	; 2
      00CBD0 40                    7997 	.db #0x40	; 64
      00CBD1 02                    7998 	.db #0x02	; 2
      00CBD2 40                    7999 	.db #0x40	; 64
      00CBD3 02                    8000 	.db #0x02	; 2
      00CBD4 40                    8001 	.db #0x40	; 64
      00CBD5 00                    8002 	.db #0x00	; 0
      00CBD6 00                    8003 	.db #0x00	; 0
      00CBD7 00                    8004 	.db #0x00	; 0
      00CBD8 00                    8005 	.db #0x00	; 0
      00CBD9 00                    8006 	.db #0x00	; 0
      00CBDA 00                    8007 	.db #0x00	; 0
      00CBDB 00                    8008 	.db #0x00	; 0
      00CBDC 00                    8009 	.db #0x00	; 0
      00CBDD 00                    8010 	.db #0x00	; 0
      00CBDE 00                    8011 	.db #0x00	; 0
      00CBDF 00                    8012 	.db #0x00	; 0
      00CBE0 00                    8013 	.db #0x00	; 0
      00CBE1 FE                    8014 	.db #0xfe	; 254
      00CBE2 7F                    8015 	.db #0x7f	; 127
      00CBE3 00                    8016 	.db #0x00	; 0
      00CBE4 00                    8017 	.db #0x00	; 0
      00CBE5 00                    8018 	.db #0x00	; 0
      00CBE6 00                    8019 	.db #0x00	; 0
      00CBE7 00                    8020 	.db #0x00	; 0
      00CBE8 00                    8021 	.db #0x00	; 0
      00CBE9 00                    8022 	.db #0x00	; 0
      00CBEA 00                    8023 	.db #0x00	; 0
      00CBEB 00                    8024 	.db #0x00	; 0
      00CBEC 00                    8025 	.db #0x00	; 0
      00CBED 00                    8026 	.db #0x00	; 0
      00CBEE 00                    8027 	.db #0x00	; 0
      00CBEF 00                    8028 	.db #0x00	; 0
      00CBF0 00                    8029 	.db #0x00	; 0
      00CBF1 02                    8030 	.db #0x02	; 2
      00CBF2 40                    8031 	.db #0x40	; 64
      00CBF3 02                    8032 	.db #0x02	; 2
      00CBF4 40                    8033 	.db #0x40	; 64
      00CBF5 02                    8034 	.db #0x02	; 2
      00CBF6 40                    8035 	.db #0x40	; 64
      00CBF7 7C                    8036 	.db #0x7c	; 124
      00CBF8 3F                    8037 	.db #0x3f	; 63
      00CBF9 80                    8038 	.db #0x80	; 128
      00CBFA 00                    8039 	.db #0x00	; 0
      00CBFB 80                    8040 	.db #0x80	; 128
      00CBFC 00                    8041 	.db #0x00	; 0
      00CBFD 00                    8042 	.db #0x00	; 0
      00CBFE 00                    8043 	.db #0x00	; 0
      00CBFF 00                    8044 	.db #0x00	; 0
      00CC00 00                    8045 	.db #0x00	; 0
      00CC01 C0                    8046 	.db #0xc0	; 192
      00CC02 00                    8047 	.db #0x00	; 0
      00CC03 00                    8048 	.db #0x00	; 0
      00CC04 01                    8049 	.db #0x01	; 1
      00CC05 00                    8050 	.db #0x00	; 0
      00CC06 01                    8051 	.db #0x01	; 1
      00CC07 00                    8052 	.db #0x00	; 0
      00CC08 01                    8053 	.db #0x01	; 1
      00CC09 80                    8054 	.db #0x80	; 128
      00CC0A 00                    8055 	.db #0x00	; 0
      00CC0B 80                    8056 	.db #0x80	; 128
      00CC0C 00                    8057 	.db #0x00	; 0
      00CC0D 40                    8058 	.db #0x40	; 64
      00CC0E 00                    8059 	.db #0x00	; 0
      00CC0F 40                    8060 	.db #0x40	; 64
      00CC10 00                    8061 	.db #0x00	; 0
      00CC11 40                    8062 	.db #0x40	; 64
      00CC12 00                    8063 	.db #0x00	; 0
      00CC13 80                    8064 	.db #0x80	; 128
      00CC14 01                    8065 	.db #0x01	; 1
      00CC15 00                    8066 	.db #0x00	; 0
      00CC16 00                    8067 	.db #0x00	; 0
      00CC17 F8                    8068 	.db #0xf8	; 248
      00CC18 01                    8069 	.db #0x01	; 1
      00CC19 08                    8070 	.db #0x08	; 8
      00CC1A 03                    8071 	.db #0x03	; 3
      00CC1B 08                    8072 	.db #0x08	; 8
      00CC1C 04                    8073 	.db #0x04	; 4
      00CC1D 08                    8074 	.db #0x08	; 8
      00CC1E 08                    8075 	.db #0x08	; 8
      00CC1F 08                    8076 	.db #0x08	; 8
      00CC20 04                    8077 	.db #0x04	; 4
      00CC21 08                    8078 	.db #0x08	; 8
      00CC22 03                    8079 	.db #0x03	; 3
      00CC23 F8                    8080 	.db #0xf8	; 248
      00CC24 01                    8081 	.db #0x01	; 1
      00CC25 00                    8082 	.db #0x00	; 0
      00CC26 00                    8083 	.db #0x00	; 0
      00CC27 00                    8084 	.db #0x00	; 0
      00CC28 00                    8085 	.db #0x00	; 0
      00CC29 C0                    8086 	.db #0xc0	; 192
      00CC2A 03                    8087 	.db #0x03	; 3
      00CC2B 30                    8088 	.db #0x30	; 48	'0'
      00CC2C 0C                    8089 	.db #0x0c	; 12
      00CC2D 10                    8090 	.db #0x10	; 16
      00CC2E 08                    8091 	.db #0x08	; 8
      00CC2F 08                    8092 	.db #0x08	; 8
      00CC30 10                    8093 	.db #0x10	; 16
      00CC31 08                    8094 	.db #0x08	; 8
      00CC32 10                    8095 	.db #0x10	; 16
      00CC33 09                    8096 	.db #0x09	; 9
      00CC34 10                    8097 	.db #0x10	; 16
      00CC35 0D                    8098 	.db #0x0d	; 13
      00CC36 10                    8099 	.db #0x10	; 16
      00CC37 0B                    8100 	.db #0x0b	; 11
      00CC38 18                    8101 	.db #0x18	; 24
      00CC39 00                    8102 	.db #0x00	; 0
      00CC3A 00                    8103 	.db #0x00	; 0
      00CC3B 00                    8104 	.db #0x00	; 0
      00CC3C 00                    8105 	.db #0x00	; 0
      00CC3D 00                    8106 	.db #0x00	; 0
      00CC3E 00                    8107 	.db #0x00	; 0
      00CC3F F0                    8108 	.db #0xf0	; 240
      00CC40 07                    8109 	.db #0x07	; 7
      00CC41 08                    8110 	.db #0x08	; 8
      00CC42 20                    8111 	.db #0x20	; 32
      00CC43 08                    8112 	.db #0x08	; 8
      00CC44 00                    8113 	.db #0x00	; 0
      00CC45 08                    8114 	.db #0x08	; 8
      00CC46 00                    8115 	.db #0x00	; 0
      00CC47 10                    8116 	.db #0x10	; 16
      00CC48 20                    8117 	.db #0x20	; 32
      00CC49 F8                    8118 	.db #0xf8	; 248
      00CC4A 07                    8119 	.db #0x07	; 7
      00CC4B 00                    8120 	.db #0x00	; 0
      00CC4C 00                    8121 	.db #0x00	; 0
      00CC4D 00                    8122 	.db #0x00	; 0
      00CC4E 00                    8123 	.db #0x00	; 0
      00CC4F 00                    8124 	.db #0x00	; 0
      00CC50 00                    8125 	.db #0x00	; 0
      00CC51 00                    8126 	.db #0x00	; 0
      00CC52 00                    8127 	.db #0x00	; 0
      00CC53 E0                    8128 	.db #0xe0	; 224
      00CC54 01                    8129 	.db #0x01	; 1
      00CC55 90                    8130 	.db #0x90	; 144
      00CC56 02                    8131 	.db #0x02	; 2
      00CC57 88                    8132 	.db #0x88	; 136
      00CC58 04                    8133 	.db #0x04	; 4
      00CC59 88                    8134 	.db #0x88	; 136
      00CC5A 24                    8135 	.db #0x24	; 36
      00CC5B 88                    8136 	.db #0x88	; 136
      00CC5C 44                    8137 	.db #0x44	; 68	'D'
      00CC5D 88                    8138 	.db #0x88	; 136
      00CC5E 04                    8139 	.db #0x04	; 4
      00CC5F 88                    8140 	.db #0x88	; 136
      00CC60 03                    8141 	.db #0x03	; 3
      00CC61 00                    8142 	.db #0x00	; 0
      00CC62 00                    8143 	.db #0x00	; 0
      00CC63 00                    8144 	.db #0x00	; 0
      00CC64 00                    8145 	.db #0x00	; 0
      00CC65 00                    8146 	.db #0x00	; 0
      00CC66 00                    8147 	.db #0x00	; 0
      00CC67 30                    8148 	.db #0x30	; 48	'0'
      00CC68 00                    8149 	.db #0x00	; 0
      00CC69 48                    8150 	.db #0x48	; 72	'H'
      00CC6A 24                    8151 	.db #0x24	; 36
      00CC6B 88                    8152 	.db #0x88	; 136
      00CC6C 44                    8153 	.db #0x44	; 68	'D'
      00CC6D 88                    8154 	.db #0x88	; 136
      00CC6E 44                    8155 	.db #0x44	; 68	'D'
      00CC6F 90                    8156 	.db #0x90	; 144
      00CC70 24                    8157 	.db #0x24	; 36
      00CC71 F8                    8158 	.db #0xf8	; 248
      00CC72 03                    8159 	.db #0x03	; 3
      00CC73 08                    8160 	.db #0x08	; 8
      00CC74 00                    8161 	.db #0x00	; 0
      00CC75 00                    8162 	.db #0x00	; 0
      00CC76 00                    8163 	.db #0x00	; 0
      00CC77 00                    8164 	.db #0x00	; 0
      00CC78 00                    8165 	.db #0x00	; 0
      00CC79 00                    8166 	.db #0x00	; 0
      00CC7A 00                    8167 	.db #0x00	; 0
      00CC7B 30                    8168 	.db #0x30	; 48	'0'
      00CC7C 00                    8169 	.db #0x00	; 0
      00CC7D 48                    8170 	.db #0x48	; 72	'H'
      00CC7E 24                    8171 	.db #0x24	; 36
      00CC7F 88                    8172 	.db #0x88	; 136
      00CC80 04                    8173 	.db #0x04	; 4
      00CC81 88                    8174 	.db #0x88	; 136
      00CC82 04                    8175 	.db #0x04	; 4
      00CC83 90                    8176 	.db #0x90	; 144
      00CC84 24                    8177 	.db #0x24	; 36
      00CC85 F8                    8178 	.db #0xf8	; 248
      00CC86 03                    8179 	.db #0x03	; 3
      00CC87 08                    8180 	.db #0x08	; 8
      00CC88 00                    8181 	.db #0x00	; 0
      00CC89 00                    8182 	.db #0x00	; 0
      00CC8A 00                    8183 	.db #0x00	; 0
      00CC8B 00                    8184 	.db #0x00	; 0
      00CC8C 00                    8185 	.db #0x00	; 0
      00CC8D 00                    8186 	.db #0x00	; 0
      00CC8E 00                    8187 	.db #0x00	; 0
      00CC8F 30                    8188 	.db #0x30	; 48	'0'
      00CC90 00                    8189 	.db #0x00	; 0
      00CC91 48                    8190 	.db #0x48	; 72	'H'
      00CC92 44                    8191 	.db #0x44	; 68	'D'
      00CC93 88                    8192 	.db #0x88	; 136
      00CC94 24                    8193 	.db #0x24	; 36
      00CC95 88                    8194 	.db #0x88	; 136
      00CC96 04                    8195 	.db #0x04	; 4
      00CC97 90                    8196 	.db #0x90	; 144
      00CC98 04                    8197 	.db #0x04	; 4
      00CC99 F8                    8198 	.db #0xf8	; 248
      00CC9A 03                    8199 	.db #0x03	; 3
      00CC9B 08                    8200 	.db #0x08	; 8
      00CC9C 00                    8201 	.db #0x00	; 0
      00CC9D 00                    8202 	.db #0x00	; 0
      00CC9E 00                    8203 	.db #0x00	; 0
      00CC9F 00                    8204 	.db #0x00	; 0
      00CCA0 00                    8205 	.db #0x00	; 0
      00CCA1 00                    8206 	.db #0x00	; 0
      00CCA2 00                    8207 	.db #0x00	; 0
      00CCA3 30                    8208 	.db #0x30	; 48	'0'
      00CCA4 00                    8209 	.db #0x00	; 0
      00CCA5 48                    8210 	.db #0x48	; 72	'H'
      00CCA6 04                    8211 	.db #0x04	; 4
      00CCA7 88                    8212 	.db #0x88	; 136
      00CCA8 44                    8213 	.db #0x44	; 68	'D'
      00CCA9 88                    8214 	.db #0x88	; 136
      00CCAA A4                    8215 	.db #0xa4	; 164
      00CCAB 90                    8216 	.db #0x90	; 144
      00CCAC 44                    8217 	.db #0x44	; 68	'D'
      00CCAD F8                    8218 	.db #0xf8	; 248
      00CCAE 03                    8219 	.db #0x03	; 3
      00CCAF 08                    8220 	.db #0x08	; 8
      00CCB0 00                    8221 	.db #0x00	; 0
      00CCB1 00                    8222 	.db #0x00	; 0
      00CCB2 00                    8223 	.db #0x00	; 0
      00CCB3 00                    8224 	.db #0x00	; 0
      00CCB4 00                    8225 	.db #0x00	; 0
      00CCB5 00                    8226 	.db #0x00	; 0
      00CCB6 00                    8227 	.db #0x00	; 0
      00CCB7 E0                    8228 	.db #0xe0	; 224
      00CCB8 01                    8229 	.db #0x01	; 1
      00CCB9 10                    8230 	.db #0x10	; 16
      00CCBA 02                    8231 	.db #0x02	; 2
      00CCBB 08                    8232 	.db #0x08	; 8
      00CCBC 04                    8233 	.db #0x04	; 4
      00CCBD 09                    8234 	.db #0x09	; 9
      00CCBE 04                    8235 	.db #0x04	; 4
      00CCBF 0D                    8236 	.db #0x0d	; 13
      00CCC0 04                    8237 	.db #0x04	; 4
      00CCC1 0B                    8238 	.db #0x0b	; 11
      00CCC2 04                    8239 	.db #0x04	; 4
      00CCC3 08                    8240 	.db #0x08	; 8
      00CCC4 04                    8241 	.db #0x04	; 4
      00CCC5 00                    8242 	.db #0x00	; 0
      00CCC6 00                    8243 	.db #0x00	; 0
      00CCC7 00                    8244 	.db #0x00	; 0
      00CCC8 00                    8245 	.db #0x00	; 0
      00CCC9 00                    8246 	.db #0x00	; 0
      00CCCA 00                    8247 	.db #0x00	; 0
      00CCCB E0                    8248 	.db #0xe0	; 224
      00CCCC 01                    8249 	.db #0x01	; 1
      00CCCD 90                    8250 	.db #0x90	; 144
      00CCCE 22                    8251 	.db #0x22	; 34
      00CCCF 88                    8252 	.db #0x88	; 136
      00CCD0 44                    8253 	.db #0x44	; 68	'D'
      00CCD1 88                    8254 	.db #0x88	; 136
      00CCD2 44                    8255 	.db #0x44	; 68	'D'
      00CCD3 88                    8256 	.db #0x88	; 136
      00CCD4 24                    8257 	.db #0x24	; 36
      00CCD5 88                    8258 	.db #0x88	; 136
      00CCD6 04                    8259 	.db #0x04	; 4
      00CCD7 88                    8260 	.db #0x88	; 136
      00CCD8 03                    8261 	.db #0x03	; 3
      00CCD9 00                    8262 	.db #0x00	; 0
      00CCDA 00                    8263 	.db #0x00	; 0
      00CCDB 00                    8264 	.db #0x00	; 0
      00CCDC 00                    8265 	.db #0x00	; 0
      00CCDD 00                    8266 	.db #0x00	; 0
      00CCDE 00                    8267 	.db #0x00	; 0
      00CCDF E0                    8268 	.db #0xe0	; 224
      00CCE0 01                    8269 	.db #0x01	; 1
      00CCE1 90                    8270 	.db #0x90	; 144
      00CCE2 02                    8271 	.db #0x02	; 2
      00CCE3 88                    8272 	.db #0x88	; 136
      00CCE4 24                    8273 	.db #0x24	; 36
      00CCE5 88                    8274 	.db #0x88	; 136
      00CCE6 04                    8275 	.db #0x04	; 4
      00CCE7 88                    8276 	.db #0x88	; 136
      00CCE8 04                    8277 	.db #0x04	; 4
      00CCE9 88                    8278 	.db #0x88	; 136
      00CCEA 24                    8279 	.db #0x24	; 36
      00CCEB 88                    8280 	.db #0x88	; 136
      00CCEC 03                    8281 	.db #0x03	; 3
      00CCED 00                    8282 	.db #0x00	; 0
      00CCEE 00                    8283 	.db #0x00	; 0
      00CCEF 00                    8284 	.db #0x00	; 0
      00CCF0 00                    8285 	.db #0x00	; 0
      00CCF1 00                    8286 	.db #0x00	; 0
      00CCF2 00                    8287 	.db #0x00	; 0
      00CCF3 E0                    8288 	.db #0xe0	; 224
      00CCF4 01                    8289 	.db #0x01	; 1
      00CCF5 90                    8290 	.db #0x90	; 144
      00CCF6 02                    8291 	.db #0x02	; 2
      00CCF7 88                    8292 	.db #0x88	; 136
      00CCF8 44                    8293 	.db #0x44	; 68	'D'
      00CCF9 88                    8294 	.db #0x88	; 136
      00CCFA 24                    8295 	.db #0x24	; 36
      00CCFB 88                    8296 	.db #0x88	; 136
      00CCFC 04                    8297 	.db #0x04	; 4
      00CCFD 88                    8298 	.db #0x88	; 136
      00CCFE 04                    8299 	.db #0x04	; 4
      00CCFF 88                    8300 	.db #0x88	; 136
      00CD00 03                    8301 	.db #0x03	; 3
      00CD01 00                    8302 	.db #0x00	; 0
      00CD02 00                    8303 	.db #0x00	; 0
      00CD03 00                    8304 	.db #0x00	; 0
      00CD04 00                    8305 	.db #0x00	; 0
      00CD05 00                    8306 	.db #0x00	; 0
      00CD06 00                    8307 	.db #0x00	; 0
      00CD07 00                    8308 	.db #0x00	; 0
      00CD08 04                    8309 	.db #0x04	; 4
      00CD09 00                    8310 	.db #0x00	; 0
      00CD0A 24                    8311 	.db #0x24	; 36
      00CD0B 00                    8312 	.db #0x00	; 0
      00CD0C 04                    8313 	.db #0x04	; 4
      00CD0D F8                    8314 	.db #0xf8	; 248
      00CD0E 07                    8315 	.db #0x07	; 7
      00CD0F 00                    8316 	.db #0x00	; 0
      00CD10 20                    8317 	.db #0x20	; 32
      00CD11 00                    8318 	.db #0x00	; 0
      00CD12 00                    8319 	.db #0x00	; 0
      00CD13 00                    8320 	.db #0x00	; 0
      00CD14 00                    8321 	.db #0x00	; 0
      00CD15 00                    8322 	.db #0x00	; 0
      00CD16 00                    8323 	.db #0x00	; 0
      00CD17 00                    8324 	.db #0x00	; 0
      00CD18 00                    8325 	.db #0x00	; 0
      00CD19 00                    8326 	.db #0x00	; 0
      00CD1A 00                    8327 	.db #0x00	; 0
      00CD1B 00                    8328 	.db #0x00	; 0
      00CD1C 04                    8329 	.db #0x04	; 4
      00CD1D 00                    8330 	.db #0x00	; 0
      00CD1E 24                    8331 	.db #0x24	; 36
      00CD1F 00                    8332 	.db #0x00	; 0
      00CD20 44                    8333 	.db #0x44	; 68	'D'
      00CD21 F8                    8334 	.db #0xf8	; 248
      00CD22 47                    8335 	.db #0x47	; 71	'G'
      00CD23 00                    8336 	.db #0x00	; 0
      00CD24 20                    8337 	.db #0x20	; 32
      00CD25 00                    8338 	.db #0x00	; 0
      00CD26 00                    8339 	.db #0x00	; 0
      00CD27 00                    8340 	.db #0x00	; 0
      00CD28 00                    8341 	.db #0x00	; 0
      00CD29 00                    8342 	.db #0x00	; 0
      00CD2A 00                    8343 	.db #0x00	; 0
      00CD2B 00                    8344 	.db #0x00	; 0
      00CD2C 00                    8345 	.db #0x00	; 0
      00CD2D 00                    8346 	.db #0x00	; 0
      00CD2E 00                    8347 	.db #0x00	; 0
      00CD2F 00                    8348 	.db #0x00	; 0
      00CD30 04                    8349 	.db #0x04	; 4
      00CD31 00                    8350 	.db #0x00	; 0
      00CD32 04                    8351 	.db #0x04	; 4
      00CD33 00                    8352 	.db #0x00	; 0
      00CD34 44                    8353 	.db #0x44	; 68	'D'
      00CD35 F8                    8354 	.db #0xf8	; 248
      00CD36 27                    8355 	.db #0x27	; 39
      00CD37 00                    8356 	.db #0x00	; 0
      00CD38 00                    8357 	.db #0x00	; 0
      00CD39 00                    8358 	.db #0x00	; 0
      00CD3A 00                    8359 	.db #0x00	; 0
      00CD3B 00                    8360 	.db #0x00	; 0
      00CD3C 00                    8361 	.db #0x00	; 0
      00CD3D 00                    8362 	.db #0x00	; 0
      00CD3E 00                    8363 	.db #0x00	; 0
      00CD3F 00                    8364 	.db #0x00	; 0
      00CD40 00                    8365 	.db #0x00	; 0
      00CD41 08                    8366 	.db #0x08	; 8
      00CD42 00                    8367 	.db #0x00	; 0
      00CD43 70                    8368 	.db #0x70	; 112	'p'
      00CD44 00                    8369 	.db #0x00	; 0
      00CD45 C0                    8370 	.db #0xc0	; 192
      00CD46 81                    8371 	.db #0x81	; 129
      00CD47 40                    8372 	.db #0x40	; 64
      00CD48 0E                    8373 	.db #0x0e	; 14
      00CD49 40                    8374 	.db #0x40	; 64
      00CD4A 18                    8375 	.db #0x18	; 24
      00CD4B 40                    8376 	.db #0x40	; 64
      00CD4C 0C                    8377 	.db #0x0c	; 12
      00CD4D 40                    8378 	.db #0x40	; 64
      00CD4E 83                    8379 	.db #0x83	; 131
      00CD4F C0                    8380 	.db #0xc0	; 192
      00CD50 00                    8381 	.db #0x00	; 0
      00CD51 30                    8382 	.db #0x30	; 48	'0'
      00CD52 00                    8383 	.db #0x00	; 0
      00CD53 08                    8384 	.db #0x08	; 8
      00CD54 00                    8385 	.db #0x00	; 0
      00CD55 08                    8386 	.db #0x08	; 8
      00CD56 00                    8387 	.db #0x00	; 0
      00CD57 70                    8388 	.db #0x70	; 112	'p'
      00CD58 00                    8389 	.db #0x00	; 0
      00CD59 C0                    8390 	.db #0xc0	; 192
      00CD5A 01                    8391 	.db #0x01	; 1
      00CD5B 40                    8392 	.db #0x40	; 64
      00CD5C 4E                    8393 	.db #0x4e	; 78	'N'
      00CD5D 40                    8394 	.db #0x40	; 64
      00CD5E B0                    8395 	.db #0xb0	; 176
      00CD5F 40                    8396 	.db #0x40	; 64
      00CD60 B8                    8397 	.db #0xb8	; 184
      00CD61 40                    8398 	.db #0x40	; 64
      00CD62 4F                    8399 	.db #0x4f	; 79	'O'
      00CD63 C0                    8400 	.db #0xc0	; 192
      00CD64 01                    8401 	.db #0x01	; 1
      00CD65 70                    8402 	.db #0x70	; 112	'p'
      00CD66 00                    8403 	.db #0x00	; 0
      00CD67 08                    8404 	.db #0x08	; 8
      00CD68 00                    8405 	.db #0x00	; 0
      00CD69 00                    8406 	.db #0x00	; 0
      00CD6A 00                    8407 	.db #0x00	; 0
      00CD6B F8                    8408 	.db #0xf8	; 248
      00CD6C 1F                    8409 	.db #0x1f	; 31
      00CD6D 88                    8410 	.db #0x88	; 136
      00CD6E 10                    8411 	.db #0x10	; 16
      00CD6F 88                    8412 	.db #0x88	; 136
      00CD70 10                    8413 	.db #0x10	; 16
      00CD71 88                    8414 	.db #0x88	; 136
      00CD72 50                    8415 	.db #0x50	; 80	'P'
      00CD73 88                    8416 	.db #0x88	; 136
      00CD74 90                    8417 	.db #0x90	; 144
      00CD75 88                    8418 	.db #0x88	; 136
      00CD76 10                    8419 	.db #0x10	; 16
      00CD77 08                    8420 	.db #0x08	; 8
      00CD78 10                    8421 	.db #0x10	; 16
      00CD79 00                    8422 	.db #0x00	; 0
      00CD7A 00                    8423 	.db #0x00	; 0
      00CD7B 00                    8424 	.db #0x00	; 0
      00CD7C 00                    8425 	.db #0x00	; 0
      00CD7D 70                    8426 	.db #0x70	; 112	'p'
      00CD7E 04                    8427 	.db #0x04	; 4
      00CD7F C8                    8428 	.db #0xc8	; 200
      00CD80 04                    8429 	.db #0x04	; 4
      00CD81 88                    8430 	.db #0x88	; 136
      00CD82 04                    8431 	.db #0x04	; 4
      00CD83 88                    8432 	.db #0x88	; 136
      00CD84 04                    8433 	.db #0x04	; 4
      00CD85 F0                    8434 	.db #0xf0	; 240
      00CD86 03                    8435 	.db #0x03	; 3
      00CD87 98                    8436 	.db #0x98	; 152
      00CD88 04                    8437 	.db #0x04	; 4
      00CD89 88                    8438 	.db #0x88	; 136
      00CD8A 04                    8439 	.db #0x04	; 4
      00CD8B 88                    8440 	.db #0x88	; 136
      00CD8C 04                    8441 	.db #0x04	; 4
      00CD8D 88                    8442 	.db #0x88	; 136
      00CD8E 03                    8443 	.db #0x03	; 3
      00CD8F 00                    8444 	.db #0x00	; 0
      00CD90 00                    8445 	.db #0x00	; 0
      00CD91 08                    8446 	.db #0x08	; 8
      00CD92 00                    8447 	.db #0x00	; 0
      00CD93 30                    8448 	.db #0x30	; 48	'0'
      00CD94 00                    8449 	.db #0x00	; 0
      00CD95 E0                    8450 	.db #0xe0	; 224
      00CD96 01                    8451 	.db #0x01	; 1
      00CD97 20                    8452 	.db #0x20	; 32
      00CD98 06                    8453 	.db #0x06	; 6
      00CD99 20                    8454 	.db #0x20	; 32
      00CD9A 18                    8455 	.db #0x18	; 24
      00CD9B F8                    8456 	.db #0xf8	; 248
      00CD9C 1F                    8457 	.db #0x1f	; 31
      00CD9D 88                    8458 	.db #0x88	; 136
      00CD9E 10                    8459 	.db #0x10	; 16
      00CD9F 88                    8460 	.db #0x88	; 136
      00CDA0 10                    8461 	.db #0x10	; 16
      00CDA1 08                    8462 	.db #0x08	; 8
      00CDA2 10                    8463 	.db #0x10	; 16
      00CDA3 00                    8464 	.db #0x00	; 0
      00CDA4 00                    8465 	.db #0x00	; 0
      00CDA5 00                    8466 	.db #0x00	; 0
      00CDA6 00                    8467 	.db #0x00	; 0
      00CDA7 E0                    8468 	.db #0xe0	; 224
      00CDA8 01                    8469 	.db #0x01	; 1
      00CDA9 10                    8470 	.db #0x10	; 16
      00CDAA 22                    8471 	.db #0x22	; 34
      00CDAB 08                    8472 	.db #0x08	; 8
      00CDAC 44                    8473 	.db #0x44	; 68	'D'
      00CDAD 08                    8474 	.db #0x08	; 8
      00CDAE 44                    8475 	.db #0x44	; 68	'D'
      00CDAF 08                    8476 	.db #0x08	; 8
      00CDB0 24                    8477 	.db #0x24	; 36
      00CDB1 10                    8478 	.db #0x10	; 16
      00CDB2 02                    8479 	.db #0x02	; 2
      00CDB3 E0                    8480 	.db #0xe0	; 224
      00CDB4 01                    8481 	.db #0x01	; 1
      00CDB5 00                    8482 	.db #0x00	; 0
      00CDB6 00                    8483 	.db #0x00	; 0
      00CDB7 00                    8484 	.db #0x00	; 0
      00CDB8 00                    8485 	.db #0x00	; 0
      00CDB9 00                    8486 	.db #0x00	; 0
      00CDBA 00                    8487 	.db #0x00	; 0
      00CDBB E0                    8488 	.db #0xe0	; 224
      00CDBC 01                    8489 	.db #0x01	; 1
      00CDBD 10                    8490 	.db #0x10	; 16
      00CDBE 22                    8491 	.db #0x22	; 34
      00CDBF 08                    8492 	.db #0x08	; 8
      00CDC0 04                    8493 	.db #0x04	; 4
      00CDC1 08                    8494 	.db #0x08	; 8
      00CDC2 04                    8495 	.db #0x04	; 4
      00CDC3 08                    8496 	.db #0x08	; 8
      00CDC4 24                    8497 	.db #0x24	; 36
      00CDC5 10                    8498 	.db #0x10	; 16
      00CDC6 02                    8499 	.db #0x02	; 2
      00CDC7 E0                    8500 	.db #0xe0	; 224
      00CDC8 01                    8501 	.db #0x01	; 1
      00CDC9 00                    8502 	.db #0x00	; 0
      00CDCA 00                    8503 	.db #0x00	; 0
      00CDCB 00                    8504 	.db #0x00	; 0
      00CDCC 00                    8505 	.db #0x00	; 0
      00CDCD 00                    8506 	.db #0x00	; 0
      00CDCE 00                    8507 	.db #0x00	; 0
      00CDCF E0                    8508 	.db #0xe0	; 224
      00CDD0 01                    8509 	.db #0x01	; 1
      00CDD1 10                    8510 	.db #0x10	; 16
      00CDD2 42                    8511 	.db #0x42	; 66	'B'
      00CDD3 08                    8512 	.db #0x08	; 8
      00CDD4 24                    8513 	.db #0x24	; 36
      00CDD5 08                    8514 	.db #0x08	; 8
      00CDD6 04                    8515 	.db #0x04	; 4
      00CDD7 08                    8516 	.db #0x08	; 8
      00CDD8 04                    8517 	.db #0x04	; 4
      00CDD9 10                    8518 	.db #0x10	; 16
      00CDDA 02                    8519 	.db #0x02	; 2
      00CDDB E0                    8520 	.db #0xe0	; 224
      00CDDC 01                    8521 	.db #0x01	; 1
      00CDDD 00                    8522 	.db #0x00	; 0
      00CDDE 00                    8523 	.db #0x00	; 0
      00CDDF 00                    8524 	.db #0x00	; 0
      00CDE0 00                    8525 	.db #0x00	; 0
      00CDE1 00                    8526 	.db #0x00	; 0
      00CDE2 00                    8527 	.db #0x00	; 0
      00CDE3 F0                    8528 	.db #0xf0	; 240
      00CDE4 07                    8529 	.db #0x07	; 7
      00CDE5 08                    8530 	.db #0x08	; 8
      00CDE6 20                    8531 	.db #0x20	; 32
      00CDE7 08                    8532 	.db #0x08	; 8
      00CDE8 40                    8533 	.db #0x40	; 64
      00CDE9 08                    8534 	.db #0x08	; 8
      00CDEA 40                    8535 	.db #0x40	; 64
      00CDEB 10                    8536 	.db #0x10	; 16
      00CDEC 20                    8537 	.db #0x20	; 32
      00CDED F8                    8538 	.db #0xf8	; 248
      00CDEE 07                    8539 	.db #0x07	; 7
      00CDEF 00                    8540 	.db #0x00	; 0
      00CDF0 00                    8541 	.db #0x00	; 0
      00CDF1 00                    8542 	.db #0x00	; 0
      00CDF2 00                    8543 	.db #0x00	; 0
      00CDF3 00                    8544 	.db #0x00	; 0
      00CDF4 00                    8545 	.db #0x00	; 0
      00CDF5 00                    8546 	.db #0x00	; 0
      00CDF6 00                    8547 	.db #0x00	; 0
      00CDF7 F0                    8548 	.db #0xf0	; 240
      00CDF8 07                    8549 	.db #0x07	; 7
      00CDF9 08                    8550 	.db #0x08	; 8
      00CDFA 40                    8551 	.db #0x40	; 64
      00CDFB 08                    8552 	.db #0x08	; 8
      00CDFC 20                    8553 	.db #0x20	; 32
      00CDFD 08                    8554 	.db #0x08	; 8
      00CDFE 00                    8555 	.db #0x00	; 0
      00CDFF 10                    8556 	.db #0x10	; 16
      00CE00 00                    8557 	.db #0x00	; 0
      00CE01 F8                    8558 	.db #0xf8	; 248
      00CE02 07                    8559 	.db #0x07	; 7
      00CE03 00                    8560 	.db #0x00	; 0
      00CE04 00                    8561 	.db #0x00	; 0
      00CE05 00                    8562 	.db #0x00	; 0
      00CE06 00                    8563 	.db #0x00	; 0
      00CE07 00                    8564 	.db #0x00	; 0
      00CE08 00                    8565 	.db #0x00	; 0
      00CE09 01                    8566 	.db #0x01	; 1
      00CE0A 04                    8567 	.db #0x04	; 4
      00CE0B 01                    8568 	.db #0x01	; 1
      00CE0C 03                    8569 	.db #0x03	; 3
      00CE0D C1                    8570 	.db #0xc1	; 193
      00CE0E 20                    8571 	.db #0x20	; 32
      00CE0F 62                    8572 	.db #0x62	; 98	'b'
      00CE10 00                    8573 	.db #0x00	; 0
      00CE11 1C                    8574 	.db #0x1c	; 28
      00CE12 00                    8575 	.db #0x00	; 0
      00CE13 18                    8576 	.db #0x18	; 24
      00CE14 20                    8577 	.db #0x20	; 32
      00CE15 60                    8578 	.db #0x60	; 96
      00CE16 00                    8579 	.db #0x00	; 0
      00CE17 80                    8580 	.db #0x80	; 128
      00CE18 00                    8581 	.db #0x00	; 0
      00CE19 00                    8582 	.db #0x00	; 0
      00CE1A 03                    8583 	.db #0x03	; 3
      00CE1B 00                    8584 	.db #0x00	; 0
      00CE1C 04                    8585 	.db #0x04	; 4
      00CE1D 00                    8586 	.db #0x00	; 0
      00CE1E 00                    8587 	.db #0x00	; 0
      00CE1F E0                    8588 	.db #0xe0	; 224
      00CE20 07                    8589 	.db #0x07	; 7
      00CE21 10                    8590 	.db #0x10	; 16
      00CE22 88                    8591 	.db #0x88	; 136
      00CE23 08                    8592 	.db #0x08	; 8
      00CE24 10                    8593 	.db #0x10	; 16
      00CE25 08                    8594 	.db #0x08	; 8
      00CE26 10                    8595 	.db #0x10	; 16
      00CE27 08                    8596 	.db #0x08	; 8
      00CE28 10                    8597 	.db #0x10	; 16
      00CE29 08                    8598 	.db #0x08	; 8
      00CE2A 90                    8599 	.db #0x90	; 144
      00CE2B 10                    8600 	.db #0x10	; 16
      00CE2C 08                    8601 	.db #0x08	; 8
      00CE2D E0                    8602 	.db #0xe0	; 224
      00CE2E 07                    8603 	.db #0x07	; 7
      00CE2F 00                    8604 	.db #0x00	; 0
      00CE30 00                    8605 	.db #0x00	; 0
      00CE31 00                    8606 	.db #0x00	; 0
      00CE32 00                    8607 	.db #0x00	; 0
      00CE33 E0                    8608 	.db #0xe0	; 224
      00CE34 1F                    8609 	.db #0x1f	; 31
      00CE35 18                    8610 	.db #0x18	; 24
      00CE36 80                    8611 	.db #0x80	; 128
      00CE37 08                    8612 	.db #0x08	; 8
      00CE38 00                    8613 	.db #0x00	; 0
      00CE39 08                    8614 	.db #0x08	; 8
      00CE3A 00                    8615 	.db #0x00	; 0
      00CE3B 08                    8616 	.db #0x08	; 8
      00CE3C 00                    8617 	.db #0x00	; 0
      00CE3D 10                    8618 	.db #0x10	; 16
      00CE3E 80                    8619 	.db #0x80	; 128
      00CE3F E0                    8620 	.db #0xe0	; 224
      00CE40 1F                    8621 	.db #0x1f	; 31
      00CE41 00                    8622 	.db #0x00	; 0
      00CE42 00                    8623 	.db #0x00	; 0
      00CE43 00                    8624 	.db #0x00	; 0
      00CE44 00                    8625 	.db #0x00	; 0
      00CE45 00                    8626 	.db #0x00	; 0
      00CE46 00                    8627 	.db #0x00	; 0
      00CE47 E8                    8628 	.db #0xe8	; 232
      00CE48 01                    8629 	.db #0x01	; 1
      00CE49 10                    8630 	.db #0x10	; 16
      00CE4A 02                    8631 	.db #0x02	; 2
      00CE4B 28                    8632 	.db #0x28	; 40
      00CE4C 04                    8633 	.db #0x04	; 4
      00CE4D C8                    8634 	.db #0xc8	; 200
      00CE4E 04                    8635 	.db #0x04	; 4
      00CE4F 08                    8636 	.db #0x08	; 8
      00CE50 05                    8637 	.db #0x05	; 5
      00CE51 10                    8638 	.db #0x10	; 16
      00CE52 02                    8639 	.db #0x02	; 2
      00CE53 E0                    8640 	.db #0xe0	; 224
      00CE54 05                    8641 	.db #0x05	; 5
      00CE55 00                    8642 	.db #0x00	; 0
      00CE56 00                    8643 	.db #0x00	; 0
      00CE57 00                    8644 	.db #0x00	; 0
      00CE58 00                    8645 	.db #0x00	; 0
      00CE59 00                    8646 	.db #0x00	; 0
      00CE5A 00                    8647 	.db #0x00	; 0
      00CE5B 00                    8648 	.db #0x00	; 0
      00CE5C 00                    8649 	.db #0x00	; 0
      00CE5D 08                    8650 	.db #0x08	; 8
      00CE5E 00                    8651 	.db #0x00	; 0
      00CE5F 18                    8652 	.db #0x18	; 24
      00CE60 02                    8653 	.db #0x02	; 2
      00CE61 E8                    8654 	.db #0xe8	; 232
      00CE62 3F                    8655 	.db #0x3f	; 63
      00CE63 08                    8656 	.db #0x08	; 8
      00CE64 42                    8657 	.db #0x42	; 66	'B'
      00CE65 08                    8658 	.db #0x08	; 8
      00CE66 42                    8659 	.db #0x42	; 66	'B'
      00CE67 08                    8660 	.db #0x08	; 8
      00CE68 40                    8661 	.db #0x40	; 64
      00CE69 00                    8662 	.db #0x00	; 0
      00CE6A 00                    8663 	.db #0x00	; 0
      00CE6B 00                    8664 	.db #0x00	; 0
      00CE6C 00                    8665 	.db #0x00	; 0
      00CE6D 00                    8666 	.db #0x00	; 0
      00CE6E 00                    8667 	.db #0x00	; 0
      00CE6F E8                    8668 	.db #0xe8	; 232
      00CE70 07                    8669 	.db #0x07	; 7
      00CE71 30                    8670 	.db #0x30	; 48	'0'
      00CE72 08                    8671 	.db #0x08	; 8
      00CE73 68                    8672 	.db #0x68	; 104	'h'
      00CE74 10                    8673 	.db #0x10	; 16
      00CE75 88                    8674 	.db #0x88	; 136
      00CE76 10                    8675 	.db #0x10	; 16
      00CE77 08                    8676 	.db #0x08	; 8
      00CE78 11                    8677 	.db #0x11	; 17
      00CE79 08                    8678 	.db #0x08	; 8
      00CE7A 16                    8679 	.db #0x16	; 22
      00CE7B 10                    8680 	.db #0x10	; 16
      00CE7C 0C                    8681 	.db #0x0c	; 12
      00CE7D E0                    8682 	.db #0xe0	; 224
      00CE7E 17                    8683 	.db #0x17	; 23
      00CE7F 00                    8684 	.db #0x00	; 0
      00CE80 00                    8685 	.db #0x00	; 0
      00CE81 00                    8686 	.db #0x00	; 0
      00CE82 00                    8687 	.db #0x00	; 0
      00CE83 08                    8688 	.db #0x08	; 8
      00CE84 04                    8689 	.db #0x04	; 4
      00CE85 10                    8690 	.db #0x10	; 16
      00CE86 02                    8691 	.db #0x02	; 2
      00CE87 20                    8692 	.db #0x20	; 32
      00CE88 01                    8693 	.db #0x01	; 1
      00CE89 C0                    8694 	.db #0xc0	; 192
      00CE8A 00                    8695 	.db #0x00	; 0
      00CE8B C0                    8696 	.db #0xc0	; 192
      00CE8C 00                    8697 	.db #0x00	; 0
      00CE8D 20                    8698 	.db #0x20	; 32
      00CE8E 01                    8699 	.db #0x01	; 1
      00CE8F 10                    8700 	.db #0x10	; 16
      00CE90 02                    8701 	.db #0x02	; 2
      00CE91 08                    8702 	.db #0x08	; 8
      00CE92 04                    8703 	.db #0x04	; 4
      00CE93 00                    8704 	.db #0x00	; 0
      00CE94 00                    8705 	.db #0x00	; 0
      00CE95 00                    8706 	.db #0x00	; 0
      00CE96 00                    8707 	.db #0x00	; 0
      00CE97 01                    8708 	.db #0x01	; 1
      00CE98 00                    8709 	.db #0x00	; 0
      00CE99 01                    8710 	.db #0x01	; 1
      00CE9A 04                    8711 	.db #0x04	; 4
      00CE9B 01                    8712 	.db #0x01	; 1
      00CE9C 04                    8713 	.db #0x04	; 4
      00CE9D FE                    8714 	.db #0xfe	; 254
      00CE9E 7F                    8715 	.db #0x7f	; 127
      00CE9F 00                    8716 	.db #0x00	; 0
      00CEA0 84                    8717 	.db #0x84	; 132
      00CEA1 00                    8718 	.db #0x00	; 0
      00CEA2 84                    8719 	.db #0x84	; 132
      00CEA3 00                    8720 	.db #0x00	; 0
      00CEA4 80                    8721 	.db #0x80	; 128
      00CEA5 00                    8722 	.db #0x00	; 0
      00CEA6 00                    8723 	.db #0x00	; 0
      00CEA7 00                    8724 	.db #0x00	; 0
      00CEA8 00                    8725 	.db #0x00	; 0
      00CEA9 00                    8726 	.db #0x00	; 0
      00CEAA 00                    8727 	.db #0x00	; 0
      00CEAB 30                    8728 	.db #0x30	; 48	'0'
      00CEAC 00                    8729 	.db #0x00	; 0
      00CEAD 48                    8730 	.db #0x48	; 72	'H'
      00CEAE 04                    8731 	.db #0x04	; 4
      00CEAF 88                    8732 	.db #0x88	; 136
      00CEB0 04                    8733 	.db #0x04	; 4
      00CEB1 88                    8734 	.db #0x88	; 136
      00CEB2 24                    8735 	.db #0x24	; 36
      00CEB3 90                    8736 	.db #0x90	; 144
      00CEB4 44                    8737 	.db #0x44	; 68	'D'
      00CEB5 F8                    8738 	.db #0xf8	; 248
      00CEB6 03                    8739 	.db #0x03	; 3
      00CEB7 08                    8740 	.db #0x08	; 8
      00CEB8 00                    8741 	.db #0x00	; 0
      00CEB9 00                    8742 	.db #0x00	; 0
      00CEBA 00                    8743 	.db #0x00	; 0
      00CEBB 00                    8744 	.db #0x00	; 0
      00CEBC 00                    8745 	.db #0x00	; 0
      00CEBD 00                    8746 	.db #0x00	; 0
      00CEBE 00                    8747 	.db #0x00	; 0
      00CEBF 00                    8748 	.db #0x00	; 0
      00CEC0 04                    8749 	.db #0x04	; 4
      00CEC1 00                    8750 	.db #0x00	; 0
      00CEC2 04                    8751 	.db #0x04	; 4
      00CEC3 00                    8752 	.db #0x00	; 0
      00CEC4 04                    8753 	.db #0x04	; 4
      00CEC5 F8                    8754 	.db #0xf8	; 248
      00CEC6 27                    8755 	.db #0x27	; 39
      00CEC7 00                    8756 	.db #0x00	; 0
      00CEC8 40                    8757 	.db #0x40	; 64
      00CEC9 00                    8758 	.db #0x00	; 0
      00CECA 00                    8759 	.db #0x00	; 0
      00CECB 00                    8760 	.db #0x00	; 0
      00CECC 00                    8761 	.db #0x00	; 0
      00CECD 00                    8762 	.db #0x00	; 0
      00CECE 00                    8763 	.db #0x00	; 0
      00CECF 00                    8764 	.db #0x00	; 0
      00CED0 00                    8765 	.db #0x00	; 0
      00CED1 00                    8766 	.db #0x00	; 0
      00CED2 00                    8767 	.db #0x00	; 0
      00CED3 E0                    8768 	.db #0xe0	; 224
      00CED4 01                    8769 	.db #0x01	; 1
      00CED5 10                    8770 	.db #0x10	; 16
      00CED6 02                    8771 	.db #0x02	; 2
      00CED7 08                    8772 	.db #0x08	; 8
      00CED8 04                    8773 	.db #0x04	; 4
      00CED9 08                    8774 	.db #0x08	; 8
      00CEDA 24                    8775 	.db #0x24	; 36
      00CEDB 08                    8776 	.db #0x08	; 8
      00CEDC 44                    8777 	.db #0x44	; 68	'D'
      00CEDD 10                    8778 	.db #0x10	; 16
      00CEDE 02                    8779 	.db #0x02	; 2
      00CEDF E0                    8780 	.db #0xe0	; 224
      00CEE0 01                    8781 	.db #0x01	; 1
      00CEE1 00                    8782 	.db #0x00	; 0
      00CEE2 00                    8783 	.db #0x00	; 0
      00CEE3 00                    8784 	.db #0x00	; 0
      00CEE4 00                    8785 	.db #0x00	; 0
      00CEE5 00                    8786 	.db #0x00	; 0
      00CEE6 00                    8787 	.db #0x00	; 0
      00CEE7 F0                    8788 	.db #0xf0	; 240
      00CEE8 07                    8789 	.db #0x07	; 7
      00CEE9 08                    8790 	.db #0x08	; 8
      00CEEA 00                    8791 	.db #0x00	; 0
      00CEEB 08                    8792 	.db #0x08	; 8
      00CEEC 00                    8793 	.db #0x00	; 0
      00CEED 08                    8794 	.db #0x08	; 8
      00CEEE 20                    8795 	.db #0x20	; 32
      00CEEF 10                    8796 	.db #0x10	; 16
      00CEF0 40                    8797 	.db #0x40	; 64
      00CEF1 F8                    8798 	.db #0xf8	; 248
      00CEF2 07                    8799 	.db #0x07	; 7
      00CEF3 00                    8800 	.db #0x00	; 0
      00CEF4 00                    8801 	.db #0x00	; 0
      00CEF5 00                    8802 	.db #0x00	; 0
      00CEF6 00                    8803 	.db #0x00	; 0
      00CEF7 00                    8804 	.db #0x00	; 0
      00CEF8 00                    8805 	.db #0x00	; 0
      00CEF9 00                    8806 	.db #0x00	; 0
      00CEFA 00                    8807 	.db #0x00	; 0
      00CEFB F8                    8808 	.db #0xf8	; 248
      00CEFC 07                    8809 	.db #0x07	; 7
      00CEFD 00                    8810 	.db #0x00	; 0
      00CEFE 23                    8811 	.db #0x23	; 35
      00CEFF 00                    8812 	.db #0x00	; 0
      00CF00 42                    8813 	.db #0x42	; 66	'B'
      00CF01 00                    8814 	.db #0x00	; 0
      00CF02 24                    8815 	.db #0x24	; 36
      00CF03 00                    8816 	.db #0x00	; 0
      00CF04 24                    8817 	.db #0x24	; 36
      00CF05 00                    8818 	.db #0x00	; 0
      00CF06 44                    8819 	.db #0x44	; 68	'D'
      00CF07 F8                    8820 	.db #0xf8	; 248
      00CF08 03                    8821 	.db #0x03	; 3
      00CF09 00                    8822 	.db #0x00	; 0
      00CF0A 00                    8823 	.db #0x00	; 0
      00CF0B 00                    8824 	.db #0x00	; 0
      00CF0C 00                    8825 	.db #0x00	; 0
      00CF0D 00                    8826 	.db #0x00	; 0
      00CF0E 00                    8827 	.db #0x00	; 0
      00CF0F F8                    8828 	.db #0xf8	; 248
      00CF10 1F                    8829 	.db #0x1f	; 31
      00CF11 00                    8830 	.db #0x00	; 0
      00CF12 48                    8831 	.db #0x48	; 72	'H'
      00CF13 00                    8832 	.db #0x00	; 0
      00CF14 86                    8833 	.db #0x86	; 134
      00CF15 80                    8834 	.db #0x80	; 128
      00CF16 C1                    8835 	.db #0xc1	; 193
      00CF17 60                    8836 	.db #0x60	; 96
      00CF18 40                    8837 	.db #0x40	; 64
      00CF19 10                    8838 	.db #0x10	; 16
      00CF1A 80                    8839 	.db #0x80	; 128
      00CF1B F8                    8840 	.db #0xf8	; 248
      00CF1C 1F                    8841 	.db #0x1f	; 31
      00CF1D 00                    8842 	.db #0x00	; 0
      00CF1E 00                    8843 	.db #0x00	; 0
      00CF1F 00                    8844 	.db #0x00	; 0
      00CF20 00                    8845 	.db #0x00	; 0
      00CF21 00                    8846 	.db #0x00	; 0
      00CF22 00                    8847 	.db #0x00	; 0
      00CF23 00                    8848 	.db #0x00	; 0
      00CF24 00                    8849 	.db #0x00	; 0
      00CF25 00                    8850 	.db #0x00	; 0
      00CF26 4C                    8851 	.db #0x4c	; 76	'L'
      00CF27 00                    8852 	.db #0x00	; 0
      00CF28 52                    8853 	.db #0x52	; 82	'R'
      00CF29 00                    8854 	.db #0x00	; 0
      00CF2A 52                    8855 	.db #0x52	; 82	'R'
      00CF2B 00                    8856 	.db #0x00	; 0
      00CF2C 52                    8857 	.db #0x52	; 82	'R'
      00CF2D 00                    8858 	.db #0x00	; 0
      00CF2E 3E                    8859 	.db #0x3e	; 62
      00CF2F 00                    8860 	.db #0x00	; 0
      00CF30 02                    8861 	.db #0x02	; 2
      00CF31 00                    8862 	.db #0x00	; 0
      00CF32 00                    8863 	.db #0x00	; 0
      00CF33 00                    8864 	.db #0x00	; 0
      00CF34 00                    8865 	.db #0x00	; 0
      00CF35 00                    8866 	.db #0x00	; 0
      00CF36 00                    8867 	.db #0x00	; 0
      00CF37 00                    8868 	.db #0x00	; 0
      00CF38 00                    8869 	.db #0x00	; 0
      00CF39 00                    8870 	.db #0x00	; 0
      00CF3A 3C                    8871 	.db #0x3c	; 60
      00CF3B 00                    8872 	.db #0x00	; 0
      00CF3C 42                    8873 	.db #0x42	; 66	'B'
      00CF3D 00                    8874 	.db #0x00	; 0
      00CF3E 42                    8875 	.db #0x42	; 66	'B'
      00CF3F 00                    8876 	.db #0x00	; 0
      00CF40 42                    8877 	.db #0x42	; 66	'B'
      00CF41 00                    8878 	.db #0x00	; 0
      00CF42 42                    8879 	.db #0x42	; 66	'B'
      00CF43 00                    8880 	.db #0x00	; 0
      00CF44 3C                    8881 	.db #0x3c	; 60
      00CF45 00                    8882 	.db #0x00	; 0
      00CF46 00                    8883 	.db #0x00	; 0
      00CF47 00                    8884 	.db #0x00	; 0
      00CF48 00                    8885 	.db #0x00	; 0
      00CF49 00                    8886 	.db #0x00	; 0
      00CF4A 00                    8887 	.db #0x00	; 0
      00CF4B 0E                    8888 	.db #0x0e	; 14
      00CF4C 00                    8889 	.db #0x00	; 0
      00CF4D 13                    8890 	.db #0x13	; 19
      00CF4E 00                    8891 	.db #0x00	; 0
      00CF4F 11                    8892 	.db #0x11	; 17
      00CF50 00                    8893 	.db #0x00	; 0
      00CF51 21                    8894 	.db #0x21	; 33
      00CF52 00                    8895 	.db #0x00	; 0
      00CF53 C1                    8896 	.db #0xc1	; 193
      00CF54 06                    8897 	.db #0x06	; 6
      00CF55 01                    8898 	.db #0x01	; 1
      00CF56 00                    8899 	.db #0x00	; 0
      00CF57 07                    8900 	.db #0x07	; 7
      00CF58 00                    8901 	.db #0x00	; 0
      00CF59 00                    8902 	.db #0x00	; 0
      00CF5A 00                    8903 	.db #0x00	; 0
      00CF5B 00                    8904 	.db #0x00	; 0
      00CF5C 00                    8905 	.db #0x00	; 0
      00CF5D 00                    8906 	.db #0x00	; 0
      00CF5E 00                    8907 	.db #0x00	; 0
      00CF5F 00                    8908 	.db #0x00	; 0
      00CF60 1C                    8909 	.db #0x1c	; 28
      00CF61 00                    8910 	.db #0x00	; 0
      00CF62 22                    8911 	.db #0x22	; 34
      00CF63 00                    8912 	.db #0x00	; 0
      00CF64 5D                    8913 	.db #0x5d	; 93
      00CF65 00                    8914 	.db #0x00	; 0
      00CF66 55                    8915 	.db #0x55	; 85	'U'
      00CF67 00                    8916 	.db #0x00	; 0
      00CF68 5D                    8917 	.db #0x5d	; 93
      00CF69 00                    8918 	.db #0x00	; 0
      00CF6A 22                    8919 	.db #0x22	; 34
      00CF6B 00                    8920 	.db #0x00	; 0
      00CF6C 1C                    8921 	.db #0x1c	; 28
      00CF6D 00                    8922 	.db #0x00	; 0
      00CF6E 00                    8923 	.db #0x00	; 0
      00CF6F 00                    8924 	.db #0x00	; 0
      00CF70 00                    8925 	.db #0x00	; 0
      00CF71 00                    8926 	.db #0x00	; 0
      00CF72 00                    8927 	.db #0x00	; 0
      00CF73 00                    8928 	.db #0x00	; 0
      00CF74 01                    8929 	.db #0x01	; 1
      00CF75 00                    8930 	.db #0x00	; 0
      00CF76 01                    8931 	.db #0x01	; 1
      00CF77 00                    8932 	.db #0x00	; 0
      00CF78 01                    8933 	.db #0x01	; 1
      00CF79 00                    8934 	.db #0x00	; 0
      00CF7A 01                    8935 	.db #0x01	; 1
      00CF7B 00                    8936 	.db #0x00	; 0
      00CF7C 01                    8937 	.db #0x01	; 1
      00CF7D 00                    8938 	.db #0x00	; 0
      00CF7E 01                    8939 	.db #0x01	; 1
      00CF7F 00                    8940 	.db #0x00	; 0
      00CF80 01                    8941 	.db #0x01	; 1
      00CF81 E0                    8942 	.db #0xe0	; 224
      00CF82 01                    8943 	.db #0x01	; 1
      00CF83 00                    8944 	.db #0x00	; 0
      00CF84 00                    8945 	.db #0x00	; 0
      00CF85 08                    8946 	.db #0x08	; 8
      00CF86 40                    8947 	.db #0x40	; 64
      00CF87 30                    8948 	.db #0x30	; 48	'0'
      00CF88 7E                    8949 	.db #0x7e	; 126
      00CF89 40                    8950 	.db #0x40	; 64
      00CF8A 00                    8951 	.db #0x00	; 0
      00CF8B 80                    8952 	.db #0x80	; 128
      00CF8C 01                    8953 	.db #0x01	; 1
      00CF8D 00                    8954 	.db #0x00	; 0
      00CF8E 06                    8955 	.db #0x06	; 6
      00CF8F 00                    8956 	.db #0x00	; 0
      00CF90 08                    8957 	.db #0x08	; 8
      00CF91 08                    8958 	.db #0x08	; 8
      00CF92 31                    8959 	.db #0x31	; 49	'1'
      00CF93 38                    8960 	.db #0x38	; 56	'8'
      00CF94 41                    8961 	.db #0x41	; 65	'A'
      00CF95 28                    8962 	.db #0x28	; 40
      00CF96 01                    8963 	.db #0x01	; 1
      00CF97 C8                    8964 	.db #0xc8	; 200
      00CF98 00                    8965 	.db #0x00	; 0
      00CF99 08                    8966 	.db #0x08	; 8
      00CF9A 40                    8967 	.db #0x40	; 64
      00CF9B 30                    8968 	.db #0x30	; 48	'0'
      00CF9C 7E                    8969 	.db #0x7e	; 126
      00CF9D 40                    8970 	.db #0x40	; 64
      00CF9E 00                    8971 	.db #0x00	; 0
      00CF9F 80                    8972 	.db #0x80	; 128
      00CFA0 01                    8973 	.db #0x01	; 1
      00CFA1 00                    8974 	.db #0x00	; 0
      00CFA2 06                    8975 	.db #0x06	; 6
      00CFA3 60                    8976 	.db #0x60	; 96
      00CFA4 08                    8977 	.db #0x08	; 8
      00CFA5 A0                    8978 	.db #0xa0	; 160
      00CFA6 30                    8979 	.db #0x30	; 48	'0'
      00CFA7 20                    8980 	.db #0x20	; 32
      00CFA8 41                    8981 	.db #0x41	; 65	'A'
      00CFA9 F8                    8982 	.db #0xf8	; 248
      00CFAA 01                    8983 	.db #0x01	; 1
      00CFAB 20                    8984 	.db #0x20	; 32
      00CFAC 00                    8985 	.db #0x00	; 0
      00CFAD 00                    8986 	.db #0x00	; 0
      00CFAE 00                    8987 	.db #0x00	; 0
      00CFAF 00                    8988 	.db #0x00	; 0
      00CFB0 00                    8989 	.db #0x00	; 0
      00CFB1 00                    8990 	.db #0x00	; 0
      00CFB2 00                    8991 	.db #0x00	; 0
      00CFB3 00                    8992 	.db #0x00	; 0
      00CFB4 00                    8993 	.db #0x00	; 0
      00CFB5 00                    8994 	.db #0x00	; 0
      00CFB6 00                    8995 	.db #0x00	; 0
      00CFB7 FF                    8996 	.db #0xff	; 255
      00CFB8 06                    8997 	.db #0x06	; 6
      00CFB9 00                    8998 	.db #0x00	; 0
      00CFBA 00                    8999 	.db #0x00	; 0
      00CFBB 00                    9000 	.db #0x00	; 0
      00CFBC 00                    9001 	.db #0x00	; 0
      00CFBD 00                    9002 	.db #0x00	; 0
      00CFBE 00                    9003 	.db #0x00	; 0
      00CFBF 00                    9004 	.db #0x00	; 0
      00CFC0 00                    9005 	.db #0x00	; 0
      00CFC1 00                    9006 	.db #0x00	; 0
      00CFC2 00                    9007 	.db #0x00	; 0
      00CFC3 80                    9008 	.db #0x80	; 128
      00CFC4 00                    9009 	.db #0x00	; 0
      00CFC5 40                    9010 	.db #0x40	; 64
      00CFC6 01                    9011 	.db #0x01	; 1
      00CFC7 20                    9012 	.db #0x20	; 32
      00CFC8 02                    9013 	.db #0x02	; 2
      00CFC9 10                    9014 	.db #0x10	; 16
      00CFCA 04                    9015 	.db #0x04	; 4
      00CFCB 80                    9016 	.db #0x80	; 128
      00CFCC 00                    9017 	.db #0x00	; 0
      00CFCD 40                    9018 	.db #0x40	; 64
      00CFCE 01                    9019 	.db #0x01	; 1
      00CFCF 20                    9020 	.db #0x20	; 32
      00CFD0 02                    9021 	.db #0x02	; 2
      00CFD1 10                    9022 	.db #0x10	; 16
      00CFD2 04                    9023 	.db #0x04	; 4
      00CFD3 00                    9024 	.db #0x00	; 0
      00CFD4 00                    9025 	.db #0x00	; 0
      00CFD5 00                    9026 	.db #0x00	; 0
      00CFD6 00                    9027 	.db #0x00	; 0
      00CFD7 10                    9028 	.db #0x10	; 16
      00CFD8 04                    9029 	.db #0x04	; 4
      00CFD9 20                    9030 	.db #0x20	; 32
      00CFDA 02                    9031 	.db #0x02	; 2
      00CFDB 40                    9032 	.db #0x40	; 64
      00CFDC 01                    9033 	.db #0x01	; 1
      00CFDD 80                    9034 	.db #0x80	; 128
      00CFDE 00                    9035 	.db #0x00	; 0
      00CFDF 10                    9036 	.db #0x10	; 16
      00CFE0 04                    9037 	.db #0x04	; 4
      00CFE1 20                    9038 	.db #0x20	; 32
      00CFE2 02                    9039 	.db #0x02	; 2
      00CFE3 40                    9040 	.db #0x40	; 64
      00CFE4 01                    9041 	.db #0x01	; 1
      00CFE5 80                    9042 	.db #0x80	; 128
      00CFE6 00                    9043 	.db #0x00	; 0
      00CFE7 00                    9044 	.db #0x00	; 0
      00CFE8 00                    9045 	.db #0x00	; 0
      00CFE9 36                    9046 	.db #0x36	; 54	'6'
      00CFEA DB                    9047 	.db #0xdb	; 219
      00CFEB 36                    9048 	.db #0x36	; 54	'6'
      00CFEC DB                    9049 	.db #0xdb	; 219
      00CFED 00                    9050 	.db #0x00	; 0
      00CFEE 00                    9051 	.db #0x00	; 0
      00CFEF 36                    9052 	.db #0x36	; 54	'6'
      00CFF0 DB                    9053 	.db #0xdb	; 219
      00CFF1 36                    9054 	.db #0x36	; 54	'6'
      00CFF2 DB                    9055 	.db #0xdb	; 219
      00CFF3 00                    9056 	.db #0x00	; 0
      00CFF4 00                    9057 	.db #0x00	; 0
      00CFF5 36                    9058 	.db #0x36	; 54	'6'
      00CFF6 DB                    9059 	.db #0xdb	; 219
      00CFF7 36                    9060 	.db #0x36	; 54	'6'
      00CFF8 DB                    9061 	.db #0xdb	; 219
      00CFF9 00                    9062 	.db #0x00	; 0
      00CFFA 00                    9063 	.db #0x00	; 0
      00CFFB 00                    9064 	.db #0x00	; 0
      00CFFC 00                    9065 	.db #0x00	; 0
      00CFFD DB                    9066 	.db #0xdb	; 219
      00CFFE 36                    9067 	.db #0x36	; 54	'6'
      00CFFF DB                    9068 	.db #0xdb	; 219
      00D000 36                    9069 	.db #0x36	; 54	'6'
      00D001 36                    9070 	.db #0x36	; 54	'6'
      00D002 DB                    9071 	.db #0xdb	; 219
      00D003 FF                    9072 	.db #0xff	; 255
      00D004 FF                    9073 	.db #0xff	; 255
      00D005 DB                    9074 	.db #0xdb	; 219
      00D006 36                    9075 	.db #0x36	; 54	'6'
      00D007 36                    9076 	.db #0x36	; 54	'6'
      00D008 DB                    9077 	.db #0xdb	; 219
      00D009 FF                    9078 	.db #0xff	; 255
      00D00A FF                    9079 	.db #0xff	; 255
      00D00B DB                    9080 	.db #0xdb	; 219
      00D00C 36                    9081 	.db #0x36	; 54	'6'
      00D00D 36                    9082 	.db #0x36	; 54	'6'
      00D00E DB                    9083 	.db #0xdb	; 219
      00D00F 36                    9084 	.db #0x36	; 54	'6'
      00D010 DB                    9085 	.db #0xdb	; 219
      00D011 FF                    9086 	.db #0xff	; 255
      00D012 FF                    9087 	.db #0xff	; 255
      00D013 FF                    9088 	.db #0xff	; 255
      00D014 FF                    9089 	.db #0xff	; 255
      00D015 36                    9090 	.db #0x36	; 54	'6'
      00D016 DB                    9091 	.db #0xdb	; 219
      00D017 FF                    9092 	.db #0xff	; 255
      00D018 FF                    9093 	.db #0xff	; 255
      00D019 FF                    9094 	.db #0xff	; 255
      00D01A FF                    9095 	.db #0xff	; 255
      00D01B 36                    9096 	.db #0x36	; 54	'6'
      00D01C DB                    9097 	.db #0xdb	; 219
      00D01D FF                    9098 	.db #0xff	; 255
      00D01E FF                    9099 	.db #0xff	; 255
      00D01F FF                    9100 	.db #0xff	; 255
      00D020 FF                    9101 	.db #0xff	; 255
      00D021 36                    9102 	.db #0x36	; 54	'6'
      00D022 DB                    9103 	.db #0xdb	; 219
      00D023 36                    9104 	.db #0x36	; 54	'6'
      00D024 DB                    9105 	.db #0xdb	; 219
      00D025 00                    9106 	.db #0x00	; 0
      00D026 00                    9107 	.db #0x00	; 0
      00D027 00                    9108 	.db #0x00	; 0
      00D028 00                    9109 	.db #0x00	; 0
      00D029 00                    9110 	.db #0x00	; 0
      00D02A 00                    9111 	.db #0x00	; 0
      00D02B 00                    9112 	.db #0x00	; 0
      00D02C 00                    9113 	.db #0x00	; 0
      00D02D FF                    9114 	.db #0xff	; 255
      00D02E FF                    9115 	.db #0xff	; 255
      00D02F 00                    9116 	.db #0x00	; 0
      00D030 00                    9117 	.db #0x00	; 0
      00D031 00                    9118 	.db #0x00	; 0
      00D032 00                    9119 	.db #0x00	; 0
      00D033 00                    9120 	.db #0x00	; 0
      00D034 00                    9121 	.db #0x00	; 0
      00D035 00                    9122 	.db #0x00	; 0
      00D036 00                    9123 	.db #0x00	; 0
      00D037 00                    9124 	.db #0x00	; 0
      00D038 00                    9125 	.db #0x00	; 0
      00D039 80                    9126 	.db #0x80	; 128
      00D03A 00                    9127 	.db #0x00	; 0
      00D03B 80                    9128 	.db #0x80	; 128
      00D03C 00                    9129 	.db #0x00	; 0
      00D03D 80                    9130 	.db #0x80	; 128
      00D03E 00                    9131 	.db #0x00	; 0
      00D03F 80                    9132 	.db #0x80	; 128
      00D040 00                    9133 	.db #0x00	; 0
      00D041 FF                    9134 	.db #0xff	; 255
      00D042 FF                    9135 	.db #0xff	; 255
      00D043 00                    9136 	.db #0x00	; 0
      00D044 00                    9137 	.db #0x00	; 0
      00D045 00                    9138 	.db #0x00	; 0
      00D046 00                    9139 	.db #0x00	; 0
      00D047 00                    9140 	.db #0x00	; 0
      00D048 00                    9141 	.db #0x00	; 0
      00D049 00                    9142 	.db #0x00	; 0
      00D04A 00                    9143 	.db #0x00	; 0
      00D04B 00                    9144 	.db #0x00	; 0
      00D04C 00                    9145 	.db #0x00	; 0
      00D04D 08                    9146 	.db #0x08	; 8
      00D04E 00                    9147 	.db #0x00	; 0
      00D04F 70                    9148 	.db #0x70	; 112	'p'
      00D050 00                    9149 	.db #0x00	; 0
      00D051 C0                    9150 	.db #0xc0	; 192
      00D052 01                    9151 	.db #0x01	; 1
      00D053 40                    9152 	.db #0x40	; 64
      00D054 0E                    9153 	.db #0x0e	; 14
      00D055 40                    9154 	.db #0x40	; 64
      00D056 58                    9155 	.db #0x58	; 88	'X'
      00D057 40                    9156 	.db #0x40	; 64
      00D058 8C                    9157 	.db #0x8c	; 140
      00D059 40                    9158 	.db #0x40	; 64
      00D05A 03                    9159 	.db #0x03	; 3
      00D05B C0                    9160 	.db #0xc0	; 192
      00D05C 00                    9161 	.db #0x00	; 0
      00D05D 30                    9162 	.db #0x30	; 48	'0'
      00D05E 00                    9163 	.db #0x00	; 0
      00D05F 08                    9164 	.db #0x08	; 8
      00D060 00                    9165 	.db #0x00	; 0
      00D061 08                    9166 	.db #0x08	; 8
      00D062 00                    9167 	.db #0x00	; 0
      00D063 70                    9168 	.db #0x70	; 112	'p'
      00D064 00                    9169 	.db #0x00	; 0
      00D065 C0                    9170 	.db #0xc0	; 192
      00D066 01                    9171 	.db #0x01	; 1
      00D067 40                    9172 	.db #0x40	; 64
      00D068 4E                    9173 	.db #0x4e	; 78	'N'
      00D069 40                    9174 	.db #0x40	; 64
      00D06A 98                    9175 	.db #0x98	; 152
      00D06B 40                    9176 	.db #0x40	; 64
      00D06C 8C                    9177 	.db #0x8c	; 140
      00D06D 40                    9178 	.db #0x40	; 64
      00D06E 43                    9179 	.db #0x43	; 67	'C'
      00D06F C0                    9180 	.db #0xc0	; 192
      00D070 00                    9181 	.db #0x00	; 0
      00D071 30                    9182 	.db #0x30	; 48	'0'
      00D072 00                    9183 	.db #0x00	; 0
      00D073 08                    9184 	.db #0x08	; 8
      00D074 00                    9185 	.db #0x00	; 0
      00D075 08                    9186 	.db #0x08	; 8
      00D076 00                    9187 	.db #0x00	; 0
      00D077 70                    9188 	.db #0x70	; 112	'p'
      00D078 00                    9189 	.db #0x00	; 0
      00D079 C0                    9190 	.db #0xc0	; 192
      00D07A 01                    9191 	.db #0x01	; 1
      00D07B 40                    9192 	.db #0x40	; 64
      00D07C 8E                    9193 	.db #0x8e	; 142
      00D07D 40                    9194 	.db #0x40	; 64
      00D07E 58                    9195 	.db #0x58	; 88	'X'
      00D07F 40                    9196 	.db #0x40	; 64
      00D080 0C                    9197 	.db #0x0c	; 12
      00D081 40                    9198 	.db #0x40	; 64
      00D082 03                    9199 	.db #0x03	; 3
      00D083 C0                    9200 	.db #0xc0	; 192
      00D084 00                    9201 	.db #0x00	; 0
      00D085 30                    9202 	.db #0x30	; 48	'0'
      00D086 00                    9203 	.db #0x00	; 0
      00D087 08                    9204 	.db #0x08	; 8
      00D088 00                    9205 	.db #0x00	; 0
      00D089 C0                    9206 	.db #0xc0	; 192
      00D08A 0F                    9207 	.db #0x0f	; 15
      00D08B 30                    9208 	.db #0x30	; 48	'0'
      00D08C 30                    9209 	.db #0x30	; 48	'0'
      00D08D 98                    9210 	.db #0x98	; 152
      00D08E 67                    9211 	.db #0x67	; 103	'g'
      00D08F C8                    9212 	.db #0xc8	; 200
      00D090 4C                    9213 	.db #0x4c	; 76	'L'
      00D091 48                    9214 	.db #0x48	; 72	'H'
      00D092 48                    9215 	.db #0x48	; 72	'H'
      00D093 48                    9216 	.db #0x48	; 72	'H'
      00D094 48                    9217 	.db #0x48	; 72	'H'
      00D095 58                    9218 	.db #0x58	; 88	'X'
      00D096 68                    9219 	.db #0x68	; 104	'h'
      00D097 30                    9220 	.db #0x30	; 48	'0'
      00D098 30                    9221 	.db #0x30	; 48	'0'
      00D099 C0                    9222 	.db #0xc0	; 192
      00D09A 0F                    9223 	.db #0x0f	; 15
      00D09B 00                    9224 	.db #0x00	; 0
      00D09C 00                    9225 	.db #0x00	; 0
      00D09D 40                    9226 	.db #0x40	; 64
      00D09E 01                    9227 	.db #0x01	; 1
      00D09F 40                    9228 	.db #0x40	; 64
      00D0A0 01                    9229 	.db #0x01	; 1
      00D0A1 40                    9230 	.db #0x40	; 64
      00D0A2 01                    9231 	.db #0x01	; 1
      00D0A3 7F                    9232 	.db #0x7f	; 127
      00D0A4 FF                    9233 	.db #0xff	; 255
      00D0A5 00                    9234 	.db #0x00	; 0
      00D0A6 00                    9235 	.db #0x00	; 0
      00D0A7 FF                    9236 	.db #0xff	; 255
      00D0A8 FF                    9237 	.db #0xff	; 255
      00D0A9 00                    9238 	.db #0x00	; 0
      00D0AA 00                    9239 	.db #0x00	; 0
      00D0AB 00                    9240 	.db #0x00	; 0
      00D0AC 00                    9241 	.db #0x00	; 0
      00D0AD 00                    9242 	.db #0x00	; 0
      00D0AE 00                    9243 	.db #0x00	; 0
      00D0AF 00                    9244 	.db #0x00	; 0
      00D0B0 00                    9245 	.db #0x00	; 0
      00D0B1 00                    9246 	.db #0x00	; 0
      00D0B2 00                    9247 	.db #0x00	; 0
      00D0B3 00                    9248 	.db #0x00	; 0
      00D0B4 00                    9249 	.db #0x00	; 0
      00D0B5 00                    9250 	.db #0x00	; 0
      00D0B6 00                    9251 	.db #0x00	; 0
      00D0B7 FF                    9252 	.db #0xff	; 255
      00D0B8 FF                    9253 	.db #0xff	; 255
      00D0B9 00                    9254 	.db #0x00	; 0
      00D0BA 00                    9255 	.db #0x00	; 0
      00D0BB FF                    9256 	.db #0xff	; 255
      00D0BC FF                    9257 	.db #0xff	; 255
      00D0BD 00                    9258 	.db #0x00	; 0
      00D0BE 00                    9259 	.db #0x00	; 0
      00D0BF 00                    9260 	.db #0x00	; 0
      00D0C0 00                    9261 	.db #0x00	; 0
      00D0C1 00                    9262 	.db #0x00	; 0
      00D0C2 00                    9263 	.db #0x00	; 0
      00D0C3 00                    9264 	.db #0x00	; 0
      00D0C4 00                    9265 	.db #0x00	; 0
      00D0C5 40                    9266 	.db #0x40	; 64
      00D0C6 01                    9267 	.db #0x01	; 1
      00D0C7 40                    9268 	.db #0x40	; 64
      00D0C8 01                    9269 	.db #0x01	; 1
      00D0C9 40                    9270 	.db #0x40	; 64
      00D0CA 01                    9271 	.db #0x01	; 1
      00D0CB 7F                    9272 	.db #0x7f	; 127
      00D0CC 01                    9273 	.db #0x01	; 1
      00D0CD 00                    9274 	.db #0x00	; 0
      00D0CE 01                    9275 	.db #0x01	; 1
      00D0CF FF                    9276 	.db #0xff	; 255
      00D0D0 01                    9277 	.db #0x01	; 1
      00D0D1 00                    9278 	.db #0x00	; 0
      00D0D2 00                    9279 	.db #0x00	; 0
      00D0D3 00                    9280 	.db #0x00	; 0
      00D0D4 00                    9281 	.db #0x00	; 0
      00D0D5 00                    9282 	.db #0x00	; 0
      00D0D6 00                    9283 	.db #0x00	; 0
      00D0D7 00                    9284 	.db #0x00	; 0
      00D0D8 00                    9285 	.db #0x00	; 0
      00D0D9 40                    9286 	.db #0x40	; 64
      00D0DA 01                    9287 	.db #0x01	; 1
      00D0DB 40                    9288 	.db #0x40	; 64
      00D0DC 01                    9289 	.db #0x01	; 1
      00D0DD 40                    9290 	.db #0x40	; 64
      00D0DE 01                    9291 	.db #0x01	; 1
      00D0DF 40                    9292 	.db #0x40	; 64
      00D0E0 FF                    9293 	.db #0xff	; 255
      00D0E1 40                    9294 	.db #0x40	; 64
      00D0E2 00                    9295 	.db #0x00	; 0
      00D0E3 C0                    9296 	.db #0xc0	; 192
      00D0E4 FF                    9297 	.db #0xff	; 255
      00D0E5 00                    9298 	.db #0x00	; 0
      00D0E6 00                    9299 	.db #0x00	; 0
      00D0E7 00                    9300 	.db #0x00	; 0
      00D0E8 00                    9301 	.db #0x00	; 0
      00D0E9 00                    9302 	.db #0x00	; 0
      00D0EA 00                    9303 	.db #0x00	; 0
      00D0EB 00                    9304 	.db #0x00	; 0
      00D0EC 00                    9305 	.db #0x00	; 0
      00D0ED 00                    9306 	.db #0x00	; 0
      00D0EE 00                    9307 	.db #0x00	; 0
      00D0EF C0                    9308 	.db #0xc0	; 192
      00D0F0 0F                    9309 	.db #0x0f	; 15
      00D0F1 20                    9310 	.db #0x20	; 32
      00D0F2 10                    9311 	.db #0x10	; 16
      00D0F3 30                    9312 	.db #0x30	; 48	'0'
      00D0F4 20                    9313 	.db #0x20	; 32
      00D0F5 10                    9314 	.db #0x10	; 16
      00D0F6 20                    9315 	.db #0x20	; 32
      00D0F7 F8                    9316 	.db #0xf8	; 248
      00D0F8 7F                    9317 	.db #0x7f	; 127
      00D0F9 10                    9318 	.db #0x10	; 16
      00D0FA 20                    9319 	.db #0x20	; 32
      00D0FB 10                    9320 	.db #0x10	; 16
      00D0FC 20                    9321 	.db #0x20	; 32
      00D0FD 00                    9322 	.db #0x00	; 0
      00D0FE 00                    9323 	.db #0x00	; 0
      00D0FF 00                    9324 	.db #0x00	; 0
      00D100 00                    9325 	.db #0x00	; 0
      00D101 00                    9326 	.db #0x00	; 0
      00D102 40                    9327 	.db #0x40	; 64
      00D103 00                    9328 	.db #0x00	; 0
      00D104 20                    9329 	.db #0x20	; 32
      00D105 20                    9330 	.db #0x20	; 32
      00D106 19                    9331 	.db #0x19	; 25
      00D107 20                    9332 	.db #0x20	; 32
      00D108 05                    9333 	.db #0x05	; 5
      00D109 F8                    9334 	.db #0xf8	; 248
      00D10A 03                    9335 	.db #0x03	; 3
      00D10B 20                    9336 	.db #0x20	; 32
      00D10C 05                    9337 	.db #0x05	; 5
      00D10D 20                    9338 	.db #0x20	; 32
      00D10E 09                    9339 	.db #0x09	; 9
      00D10F 00                    9340 	.db #0x00	; 0
      00D110 10                    9341 	.db #0x10	; 16
      00D111 00                    9342 	.db #0x00	; 0
      00D112 20                    9343 	.db #0x20	; 32
      00D113 00                    9344 	.db #0x00	; 0
      00D114 40                    9345 	.db #0x40	; 64
      00D115 80                    9346 	.db #0x80	; 128
      00D116 00                    9347 	.db #0x00	; 0
      00D117 80                    9348 	.db #0x80	; 128
      00D118 00                    9349 	.db #0x00	; 0
      00D119 80                    9350 	.db #0x80	; 128
      00D11A 00                    9351 	.db #0x00	; 0
      00D11B 80                    9352 	.db #0x80	; 128
      00D11C 00                    9353 	.db #0x00	; 0
      00D11D FF                    9354 	.db #0xff	; 255
      00D11E 00                    9355 	.db #0x00	; 0
      00D11F 00                    9356 	.db #0x00	; 0
      00D120 00                    9357 	.db #0x00	; 0
      00D121 00                    9358 	.db #0x00	; 0
      00D122 00                    9359 	.db #0x00	; 0
      00D123 00                    9360 	.db #0x00	; 0
      00D124 00                    9361 	.db #0x00	; 0
      00D125 00                    9362 	.db #0x00	; 0
      00D126 00                    9363 	.db #0x00	; 0
      00D127 00                    9364 	.db #0x00	; 0
      00D128 00                    9365 	.db #0x00	; 0
      00D129 00                    9366 	.db #0x00	; 0
      00D12A 00                    9367 	.db #0x00	; 0
      00D12B 00                    9368 	.db #0x00	; 0
      00D12C 00                    9369 	.db #0x00	; 0
      00D12D 00                    9370 	.db #0x00	; 0
      00D12E 00                    9371 	.db #0x00	; 0
      00D12F 00                    9372 	.db #0x00	; 0
      00D130 00                    9373 	.db #0x00	; 0
      00D131 80                    9374 	.db #0x80	; 128
      00D132 FF                    9375 	.db #0xff	; 255
      00D133 80                    9376 	.db #0x80	; 128
      00D134 00                    9377 	.db #0x00	; 0
      00D135 80                    9378 	.db #0x80	; 128
      00D136 00                    9379 	.db #0x00	; 0
      00D137 80                    9380 	.db #0x80	; 128
      00D138 00                    9381 	.db #0x00	; 0
      00D139 80                    9382 	.db #0x80	; 128
      00D13A 00                    9383 	.db #0x00	; 0
      00D13B 80                    9384 	.db #0x80	; 128
      00D13C 00                    9385 	.db #0x00	; 0
      00D13D 80                    9386 	.db #0x80	; 128
      00D13E 00                    9387 	.db #0x00	; 0
      00D13F 80                    9388 	.db #0x80	; 128
      00D140 00                    9389 	.db #0x00	; 0
      00D141 80                    9390 	.db #0x80	; 128
      00D142 00                    9391 	.db #0x00	; 0
      00D143 80                    9392 	.db #0x80	; 128
      00D144 00                    9393 	.db #0x00	; 0
      00D145 80                    9394 	.db #0x80	; 128
      00D146 FF                    9395 	.db #0xff	; 255
      00D147 80                    9396 	.db #0x80	; 128
      00D148 00                    9397 	.db #0x00	; 0
      00D149 80                    9398 	.db #0x80	; 128
      00D14A 00                    9399 	.db #0x00	; 0
      00D14B 80                    9400 	.db #0x80	; 128
      00D14C 00                    9401 	.db #0x00	; 0
      00D14D 80                    9402 	.db #0x80	; 128
      00D14E 00                    9403 	.db #0x00	; 0
      00D14F 80                    9404 	.db #0x80	; 128
      00D150 00                    9405 	.db #0x00	; 0
      00D151 80                    9406 	.db #0x80	; 128
      00D152 00                    9407 	.db #0x00	; 0
      00D153 80                    9408 	.db #0x80	; 128
      00D154 00                    9409 	.db #0x00	; 0
      00D155 80                    9410 	.db #0x80	; 128
      00D156 00                    9411 	.db #0x00	; 0
      00D157 80                    9412 	.db #0x80	; 128
      00D158 00                    9413 	.db #0x00	; 0
      00D159 FF                    9414 	.db #0xff	; 255
      00D15A 00                    9415 	.db #0x00	; 0
      00D15B 80                    9416 	.db #0x80	; 128
      00D15C 00                    9417 	.db #0x00	; 0
      00D15D 80                    9418 	.db #0x80	; 128
      00D15E 00                    9419 	.db #0x00	; 0
      00D15F 80                    9420 	.db #0x80	; 128
      00D160 00                    9421 	.db #0x00	; 0
      00D161 80                    9422 	.db #0x80	; 128
      00D162 00                    9423 	.db #0x00	; 0
      00D163 80                    9424 	.db #0x80	; 128
      00D164 00                    9425 	.db #0x00	; 0
      00D165 00                    9426 	.db #0x00	; 0
      00D166 00                    9427 	.db #0x00	; 0
      00D167 00                    9428 	.db #0x00	; 0
      00D168 00                    9429 	.db #0x00	; 0
      00D169 00                    9430 	.db #0x00	; 0
      00D16A 00                    9431 	.db #0x00	; 0
      00D16B 00                    9432 	.db #0x00	; 0
      00D16C 00                    9433 	.db #0x00	; 0
      00D16D FF                    9434 	.db #0xff	; 255
      00D16E FF                    9435 	.db #0xff	; 255
      00D16F 80                    9436 	.db #0x80	; 128
      00D170 00                    9437 	.db #0x00	; 0
      00D171 80                    9438 	.db #0x80	; 128
      00D172 00                    9439 	.db #0x00	; 0
      00D173 80                    9440 	.db #0x80	; 128
      00D174 00                    9441 	.db #0x00	; 0
      00D175 80                    9442 	.db #0x80	; 128
      00D176 00                    9443 	.db #0x00	; 0
      00D177 80                    9444 	.db #0x80	; 128
      00D178 00                    9445 	.db #0x00	; 0
      00D179 80                    9446 	.db #0x80	; 128
      00D17A 00                    9447 	.db #0x00	; 0
      00D17B 80                    9448 	.db #0x80	; 128
      00D17C 00                    9449 	.db #0x00	; 0
      00D17D 80                    9450 	.db #0x80	; 128
      00D17E 00                    9451 	.db #0x00	; 0
      00D17F 80                    9452 	.db #0x80	; 128
      00D180 00                    9453 	.db #0x00	; 0
      00D181 80                    9454 	.db #0x80	; 128
      00D182 00                    9455 	.db #0x00	; 0
      00D183 80                    9456 	.db #0x80	; 128
      00D184 00                    9457 	.db #0x00	; 0
      00D185 80                    9458 	.db #0x80	; 128
      00D186 00                    9459 	.db #0x00	; 0
      00D187 80                    9460 	.db #0x80	; 128
      00D188 00                    9461 	.db #0x00	; 0
      00D189 80                    9462 	.db #0x80	; 128
      00D18A 00                    9463 	.db #0x00	; 0
      00D18B 80                    9464 	.db #0x80	; 128
      00D18C 00                    9465 	.db #0x00	; 0
      00D18D 80                    9466 	.db #0x80	; 128
      00D18E 00                    9467 	.db #0x00	; 0
      00D18F 80                    9468 	.db #0x80	; 128
      00D190 00                    9469 	.db #0x00	; 0
      00D191 80                    9470 	.db #0x80	; 128
      00D192 00                    9471 	.db #0x00	; 0
      00D193 80                    9472 	.db #0x80	; 128
      00D194 00                    9473 	.db #0x00	; 0
      00D195 FF                    9474 	.db #0xff	; 255
      00D196 FF                    9475 	.db #0xff	; 255
      00D197 80                    9476 	.db #0x80	; 128
      00D198 00                    9477 	.db #0x00	; 0
      00D199 80                    9478 	.db #0x80	; 128
      00D19A 00                    9479 	.db #0x00	; 0
      00D19B 80                    9480 	.db #0x80	; 128
      00D19C 00                    9481 	.db #0x00	; 0
      00D19D 80                    9482 	.db #0x80	; 128
      00D19E 00                    9483 	.db #0x00	; 0
      00D19F 80                    9484 	.db #0x80	; 128
      00D1A0 00                    9485 	.db #0x00	; 0
      00D1A1 00                    9486 	.db #0x00	; 0
      00D1A2 00                    9487 	.db #0x00	; 0
      00D1A3 30                    9488 	.db #0x30	; 48	'0'
      00D1A4 00                    9489 	.db #0x00	; 0
      00D1A5 48                    9490 	.db #0x48	; 72	'H'
      00D1A6 24                    9491 	.db #0x24	; 36
      00D1A7 88                    9492 	.db #0x88	; 136
      00D1A8 44                    9493 	.db #0x44	; 68	'D'
      00D1A9 88                    9494 	.db #0x88	; 136
      00D1AA 24                    9495 	.db #0x24	; 36
      00D1AB 90                    9496 	.db #0x90	; 144
      00D1AC 24                    9497 	.db #0x24	; 36
      00D1AD F8                    9498 	.db #0xf8	; 248
      00D1AE 43                    9499 	.db #0x43	; 67	'C'
      00D1AF 08                    9500 	.db #0x08	; 8
      00D1B0 00                    9501 	.db #0x00	; 0
      00D1B1 00                    9502 	.db #0x00	; 0
      00D1B2 00                    9503 	.db #0x00	; 0
      00D1B3 00                    9504 	.db #0x00	; 0
      00D1B4 00                    9505 	.db #0x00	; 0
      00D1B5 08                    9506 	.db #0x08	; 8
      00D1B6 00                    9507 	.db #0x00	; 0
      00D1B7 70                    9508 	.db #0x70	; 112	'p'
      00D1B8 00                    9509 	.db #0x00	; 0
      00D1B9 C0                    9510 	.db #0xc0	; 192
      00D1BA 41                    9511 	.db #0x41	; 65	'A'
      00D1BB 40                    9512 	.db #0x40	; 64
      00D1BC 8E                    9513 	.db #0x8e	; 142
      00D1BD 40                    9514 	.db #0x40	; 64
      00D1BE D8                    9515 	.db #0xd8	; 216
      00D1BF 40                    9516 	.db #0x40	; 64
      00D1C0 4C                    9517 	.db #0x4c	; 76	'L'
      00D1C1 40                    9518 	.db #0x40	; 64
      00D1C2 83                    9519 	.db #0x83	; 131
      00D1C3 C0                    9520 	.db #0xc0	; 192
      00D1C4 00                    9521 	.db #0x00	; 0
      00D1C5 30                    9522 	.db #0x30	; 48	'0'
      00D1C6 00                    9523 	.db #0x00	; 0
      00D1C7 08                    9524 	.db #0x08	; 8
      00D1C8 00                    9525 	.db #0x00	; 0
      00D1C9 00                    9526 	.db #0x00	; 0
      00D1CA 00                    9527 	.db #0x00	; 0
      00D1CB 00                    9528 	.db #0x00	; 0
      00D1CC 00                    9529 	.db #0x00	; 0
      00D1CD 00                    9530 	.db #0x00	; 0
      00D1CE 00                    9531 	.db #0x00	; 0
      00D1CF C0                    9532 	.db #0xc0	; 192
      00D1D0 FF                    9533 	.db #0xff	; 255
      00D1D1 40                    9534 	.db #0x40	; 64
      00D1D2 00                    9535 	.db #0x00	; 0
      00D1D3 40                    9536 	.db #0x40	; 64
      00D1D4 FF                    9537 	.db #0xff	; 255
      00D1D5 40                    9538 	.db #0x40	; 64
      00D1D6 01                    9539 	.db #0x01	; 1
      00D1D7 40                    9540 	.db #0x40	; 64
      00D1D8 01                    9541 	.db #0x01	; 1
      00D1D9 40                    9542 	.db #0x40	; 64
      00D1DA 01                    9543 	.db #0x01	; 1
      00D1DB 40                    9544 	.db #0x40	; 64
      00D1DC 01                    9545 	.db #0x01	; 1
      00D1DD 00                    9546 	.db #0x00	; 0
      00D1DE 00                    9547 	.db #0x00	; 0
      00D1DF 00                    9548 	.db #0x00	; 0
      00D1E0 00                    9549 	.db #0x00	; 0
      00D1E1 00                    9550 	.db #0x00	; 0
      00D1E2 00                    9551 	.db #0x00	; 0
      00D1E3 FF                    9552 	.db #0xff	; 255
      00D1E4 01                    9553 	.db #0x01	; 1
      00D1E5 00                    9554 	.db #0x00	; 0
      00D1E6 01                    9555 	.db #0x01	; 1
      00D1E7 7F                    9556 	.db #0x7f	; 127
      00D1E8 01                    9557 	.db #0x01	; 1
      00D1E9 40                    9558 	.db #0x40	; 64
      00D1EA 01                    9559 	.db #0x01	; 1
      00D1EB 40                    9560 	.db #0x40	; 64
      00D1EC 01                    9561 	.db #0x01	; 1
      00D1ED 40                    9562 	.db #0x40	; 64
      00D1EE 01                    9563 	.db #0x01	; 1
      00D1EF 40                    9564 	.db #0x40	; 64
      00D1F0 01                    9565 	.db #0x01	; 1
      00D1F1 40                    9566 	.db #0x40	; 64
      00D1F2 01                    9567 	.db #0x01	; 1
      00D1F3 40                    9568 	.db #0x40	; 64
      00D1F4 01                    9569 	.db #0x01	; 1
      00D1F5 40                    9570 	.db #0x40	; 64
      00D1F6 01                    9571 	.db #0x01	; 1
      00D1F7 40                    9572 	.db #0x40	; 64
      00D1F8 FF                    9573 	.db #0xff	; 255
      00D1F9 40                    9574 	.db #0x40	; 64
      00D1FA 00                    9575 	.db #0x00	; 0
      00D1FB 40                    9576 	.db #0x40	; 64
      00D1FC FF                    9577 	.db #0xff	; 255
      00D1FD 40                    9578 	.db #0x40	; 64
      00D1FE 01                    9579 	.db #0x01	; 1
      00D1FF 40                    9580 	.db #0x40	; 64
      00D200 01                    9581 	.db #0x01	; 1
      00D201 40                    9582 	.db #0x40	; 64
      00D202 01                    9583 	.db #0x01	; 1
      00D203 40                    9584 	.db #0x40	; 64
      00D204 01                    9585 	.db #0x01	; 1
      00D205 40                    9586 	.db #0x40	; 64
      00D206 01                    9587 	.db #0x01	; 1
      00D207 40                    9588 	.db #0x40	; 64
      00D208 01                    9589 	.db #0x01	; 1
      00D209 40                    9590 	.db #0x40	; 64
      00D20A 01                    9591 	.db #0x01	; 1
      00D20B 7F                    9592 	.db #0x7f	; 127
      00D20C 01                    9593 	.db #0x01	; 1
      00D20D 00                    9594 	.db #0x00	; 0
      00D20E 01                    9595 	.db #0x01	; 1
      00D20F 7F                    9596 	.db #0x7f	; 127
      00D210 01                    9597 	.db #0x01	; 1
      00D211 40                    9598 	.db #0x40	; 64
      00D212 01                    9599 	.db #0x01	; 1
      00D213 40                    9600 	.db #0x40	; 64
      00D214 01                    9601 	.db #0x01	; 1
      00D215 40                    9602 	.db #0x40	; 64
      00D216 01                    9603 	.db #0x01	; 1
      00D217 40                    9604 	.db #0x40	; 64
      00D218 01                    9605 	.db #0x01	; 1
      00D219 00                    9606 	.db #0x00	; 0
      00D21A 00                    9607 	.db #0x00	; 0
      00D21B 00                    9608 	.db #0x00	; 0
      00D21C 00                    9609 	.db #0x00	; 0
      00D21D 00                    9610 	.db #0x00	; 0
      00D21E 00                    9611 	.db #0x00	; 0
      00D21F FF                    9612 	.db #0xff	; 255
      00D220 FF                    9613 	.db #0xff	; 255
      00D221 00                    9614 	.db #0x00	; 0
      00D222 00                    9615 	.db #0x00	; 0
      00D223 7F                    9616 	.db #0x7f	; 127
      00D224 FF                    9617 	.db #0xff	; 255
      00D225 40                    9618 	.db #0x40	; 64
      00D226 01                    9619 	.db #0x01	; 1
      00D227 40                    9620 	.db #0x40	; 64
      00D228 01                    9621 	.db #0x01	; 1
      00D229 40                    9622 	.db #0x40	; 64
      00D22A 01                    9623 	.db #0x01	; 1
      00D22B 40                    9624 	.db #0x40	; 64
      00D22C 01                    9625 	.db #0x01	; 1
      00D22D 40                    9626 	.db #0x40	; 64
      00D22E 01                    9627 	.db #0x01	; 1
      00D22F 40                    9628 	.db #0x40	; 64
      00D230 01                    9629 	.db #0x01	; 1
      00D231 40                    9630 	.db #0x40	; 64
      00D232 01                    9631 	.db #0x01	; 1
      00D233 40                    9632 	.db #0x40	; 64
      00D234 01                    9633 	.db #0x01	; 1
      00D235 40                    9634 	.db #0x40	; 64
      00D236 01                    9635 	.db #0x01	; 1
      00D237 40                    9636 	.db #0x40	; 64
      00D238 01                    9637 	.db #0x01	; 1
      00D239 40                    9638 	.db #0x40	; 64
      00D23A 01                    9639 	.db #0x01	; 1
      00D23B 40                    9640 	.db #0x40	; 64
      00D23C 01                    9641 	.db #0x01	; 1
      00D23D 40                    9642 	.db #0x40	; 64
      00D23E 01                    9643 	.db #0x01	; 1
      00D23F 40                    9644 	.db #0x40	; 64
      00D240 01                    9645 	.db #0x01	; 1
      00D241 40                    9646 	.db #0x40	; 64
      00D242 01                    9647 	.db #0x01	; 1
      00D243 40                    9648 	.db #0x40	; 64
      00D244 01                    9649 	.db #0x01	; 1
      00D245 40                    9650 	.db #0x40	; 64
      00D246 01                    9651 	.db #0x01	; 1
      00D247 7F                    9652 	.db #0x7f	; 127
      00D248 FF                    9653 	.db #0xff	; 255
      00D249 00                    9654 	.db #0x00	; 0
      00D24A 00                    9655 	.db #0x00	; 0
      00D24B 7F                    9656 	.db #0x7f	; 127
      00D24C FF                    9657 	.db #0xff	; 255
      00D24D 40                    9658 	.db #0x40	; 64
      00D24E 01                    9659 	.db #0x01	; 1
      00D24F 40                    9660 	.db #0x40	; 64
      00D250 01                    9661 	.db #0x01	; 1
      00D251 40                    9662 	.db #0x40	; 64
      00D252 01                    9663 	.db #0x01	; 1
      00D253 40                    9664 	.db #0x40	; 64
      00D254 01                    9665 	.db #0x01	; 1
      00D255 00                    9666 	.db #0x00	; 0
      00D256 00                    9667 	.db #0x00	; 0
      00D257 20                    9668 	.db #0x20	; 32
      00D258 10                    9669 	.db #0x10	; 16
      00D259 C0                    9670 	.db #0xc0	; 192
      00D25A 0F                    9671 	.db #0x0f	; 15
      00D25B 40                    9672 	.db #0x40	; 64
      00D25C 08                    9673 	.db #0x08	; 8
      00D25D 40                    9674 	.db #0x40	; 64
      00D25E 08                    9675 	.db #0x08	; 8
      00D25F 40                    9676 	.db #0x40	; 64
      00D260 08                    9677 	.db #0x08	; 8
      00D261 40                    9678 	.db #0x40	; 64
      00D262 08                    9679 	.db #0x08	; 8
      00D263 C0                    9680 	.db #0xc0	; 192
      00D264 0F                    9681 	.db #0x0f	; 15
      00D265 20                    9682 	.db #0x20	; 32
      00D266 10                    9683 	.db #0x10	; 16
      00D267 00                    9684 	.db #0x00	; 0
      00D268 00                    9685 	.db #0x00	; 0
      00D269 00                    9686 	.db #0x00	; 0
      00D26A 00                    9687 	.db #0x00	; 0
      00D26B E0                    9688 	.db #0xe0	; 224
      00D26C 41                    9689 	.db #0x41	; 65	'A'
      00D26D 10                    9690 	.db #0x10	; 16
      00D26E 52                    9691 	.db #0x52	; 82	'R'
      00D26F 08                    9692 	.db #0x08	; 8
      00D270 74                    9693 	.db #0x74	; 116	't'
      00D271 08                    9694 	.db #0x08	; 8
      00D272 24                    9695 	.db #0x24	; 36
      00D273 08                    9696 	.db #0x08	; 8
      00D274 54                    9697 	.db #0x54	; 84	'T'
      00D275 10                    9698 	.db #0x10	; 16
      00D276 0E                    9699 	.db #0x0e	; 14
      00D277 E0                    9700 	.db #0xe0	; 224
      00D278 03                    9701 	.db #0x03	; 3
      00D279 00                    9702 	.db #0x00	; 0
      00D27A 00                    9703 	.db #0x00	; 0
      00D27B 00                    9704 	.db #0x00	; 0
      00D27C 00                    9705 	.db #0x00	; 0
      00D27D 00                    9706 	.db #0x00	; 0
      00D27E 01                    9707 	.db #0x01	; 1
      00D27F F8                    9708 	.db #0xf8	; 248
      00D280 1F                    9709 	.db #0x1f	; 31
      00D281 08                    9710 	.db #0x08	; 8
      00D282 11                    9711 	.db #0x11	; 17
      00D283 08                    9712 	.db #0x08	; 8
      00D284 11                    9713 	.db #0x11	; 17
      00D285 08                    9714 	.db #0x08	; 8
      00D286 10                    9715 	.db #0x10	; 16
      00D287 08                    9716 	.db #0x08	; 8
      00D288 10                    9717 	.db #0x10	; 16
      00D289 10                    9718 	.db #0x10	; 16
      00D28A 08                    9719 	.db #0x08	; 8
      00D28B E0                    9720 	.db #0xe0	; 224
      00D28C 07                    9721 	.db #0x07	; 7
      00D28D 00                    9722 	.db #0x00	; 0
      00D28E 00                    9723 	.db #0x00	; 0
      00D28F 00                    9724 	.db #0x00	; 0
      00D290 00                    9725 	.db #0x00	; 0
      00D291 00                    9726 	.db #0x00	; 0
      00D292 00                    9727 	.db #0x00	; 0
      00D293 F8                    9728 	.db #0xf8	; 248
      00D294 1F                    9729 	.db #0x1f	; 31
      00D295 88                    9730 	.db #0x88	; 136
      00D296 10                    9731 	.db #0x10	; 16
      00D297 88                    9732 	.db #0x88	; 136
      00D298 50                    9733 	.db #0x50	; 80	'P'
      00D299 88                    9734 	.db #0x88	; 136
      00D29A 90                    9735 	.db #0x90	; 144
      00D29B 88                    9736 	.db #0x88	; 136
      00D29C 90                    9737 	.db #0x90	; 144
      00D29D 88                    9738 	.db #0x88	; 136
      00D29E 50                    9739 	.db #0x50	; 80	'P'
      00D29F 08                    9740 	.db #0x08	; 8
      00D2A0 10                    9741 	.db #0x10	; 16
      00D2A1 00                    9742 	.db #0x00	; 0
      00D2A2 00                    9743 	.db #0x00	; 0
      00D2A3 00                    9744 	.db #0x00	; 0
      00D2A4 00                    9745 	.db #0x00	; 0
      00D2A5 00                    9746 	.db #0x00	; 0
      00D2A6 00                    9747 	.db #0x00	; 0
      00D2A7 F8                    9748 	.db #0xf8	; 248
      00D2A8 1F                    9749 	.db #0x1f	; 31
      00D2A9 88                    9750 	.db #0x88	; 136
      00D2AA 90                    9751 	.db #0x90	; 144
      00D2AB 88                    9752 	.db #0x88	; 136
      00D2AC 10                    9753 	.db #0x10	; 16
      00D2AD 88                    9754 	.db #0x88	; 136
      00D2AE 10                    9755 	.db #0x10	; 16
      00D2AF 88                    9756 	.db #0x88	; 136
      00D2B0 10                    9757 	.db #0x10	; 16
      00D2B1 88                    9758 	.db #0x88	; 136
      00D2B2 90                    9759 	.db #0x90	; 144
      00D2B3 08                    9760 	.db #0x08	; 8
      00D2B4 10                    9761 	.db #0x10	; 16
      00D2B5 00                    9762 	.db #0x00	; 0
      00D2B6 00                    9763 	.db #0x00	; 0
      00D2B7 00                    9764 	.db #0x00	; 0
      00D2B8 00                    9765 	.db #0x00	; 0
      00D2B9 00                    9766 	.db #0x00	; 0
      00D2BA 00                    9767 	.db #0x00	; 0
      00D2BB F8                    9768 	.db #0xf8	; 248
      00D2BC 1F                    9769 	.db #0x1f	; 31
      00D2BD 88                    9770 	.db #0x88	; 136
      00D2BE 10                    9771 	.db #0x10	; 16
      00D2BF 88                    9772 	.db #0x88	; 136
      00D2C0 10                    9773 	.db #0x10	; 16
      00D2C1 88                    9774 	.db #0x88	; 136
      00D2C2 90                    9775 	.db #0x90	; 144
      00D2C3 88                    9776 	.db #0x88	; 136
      00D2C4 50                    9777 	.db #0x50	; 80	'P'
      00D2C5 88                    9778 	.db #0x88	; 136
      00D2C6 10                    9779 	.db #0x10	; 16
      00D2C7 08                    9780 	.db #0x08	; 8
      00D2C8 10                    9781 	.db #0x10	; 16
      00D2C9 00                    9782 	.db #0x00	; 0
      00D2CA 00                    9783 	.db #0x00	; 0
      00D2CB 00                    9784 	.db #0x00	; 0
      00D2CC 00                    9785 	.db #0x00	; 0
      00D2CD 00                    9786 	.db #0x00	; 0
      00D2CE 00                    9787 	.db #0x00	; 0
      00D2CF 00                    9788 	.db #0x00	; 0
      00D2D0 04                    9789 	.db #0x04	; 4
      00D2D1 00                    9790 	.db #0x00	; 0
      00D2D2 04                    9791 	.db #0x04	; 4
      00D2D3 00                    9792 	.db #0x00	; 0
      00D2D4 04                    9793 	.db #0x04	; 4
      00D2D5 F8                    9794 	.db #0xf8	; 248
      00D2D6 07                    9795 	.db #0x07	; 7
      00D2D7 00                    9796 	.db #0x00	; 0
      00D2D8 00                    9797 	.db #0x00	; 0
      00D2D9 00                    9798 	.db #0x00	; 0
      00D2DA 00                    9799 	.db #0x00	; 0
      00D2DB 00                    9800 	.db #0x00	; 0
      00D2DC 00                    9801 	.db #0x00	; 0
      00D2DD 00                    9802 	.db #0x00	; 0
      00D2DE 00                    9803 	.db #0x00	; 0
      00D2DF 00                    9804 	.db #0x00	; 0
      00D2E0 00                    9805 	.db #0x00	; 0
      00D2E1 00                    9806 	.db #0x00	; 0
      00D2E2 00                    9807 	.db #0x00	; 0
      00D2E3 08                    9808 	.db #0x08	; 8
      00D2E4 10                    9809 	.db #0x10	; 16
      00D2E5 08                    9810 	.db #0x08	; 8
      00D2E6 10                    9811 	.db #0x10	; 16
      00D2E7 08                    9812 	.db #0x08	; 8
      00D2E8 10                    9813 	.db #0x10	; 16
      00D2E9 F8                    9814 	.db #0xf8	; 248
      00D2EA 5F                    9815 	.db #0x5f	; 95
      00D2EB 08                    9816 	.db #0x08	; 8
      00D2EC 90                    9817 	.db #0x90	; 144
      00D2ED 08                    9818 	.db #0x08	; 8
      00D2EE 10                    9819 	.db #0x10	; 16
      00D2EF 08                    9820 	.db #0x08	; 8
      00D2F0 10                    9821 	.db #0x10	; 16
      00D2F1 00                    9822 	.db #0x00	; 0
      00D2F2 00                    9823 	.db #0x00	; 0
      00D2F3 00                    9824 	.db #0x00	; 0
      00D2F4 00                    9825 	.db #0x00	; 0
      00D2F5 00                    9826 	.db #0x00	; 0
      00D2F6 00                    9827 	.db #0x00	; 0
      00D2F7 08                    9828 	.db #0x08	; 8
      00D2F8 10                    9829 	.db #0x10	; 16
      00D2F9 08                    9830 	.db #0x08	; 8
      00D2FA 10                    9831 	.db #0x10	; 16
      00D2FB 08                    9832 	.db #0x08	; 8
      00D2FC 50                    9833 	.db #0x50	; 80	'P'
      00D2FD F8                    9834 	.db #0xf8	; 248
      00D2FE 9F                    9835 	.db #0x9f	; 159
      00D2FF 08                    9836 	.db #0x08	; 8
      00D300 90                    9837 	.db #0x90	; 144
      00D301 08                    9838 	.db #0x08	; 8
      00D302 50                    9839 	.db #0x50	; 80	'P'
      00D303 08                    9840 	.db #0x08	; 8
      00D304 10                    9841 	.db #0x10	; 16
      00D305 00                    9842 	.db #0x00	; 0
      00D306 00                    9843 	.db #0x00	; 0
      00D307 00                    9844 	.db #0x00	; 0
      00D308 00                    9845 	.db #0x00	; 0
      00D309 00                    9846 	.db #0x00	; 0
      00D30A 00                    9847 	.db #0x00	; 0
      00D30B 08                    9848 	.db #0x08	; 8
      00D30C 10                    9849 	.db #0x10	; 16
      00D30D 08                    9850 	.db #0x08	; 8
      00D30E 90                    9851 	.db #0x90	; 144
      00D30F 08                    9852 	.db #0x08	; 8
      00D310 10                    9853 	.db #0x10	; 16
      00D311 F8                    9854 	.db #0xf8	; 248
      00D312 1F                    9855 	.db #0x1f	; 31
      00D313 08                    9856 	.db #0x08	; 8
      00D314 10                    9857 	.db #0x10	; 16
      00D315 08                    9858 	.db #0x08	; 8
      00D316 90                    9859 	.db #0x90	; 144
      00D317 08                    9860 	.db #0x08	; 8
      00D318 10                    9861 	.db #0x10	; 16
      00D319 00                    9862 	.db #0x00	; 0
      00D31A 00                    9863 	.db #0x00	; 0
      00D31B 00                    9864 	.db #0x00	; 0
      00D31C 00                    9865 	.db #0x00	; 0
      00D31D 80                    9866 	.db #0x80	; 128
      00D31E 00                    9867 	.db #0x00	; 0
      00D31F 80                    9868 	.db #0x80	; 128
      00D320 00                    9869 	.db #0x00	; 0
      00D321 80                    9870 	.db #0x80	; 128
      00D322 00                    9871 	.db #0x00	; 0
      00D323 80                    9872 	.db #0x80	; 128
      00D324 00                    9873 	.db #0x00	; 0
      00D325 80                    9874 	.db #0x80	; 128
      00D326 FF                    9875 	.db #0xff	; 255
      00D327 00                    9876 	.db #0x00	; 0
      00D328 00                    9877 	.db #0x00	; 0
      00D329 00                    9878 	.db #0x00	; 0
      00D32A 00                    9879 	.db #0x00	; 0
      00D32B 00                    9880 	.db #0x00	; 0
      00D32C 00                    9881 	.db #0x00	; 0
      00D32D 00                    9882 	.db #0x00	; 0
      00D32E 00                    9883 	.db #0x00	; 0
      00D32F 00                    9884 	.db #0x00	; 0
      00D330 00                    9885 	.db #0x00	; 0
      00D331 00                    9886 	.db #0x00	; 0
      00D332 00                    9887 	.db #0x00	; 0
      00D333 00                    9888 	.db #0x00	; 0
      00D334 00                    9889 	.db #0x00	; 0
      00D335 00                    9890 	.db #0x00	; 0
      00D336 00                    9891 	.db #0x00	; 0
      00D337 00                    9892 	.db #0x00	; 0
      00D338 00                    9893 	.db #0x00	; 0
      00D339 FF                    9894 	.db #0xff	; 255
      00D33A 00                    9895 	.db #0x00	; 0
      00D33B 80                    9896 	.db #0x80	; 128
      00D33C 00                    9897 	.db #0x00	; 0
      00D33D 80                    9898 	.db #0x80	; 128
      00D33E 00                    9899 	.db #0x00	; 0
      00D33F 80                    9900 	.db #0x80	; 128
      00D340 00                    9901 	.db #0x00	; 0
      00D341 80                    9902 	.db #0x80	; 128
      00D342 00                    9903 	.db #0x00	; 0
      00D343 80                    9904 	.db #0x80	; 128
      00D344 00                    9905 	.db #0x00	; 0
      00D345 FF                    9906 	.db #0xff	; 255
      00D346 FF                    9907 	.db #0xff	; 255
      00D347 FF                    9908 	.db #0xff	; 255
      00D348 FF                    9909 	.db #0xff	; 255
      00D349 FF                    9910 	.db #0xff	; 255
      00D34A FF                    9911 	.db #0xff	; 255
      00D34B FF                    9912 	.db #0xff	; 255
      00D34C FF                    9913 	.db #0xff	; 255
      00D34D FF                    9914 	.db #0xff	; 255
      00D34E FF                    9915 	.db #0xff	; 255
      00D34F FF                    9916 	.db #0xff	; 255
      00D350 FF                    9917 	.db #0xff	; 255
      00D351 FF                    9918 	.db #0xff	; 255
      00D352 FF                    9919 	.db #0xff	; 255
      00D353 FF                    9920 	.db #0xff	; 255
      00D354 FF                    9921 	.db #0xff	; 255
      00D355 FF                    9922 	.db #0xff	; 255
      00D356 FF                    9923 	.db #0xff	; 255
      00D357 FF                    9924 	.db #0xff	; 255
      00D358 FF                    9925 	.db #0xff	; 255
      00D359 FF                    9926 	.db #0xff	; 255
      00D35A 00                    9927 	.db #0x00	; 0
      00D35B FF                    9928 	.db #0xff	; 255
      00D35C 00                    9929 	.db #0x00	; 0
      00D35D FF                    9930 	.db #0xff	; 255
      00D35E 00                    9931 	.db #0x00	; 0
      00D35F FF                    9932 	.db #0xff	; 255
      00D360 00                    9933 	.db #0x00	; 0
      00D361 FF                    9934 	.db #0xff	; 255
      00D362 00                    9935 	.db #0x00	; 0
      00D363 FF                    9936 	.db #0xff	; 255
      00D364 00                    9937 	.db #0x00	; 0
      00D365 FF                    9938 	.db #0xff	; 255
      00D366 00                    9939 	.db #0x00	; 0
      00D367 FF                    9940 	.db #0xff	; 255
      00D368 00                    9941 	.db #0x00	; 0
      00D369 FF                    9942 	.db #0xff	; 255
      00D36A 00                    9943 	.db #0x00	; 0
      00D36B FF                    9944 	.db #0xff	; 255
      00D36C 00                    9945 	.db #0x00	; 0
      00D36D 00                    9946 	.db #0x00	; 0
      00D36E 00                    9947 	.db #0x00	; 0
      00D36F 00                    9948 	.db #0x00	; 0
      00D370 00                    9949 	.db #0x00	; 0
      00D371 00                    9950 	.db #0x00	; 0
      00D372 00                    9951 	.db #0x00	; 0
      00D373 00                    9952 	.db #0x00	; 0
      00D374 00                    9953 	.db #0x00	; 0
      00D375 3E                    9954 	.db #0x3e	; 62
      00D376 7E                    9955 	.db #0x7e	; 126
      00D377 00                    9956 	.db #0x00	; 0
      00D378 00                    9957 	.db #0x00	; 0
      00D379 00                    9958 	.db #0x00	; 0
      00D37A 00                    9959 	.db #0x00	; 0
      00D37B 00                    9960 	.db #0x00	; 0
      00D37C 00                    9961 	.db #0x00	; 0
      00D37D 00                    9962 	.db #0x00	; 0
      00D37E 00                    9963 	.db #0x00	; 0
      00D37F 00                    9964 	.db #0x00	; 0
      00D380 00                    9965 	.db #0x00	; 0
      00D381 00                    9966 	.db #0x00	; 0
      00D382 00                    9967 	.db #0x00	; 0
      00D383 08                    9968 	.db #0x08	; 8
      00D384 10                    9969 	.db #0x10	; 16
      00D385 08                    9970 	.db #0x08	; 8
      00D386 10                    9971 	.db #0x10	; 16
      00D387 08                    9972 	.db #0x08	; 8
      00D388 90                    9973 	.db #0x90	; 144
      00D389 F8                    9974 	.db #0xf8	; 248
      00D38A 5F                    9975 	.db #0x5f	; 95
      00D38B 08                    9976 	.db #0x08	; 8
      00D38C 10                    9977 	.db #0x10	; 16
      00D38D 08                    9978 	.db #0x08	; 8
      00D38E 10                    9979 	.db #0x10	; 16
      00D38F 08                    9980 	.db #0x08	; 8
      00D390 10                    9981 	.db #0x10	; 16
      00D391 00                    9982 	.db #0x00	; 0
      00D392 00                    9983 	.db #0x00	; 0
      00D393 00                    9984 	.db #0x00	; 0
      00D394 00                    9985 	.db #0x00	; 0
      00D395 00                    9986 	.db #0x00	; 0
      00D396 FF                    9987 	.db #0xff	; 255
      00D397 00                    9988 	.db #0x00	; 0
      00D398 FF                    9989 	.db #0xff	; 255
      00D399 00                    9990 	.db #0x00	; 0
      00D39A FF                    9991 	.db #0xff	; 255
      00D39B 00                    9992 	.db #0x00	; 0
      00D39C FF                    9993 	.db #0xff	; 255
      00D39D 00                    9994 	.db #0x00	; 0
      00D39E FF                    9995 	.db #0xff	; 255
      00D39F 00                    9996 	.db #0x00	; 0
      00D3A0 FF                    9997 	.db #0xff	; 255
      00D3A1 00                    9998 	.db #0x00	; 0
      00D3A2 FF                    9999 	.db #0xff	; 255
      00D3A3 00                   10000 	.db #0x00	; 0
      00D3A4 FF                   10001 	.db #0xff	; 255
      00D3A5 00                   10002 	.db #0x00	; 0
      00D3A6 FF                   10003 	.db #0xff	; 255
      00D3A7 00                   10004 	.db #0x00	; 0
      00D3A8 FF                   10005 	.db #0xff	; 255
      00D3A9 00                   10006 	.db #0x00	; 0
      00D3AA 00                   10007 	.db #0x00	; 0
      00D3AB E0                   10008 	.db #0xe0	; 224
      00D3AC 07                   10009 	.db #0x07	; 7
      00D3AD 10                   10010 	.db #0x10	; 16
      00D3AE 08                   10011 	.db #0x08	; 8
      00D3AF 08                   10012 	.db #0x08	; 8
      00D3B0 10                   10013 	.db #0x10	; 16
      00D3B1 08                   10014 	.db #0x08	; 8
      00D3B2 50                   10015 	.db #0x50	; 80	'P'
      00D3B3 08                   10016 	.db #0x08	; 8
      00D3B4 90                   10017 	.db #0x90	; 144
      00D3B5 08                   10018 	.db #0x08	; 8
      00D3B6 10                   10019 	.db #0x10	; 16
      00D3B7 10                   10020 	.db #0x10	; 16
      00D3B8 08                   10021 	.db #0x08	; 8
      00D3B9 E0                   10022 	.db #0xe0	; 224
      00D3BA 07                   10023 	.db #0x07	; 7
      00D3BB 00                   10024 	.db #0x00	; 0
      00D3BC 00                   10025 	.db #0x00	; 0
      00D3BD 00                   10026 	.db #0x00	; 0
      00D3BE 00                   10027 	.db #0x00	; 0
      00D3BF F8                   10028 	.db #0xf8	; 248
      00D3C0 3F                   10029 	.db #0x3f	; 63
      00D3C1 00                   10030 	.db #0x00	; 0
      00D3C2 40                   10031 	.db #0x40	; 64
      00D3C3 00                   10032 	.db #0x00	; 0
      00D3C4 40                   10033 	.db #0x40	; 64
      00D3C5 08                   10034 	.db #0x08	; 8
      00D3C6 47                   10035 	.db #0x47	; 71	'G'
      00D3C7 88                   10036 	.db #0x88	; 136
      00D3C8 38                   10037 	.db #0x38	; 56	'8'
      00D3C9 48                   10038 	.db #0x48	; 72	'H'
      00D3CA 00                   10039 	.db #0x00	; 0
      00D3CB 30                   10040 	.db #0x30	; 48	'0'
      00D3CC 00                   10041 	.db #0x00	; 0
      00D3CD 00                   10042 	.db #0x00	; 0
      00D3CE 00                   10043 	.db #0x00	; 0
      00D3CF 00                   10044 	.db #0x00	; 0
      00D3D0 00                   10045 	.db #0x00	; 0
      00D3D1 00                   10046 	.db #0x00	; 0
      00D3D2 00                   10047 	.db #0x00	; 0
      00D3D3 E0                   10048 	.db #0xe0	; 224
      00D3D4 07                   10049 	.db #0x07	; 7
      00D3D5 10                   10050 	.db #0x10	; 16
      00D3D6 08                   10051 	.db #0x08	; 8
      00D3D7 08                   10052 	.db #0x08	; 8
      00D3D8 50                   10053 	.db #0x50	; 80	'P'
      00D3D9 08                   10054 	.db #0x08	; 8
      00D3DA 90                   10055 	.db #0x90	; 144
      00D3DB 08                   10056 	.db #0x08	; 8
      00D3DC 90                   10057 	.db #0x90	; 144
      00D3DD 08                   10058 	.db #0x08	; 8
      00D3DE 50                   10059 	.db #0x50	; 80	'P'
      00D3DF 10                   10060 	.db #0x10	; 16
      00D3E0 08                   10061 	.db #0x08	; 8
      00D3E1 E0                   10062 	.db #0xe0	; 224
      00D3E2 07                   10063 	.db #0x07	; 7
      00D3E3 00                   10064 	.db #0x00	; 0
      00D3E4 00                   10065 	.db #0x00	; 0
      00D3E5 00                   10066 	.db #0x00	; 0
      00D3E6 00                   10067 	.db #0x00	; 0
      00D3E7 E0                   10068 	.db #0xe0	; 224
      00D3E8 07                   10069 	.db #0x07	; 7
      00D3E9 10                   10070 	.db #0x10	; 16
      00D3EA 08                   10071 	.db #0x08	; 8
      00D3EB 08                   10072 	.db #0x08	; 8
      00D3EC 90                   10073 	.db #0x90	; 144
      00D3ED 08                   10074 	.db #0x08	; 8
      00D3EE 50                   10075 	.db #0x50	; 80	'P'
      00D3EF 08                   10076 	.db #0x08	; 8
      00D3F0 10                   10077 	.db #0x10	; 16
      00D3F1 08                   10078 	.db #0x08	; 8
      00D3F2 10                   10079 	.db #0x10	; 16
      00D3F3 10                   10080 	.db #0x10	; 16
      00D3F4 08                   10081 	.db #0x08	; 8
      00D3F5 E0                   10082 	.db #0xe0	; 224
      00D3F6 07                   10083 	.db #0x07	; 7
      00D3F7 00                   10084 	.db #0x00	; 0
      00D3F8 00                   10085 	.db #0x00	; 0
      00D3F9 00                   10086 	.db #0x00	; 0
      00D3FA 00                   10087 	.db #0x00	; 0
      00D3FB E0                   10088 	.db #0xe0	; 224
      00D3FC 01                   10089 	.db #0x01	; 1
      00D3FD 10                   10090 	.db #0x10	; 16
      00D3FE 22                   10091 	.db #0x22	; 34
      00D3FF 08                   10092 	.db #0x08	; 8
      00D400 44                   10093 	.db #0x44	; 68	'D'
      00D401 08                   10094 	.db #0x08	; 8
      00D402 24                   10095 	.db #0x24	; 36
      00D403 08                   10096 	.db #0x08	; 8
      00D404 24                   10097 	.db #0x24	; 36
      00D405 10                   10098 	.db #0x10	; 16
      00D406 42                   10099 	.db #0x42	; 66	'B'
      00D407 E0                   10100 	.db #0xe0	; 224
      00D408 01                   10101 	.db #0x01	; 1
      00D409 00                   10102 	.db #0x00	; 0
      00D40A 00                   10103 	.db #0x00	; 0
      00D40B 00                   10104 	.db #0x00	; 0
      00D40C 00                   10105 	.db #0x00	; 0
      00D40D 00                   10106 	.db #0x00	; 0
      00D40E 00                   10107 	.db #0x00	; 0
      00D40F E0                   10108 	.db #0xe0	; 224
      00D410 07                   10109 	.db #0x07	; 7
      00D411 10                   10110 	.db #0x10	; 16
      00D412 48                   10111 	.db #0x48	; 72	'H'
      00D413 08                   10112 	.db #0x08	; 8
      00D414 90                   10113 	.db #0x90	; 144
      00D415 08                   10114 	.db #0x08	; 8
      00D416 D0                   10115 	.db #0xd0	; 208
      00D417 08                   10116 	.db #0x08	; 8
      00D418 50                   10117 	.db #0x50	; 80	'P'
      00D419 08                   10118 	.db #0x08	; 8
      00D41A 90                   10119 	.db #0x90	; 144
      00D41B 10                   10120 	.db #0x10	; 16
      00D41C 08                   10121 	.db #0x08	; 8
      00D41D E0                   10122 	.db #0xe0	; 224
      00D41E 07                   10123 	.db #0x07	; 7
      00D41F 00                   10124 	.db #0x00	; 0
      00D420 00                   10125 	.db #0x00	; 0
      00D421 00                   10126 	.db #0x00	; 0
      00D422 00                   10127 	.db #0x00	; 0
      00D423 FF                   10128 	.db #0xff	; 255
      00D424 07                   10129 	.db #0x07	; 7
      00D425 10                   10130 	.db #0x10	; 16
      00D426 00                   10131 	.db #0x00	; 0
      00D427 08                   10132 	.db #0x08	; 8
      00D428 00                   10133 	.db #0x00	; 0
      00D429 08                   10134 	.db #0x08	; 8
      00D42A 00                   10135 	.db #0x00	; 0
      00D42B 08                   10136 	.db #0x08	; 8
      00D42C 00                   10137 	.db #0x00	; 0
      00D42D 10                   10138 	.db #0x10	; 16
      00D42E 00                   10139 	.db #0x00	; 0
      00D42F F8                   10140 	.db #0xf8	; 248
      00D430 07                   10141 	.db #0x07	; 7
      00D431 00                   10142 	.db #0x00	; 0
      00D432 00                   10143 	.db #0x00	; 0
      00D433 00                   10144 	.db #0x00	; 0
      00D434 00                   10145 	.db #0x00	; 0
      00D435 00                   10146 	.db #0x00	; 0
      00D436 00                   10147 	.db #0x00	; 0
      00D437 FF                   10148 	.db #0xff	; 255
      00D438 7F                   10149 	.db #0x7f	; 127
      00D439 10                   10150 	.db #0x10	; 16
      00D43A 02                   10151 	.db #0x02	; 2
      00D43B 08                   10152 	.db #0x08	; 8
      00D43C 04                   10153 	.db #0x04	; 4
      00D43D 08                   10154 	.db #0x08	; 8
      00D43E 04                   10155 	.db #0x04	; 4
      00D43F 08                   10156 	.db #0x08	; 8
      00D440 04                   10157 	.db #0x04	; 4
      00D441 10                   10158 	.db #0x10	; 16
      00D442 06                   10159 	.db #0x06	; 6
      00D443 E0                   10160 	.db #0xe0	; 224
      00D444 01                   10161 	.db #0x01	; 1
      00D445 00                   10162 	.db #0x00	; 0
      00D446 00                   10163 	.db #0x00	; 0
      00D447 00                   10164 	.db #0x00	; 0
      00D448 00                   10165 	.db #0x00	; 0
      00D449 00                   10166 	.db #0x00	; 0
      00D44A 00                   10167 	.db #0x00	; 0
      00D44B F8                   10168 	.db #0xf8	; 248
      00D44C 1F                   10169 	.db #0x1f	; 31
      00D44D 20                   10170 	.db #0x20	; 32
      00D44E 04                   10171 	.db #0x04	; 4
      00D44F 20                   10172 	.db #0x20	; 32
      00D450 04                   10173 	.db #0x04	; 4
      00D451 20                   10174 	.db #0x20	; 32
      00D452 04                   10175 	.db #0x04	; 4
      00D453 20                   10176 	.db #0x20	; 32
      00D454 04                   10177 	.db #0x04	; 4
      00D455 40                   10178 	.db #0x40	; 64
      00D456 04                   10179 	.db #0x04	; 4
      00D457 80                   10180 	.db #0x80	; 128
      00D458 03                   10181 	.db #0x03	; 3
      00D459 00                   10182 	.db #0x00	; 0
      00D45A 00                   10183 	.db #0x00	; 0
      00D45B 00                   10184 	.db #0x00	; 0
      00D45C 00                   10185 	.db #0x00	; 0
      00D45D 00                   10186 	.db #0x00	; 0
      00D45E 00                   10187 	.db #0x00	; 0
      00D45F E0                   10188 	.db #0xe0	; 224
      00D460 1F                   10189 	.db #0x1f	; 31
      00D461 18                   10190 	.db #0x18	; 24
      00D462 00                   10191 	.db #0x00	; 0
      00D463 08                   10192 	.db #0x08	; 8
      00D464 00                   10193 	.db #0x00	; 0
      00D465 08                   10194 	.db #0x08	; 8
      00D466 40                   10195 	.db #0x40	; 64
      00D467 08                   10196 	.db #0x08	; 8
      00D468 80                   10197 	.db #0x80	; 128
      00D469 10                   10198 	.db #0x10	; 16
      00D46A 00                   10199 	.db #0x00	; 0
      00D46B E0                   10200 	.db #0xe0	; 224
      00D46C 1F                   10201 	.db #0x1f	; 31
      00D46D 00                   10202 	.db #0x00	; 0
      00D46E 00                   10203 	.db #0x00	; 0
      00D46F 00                   10204 	.db #0x00	; 0
      00D470 00                   10205 	.db #0x00	; 0
      00D471 00                   10206 	.db #0x00	; 0
      00D472 00                   10207 	.db #0x00	; 0
      00D473 E0                   10208 	.db #0xe0	; 224
      00D474 1F                   10209 	.db #0x1f	; 31
      00D475 18                   10210 	.db #0x18	; 24
      00D476 00                   10211 	.db #0x00	; 0
      00D477 08                   10212 	.db #0x08	; 8
      00D478 40                   10213 	.db #0x40	; 64
      00D479 08                   10214 	.db #0x08	; 8
      00D47A 80                   10215 	.db #0x80	; 128
      00D47B 08                   10216 	.db #0x08	; 8
      00D47C 80                   10217 	.db #0x80	; 128
      00D47D 10                   10218 	.db #0x10	; 16
      00D47E 40                   10219 	.db #0x40	; 64
      00D47F E0                   10220 	.db #0xe0	; 224
      00D480 1F                   10221 	.db #0x1f	; 31
      00D481 00                   10222 	.db #0x00	; 0
      00D482 00                   10223 	.db #0x00	; 0
      00D483 00                   10224 	.db #0x00	; 0
      00D484 00                   10225 	.db #0x00	; 0
      00D485 00                   10226 	.db #0x00	; 0
      00D486 00                   10227 	.db #0x00	; 0
      00D487 E0                   10228 	.db #0xe0	; 224
      00D488 1F                   10229 	.db #0x1f	; 31
      00D489 18                   10230 	.db #0x18	; 24
      00D48A 00                   10231 	.db #0x00	; 0
      00D48B 08                   10232 	.db #0x08	; 8
      00D48C 80                   10233 	.db #0x80	; 128
      00D48D 08                   10234 	.db #0x08	; 8
      00D48E 40                   10235 	.db #0x40	; 64
      00D48F 08                   10236 	.db #0x08	; 8
      00D490 00                   10237 	.db #0x00	; 0
      00D491 10                   10238 	.db #0x10	; 16
      00D492 00                   10239 	.db #0x00	; 0
      00D493 E0                   10240 	.db #0xe0	; 224
      00D494 1F                   10241 	.db #0x1f	; 31
      00D495 00                   10242 	.db #0x00	; 0
      00D496 00                   10243 	.db #0x00	; 0
      00D497 00                   10244 	.db #0x00	; 0
      00D498 00                   10245 	.db #0x00	; 0
      00D499 01                   10246 	.db #0x01	; 1
      00D49A 04                   10247 	.db #0x04	; 4
      00D49B 01                   10248 	.db #0x01	; 1
      00D49C 03                   10249 	.db #0x03	; 3
      00D49D C1                   10250 	.db #0xc1	; 193
      00D49E 00                   10251 	.db #0x00	; 0
      00D49F 62                   10252 	.db #0x62	; 98	'b'
      00D4A0 00                   10253 	.db #0x00	; 0
      00D4A1 1C                   10254 	.db #0x1c	; 28
      00D4A2 20                   10255 	.db #0x20	; 32
      00D4A3 18                   10256 	.db #0x18	; 24
      00D4A4 40                   10257 	.db #0x40	; 64
      00D4A5 60                   10258 	.db #0x60	; 96
      00D4A6 00                   10259 	.db #0x00	; 0
      00D4A7 80                   10260 	.db #0x80	; 128
      00D4A8 00                   10261 	.db #0x00	; 0
      00D4A9 00                   10262 	.db #0x00	; 0
      00D4AA 03                   10263 	.db #0x03	; 3
      00D4AB 00                   10264 	.db #0x00	; 0
      00D4AC 04                   10265 	.db #0x04	; 4
      00D4AD 00                   10266 	.db #0x00	; 0
      00D4AE 10                   10267 	.db #0x10	; 16
      00D4AF 00                   10268 	.db #0x00	; 0
      00D4B0 08                   10269 	.db #0x08	; 8
      00D4B1 00                   10270 	.db #0x00	; 0
      00D4B2 06                   10271 	.db #0x06	; 6
      00D4B3 00                   10272 	.db #0x00	; 0
      00D4B4 01                   10273 	.db #0x01	; 1
      00D4B5 F8                   10274 	.db #0xf8	; 248
      00D4B6 40                   10275 	.db #0x40	; 64
      00D4B7 00                   10276 	.db #0x00	; 0
      00D4B8 81                   10277 	.db #0x81	; 129
      00D4B9 00                   10278 	.db #0x00	; 0
      00D4BA 02                   10279 	.db #0x02	; 2
      00D4BB 00                   10280 	.db #0x00	; 0
      00D4BC 04                   10281 	.db #0x04	; 4
      00D4BD 00                   10282 	.db #0x00	; 0
      00D4BE 08                   10283 	.db #0x08	; 8
      00D4BF 00                   10284 	.db #0x00	; 0
      00D4C0 10                   10285 	.db #0x10	; 16
      00D4C1 00                   10286 	.db #0x00	; 0
      00D4C2 80                   10287 	.db #0x80	; 128
      00D4C3 00                   10288 	.db #0x00	; 0
      00D4C4 80                   10289 	.db #0x80	; 128
      00D4C5 00                   10290 	.db #0x00	; 0
      00D4C6 80                   10291 	.db #0x80	; 128
      00D4C7 00                   10292 	.db #0x00	; 0
      00D4C8 80                   10293 	.db #0x80	; 128
      00D4C9 00                   10294 	.db #0x00	; 0
      00D4CA 80                   10295 	.db #0x80	; 128
      00D4CB 00                   10296 	.db #0x00	; 0
      00D4CC 80                   10297 	.db #0x80	; 128
      00D4CD 00                   10298 	.db #0x00	; 0
      00D4CE 80                   10299 	.db #0x80	; 128
      00D4CF 00                   10300 	.db #0x00	; 0
      00D4D0 80                   10301 	.db #0x80	; 128
      00D4D1 00                   10302 	.db #0x00	; 0
      00D4D2 80                   10303 	.db #0x80	; 128
      00D4D3 00                   10304 	.db #0x00	; 0
      00D4D4 80                   10305 	.db #0x80	; 128
      00D4D5 00                   10306 	.db #0x00	; 0
      00D4D6 00                   10307 	.db #0x00	; 0
      00D4D7 00                   10308 	.db #0x00	; 0
      00D4D8 00                   10309 	.db #0x00	; 0
      00D4D9 00                   10310 	.db #0x00	; 0
      00D4DA 00                   10311 	.db #0x00	; 0
      00D4DB 00                   10312 	.db #0x00	; 0
      00D4DC 40                   10313 	.db #0x40	; 64
      00D4DD 00                   10314 	.db #0x00	; 0
      00D4DE 80                   10315 	.db #0x80	; 128
      00D4DF 00                   10316 	.db #0x00	; 0
      00D4E0 00                   10317 	.db #0x00	; 0
      00D4E1 00                   10318 	.db #0x00	; 0
      00D4E2 00                   10319 	.db #0x00	; 0
      00D4E3 00                   10320 	.db #0x00	; 0
      00D4E4 00                   10321 	.db #0x00	; 0
      00D4E5 00                   10322 	.db #0x00	; 0
      00D4E6 00                   10323 	.db #0x00	; 0
      00D4E7 00                   10324 	.db #0x00	; 0
      00D4E8 00                   10325 	.db #0x00	; 0
      00D4E9 00                   10326 	.db #0x00	; 0
      00D4EA 00                   10327 	.db #0x00	; 0
      00D4EB 00                   10328 	.db #0x00	; 0
      00D4EC 00                   10329 	.db #0x00	; 0
      00D4ED 80                   10330 	.db #0x80	; 128
      00D4EE 00                   10331 	.db #0x00	; 0
      00D4EF 80                   10332 	.db #0x80	; 128
      00D4F0 00                   10333 	.db #0x00	; 0
      00D4F1 80                   10334 	.db #0x80	; 128
      00D4F2 00                   10335 	.db #0x00	; 0
      00D4F3 80                   10336 	.db #0x80	; 128
      00D4F4 00                   10337 	.db #0x00	; 0
      00D4F5 80                   10338 	.db #0x80	; 128
      00D4F6 00                   10339 	.db #0x00	; 0
      00D4F7 80                   10340 	.db #0x80	; 128
      00D4F8 00                   10341 	.db #0x00	; 0
      00D4F9 00                   10342 	.db #0x00	; 0
      00D4FA 00                   10343 	.db #0x00	; 0
      00D4FB 00                   10344 	.db #0x00	; 0
      00D4FC 00                   10345 	.db #0x00	; 0
      00D4FD 00                   10346 	.db #0x00	; 0
      00D4FE 00                   10347 	.db #0x00	; 0
      00D4FF 08                   10348 	.db #0x08	; 8
      00D500 01                   10349 	.db #0x01	; 1
      00D501 08                   10350 	.db #0x08	; 8
      00D502 01                   10351 	.db #0x01	; 1
      00D503 08                   10352 	.db #0x08	; 8
      00D504 01                   10353 	.db #0x01	; 1
      00D505 08                   10354 	.db #0x08	; 8
      00D506 01                   10355 	.db #0x01	; 1
      00D507 C8                   10356 	.db #0xc8	; 200
      00D508 07                   10357 	.db #0x07	; 7
      00D509 08                   10358 	.db #0x08	; 8
      00D50A 01                   10359 	.db #0x01	; 1
      00D50B 08                   10360 	.db #0x08	; 8
      00D50C 01                   10361 	.db #0x01	; 1
      00D50D 08                   10362 	.db #0x08	; 8
      00D50E 01                   10363 	.db #0x01	; 1
      00D50F 00                   10364 	.db #0x00	; 0
      00D510 00                   10365 	.db #0x00	; 0
      00D511 05                   10366 	.db #0x05	; 5
      00D512 00                   10367 	.db #0x00	; 0
      00D513 05                   10368 	.db #0x05	; 5
      00D514 00                   10369 	.db #0x00	; 0
      00D515 05                   10370 	.db #0x05	; 5
      00D516 00                   10371 	.db #0x00	; 0
      00D517 05                   10372 	.db #0x05	; 5
      00D518 00                   10373 	.db #0x00	; 0
      00D519 05                   10374 	.db #0x05	; 5
      00D51A 00                   10375 	.db #0x00	; 0
      00D51B 05                   10376 	.db #0x05	; 5
      00D51C 00                   10377 	.db #0x00	; 0
      00D51D 05                   10378 	.db #0x05	; 5
      00D51E 00                   10379 	.db #0x00	; 0
      00D51F 05                   10380 	.db #0x05	; 5
      00D520 00                   10381 	.db #0x00	; 0
      00D521 05                   10382 	.db #0x05	; 5
      00D522 00                   10383 	.db #0x00	; 0
      00D523 05                   10384 	.db #0x05	; 5
      00D524 00                   10385 	.db #0x00	; 0
      00D525 08                   10386 	.db #0x08	; 8
      00D526 42                   10387 	.db #0x42	; 66	'B'
      00D527 10                   10388 	.db #0x10	; 16
      00D528 52                   10389 	.db #0x52	; 82	'R'
      00D529 20                   10390 	.db #0x20	; 32
      00D52A 5A                   10391 	.db #0x5a	; 90	'Z'
      00D52B C0                   10392 	.db #0xc0	; 192
      00D52C 6C                   10393 	.db #0x6c	; 108	'l'
      00D52D 00                   10394 	.db #0x00	; 0
      00D52E 01                   10395 	.db #0x01	; 1
      00D52F 60                   10396 	.db #0x60	; 96
      00D530 02                   10397 	.db #0x02	; 2
      00D531 A0                   10398 	.db #0xa0	; 160
      00D532 0C                   10399 	.db #0x0c	; 12
      00D533 20                   10400 	.db #0x20	; 32
      00D534 11                   10401 	.db #0x11	; 17
      00D535 F8                   10402 	.db #0xf8	; 248
      00D536 21                   10403 	.db #0x21	; 33
      00D537 20                   10404 	.db #0x20	; 32
      00D538 40                   10405 	.db #0x40	; 64
      00D539 00                   10406 	.db #0x00	; 0
      00D53A 00                   10407 	.db #0x00	; 0
      00D53B 00                   10408 	.db #0x00	; 0
      00D53C 38                   10409 	.db #0x38	; 56	'8'
      00D53D 00                   10410 	.db #0x00	; 0
      00D53E 7C                   10411 	.db #0x7c	; 124
      00D53F 00                   10412 	.db #0x00	; 0
      00D540 7E                   10413 	.db #0x7e	; 126
      00D541 FE                   10414 	.db #0xfe	; 254
      00D542 7F                   10415 	.db #0x7f	; 127
      00D543 00                   10416 	.db #0x00	; 0
      00D544 40                   10417 	.db #0x40	; 64
      00D545 00                   10418 	.db #0x00	; 0
      00D546 40                   10419 	.db #0x40	; 64
      00D547 FE                   10420 	.db #0xfe	; 254
      00D548 7F                   10421 	.db #0x7f	; 127
      00D549 00                   10422 	.db #0x00	; 0
      00D54A 00                   10423 	.db #0x00	; 0
      00D54B 00                   10424 	.db #0x00	; 0
      00D54C 00                   10425 	.db #0x00	; 0
      00D54D 00                   10426 	.db #0x00	; 0
      00D54E 00                   10427 	.db #0x00	; 0
      00D54F 00                   10428 	.db #0x00	; 0
      00D550 00                   10429 	.db #0x00	; 0
      00D551 86                   10430 	.db #0x86	; 134
      00D552 3B                   10431 	.db #0x3b	; 59
      00D553 C2                   10432 	.db #0xc2	; 194
      00D554 4C                   10433 	.db #0x4c	; 76	'L'
      00D555 42                   10434 	.db #0x42	; 66	'B'
      00D556 44                   10435 	.db #0x44	; 68	'D'
      00D557 62                   10436 	.db #0x62	; 98	'b'
      00D558 46                   10437 	.db #0x46	; 70	'F'
      00D559 32                   10438 	.db #0x32	; 50	'2'
      00D55A 42                   10439 	.db #0x42	; 66	'B'
      00D55B DC                   10440 	.db #0xdc	; 220
      00D55C 41                   10441 	.db #0x41	; 65	'A'
      00D55D 00                   10442 	.db #0x00	; 0
      00D55E 00                   10443 	.db #0x00	; 0
      00D55F 00                   10444 	.db #0x00	; 0
      00D560 00                   10445 	.db #0x00	; 0
      00D561 00                   10446 	.db #0x00	; 0
      00D562 00                   10447 	.db #0x00	; 0
      00D563 40                   10448 	.db #0x40	; 64
      00D564 00                   10449 	.db #0x00	; 0
      00D565 40                   10450 	.db #0x40	; 64
      00D566 00                   10451 	.db #0x00	; 0
      00D567 40                   10452 	.db #0x40	; 64
      00D568 00                   10453 	.db #0x00	; 0
      00D569 58                   10454 	.db #0x58	; 88	'X'
      00D56A 06                   10455 	.db #0x06	; 6
      00D56B 58                   10456 	.db #0x58	; 88	'X'
      00D56C 06                   10457 	.db #0x06	; 6
      00D56D 40                   10458 	.db #0x40	; 64
      00D56E 00                   10459 	.db #0x00	; 0
      00D56F 40                   10460 	.db #0x40	; 64
      00D570 00                   10461 	.db #0x00	; 0
      00D571 40                   10462 	.db #0x40	; 64
      00D572 00                   10463 	.db #0x00	; 0
      00D573 00                   10464 	.db #0x00	; 0
      00D574 00                   10465 	.db #0x00	; 0
      00D575 00                   10466 	.db #0x00	; 0
      00D576 00                   10467 	.db #0x00	; 0
      00D577 00                   10468 	.db #0x00	; 0
      00D578 00                   10469 	.db #0x00	; 0
      00D579 00                   10470 	.db #0x00	; 0
      00D57A 00                   10471 	.db #0x00	; 0
      00D57B 00                   10472 	.db #0x00	; 0
      00D57C 00                   10473 	.db #0x00	; 0
      00D57D 01                   10474 	.db #0x01	; 1
      00D57E 00                   10475 	.db #0x00	; 0
      00D57F 05                   10476 	.db #0x05	; 5
      00D580 00                   10477 	.db #0x00	; 0
      00D581 03                   10478 	.db #0x03	; 3
      00D582 00                   10479 	.db #0x00	; 0
      00D583 00                   10480 	.db #0x00	; 0
      00D584 00                   10481 	.db #0x00	; 0
      00D585 00                   10482 	.db #0x00	; 0
      00D586 00                   10483 	.db #0x00	; 0
      00D587 00                   10484 	.db #0x00	; 0
      00D588 00                   10485 	.db #0x00	; 0
      00D589 00                   10486 	.db #0x00	; 0
      00D58A 00                   10487 	.db #0x00	; 0
      00D58B 00                   10488 	.db #0x00	; 0
      00D58C 00                   10489 	.db #0x00	; 0
      00D58D 00                   10490 	.db #0x00	; 0
      00D58E 00                   10491 	.db #0x00	; 0
      00D58F 00                   10492 	.db #0x00	; 0
      00D590 30                   10493 	.db #0x30	; 48	'0'
      00D591 00                   10494 	.db #0x00	; 0
      00D592 48                   10495 	.db #0x48	; 72	'H'
      00D593 00                   10496 	.db #0x00	; 0
      00D594 48                   10497 	.db #0x48	; 72	'H'
      00D595 00                   10498 	.db #0x00	; 0
      00D596 30                   10499 	.db #0x30	; 48	'0'
      00D597 00                   10500 	.db #0x00	; 0
      00D598 00                   10501 	.db #0x00	; 0
      00D599 00                   10502 	.db #0x00	; 0
      00D59A 00                   10503 	.db #0x00	; 0
      00D59B 00                   10504 	.db #0x00	; 0
      00D59C 00                   10505 	.db #0x00	; 0
      00D59D 00                   10506 	.db #0x00	; 0
      00D59E 00                   10507 	.db #0x00	; 0
      00D59F 00                   10508 	.db #0x00	; 0
      00D5A0 00                   10509 	.db #0x00	; 0
      00D5A1 00                   10510 	.db #0x00	; 0
      00D5A2 80                   10511 	.db #0x80	; 128
      00D5A3 00                   10512 	.db #0x00	; 0
      00D5A4 00                   10513 	.db #0x00	; 0
      00D5A5 00                   10514 	.db #0x00	; 0
      00D5A6 00                   10515 	.db #0x00	; 0
      00D5A7 00                   10516 	.db #0x00	; 0
      00D5A8 00                   10517 	.db #0x00	; 0
      00D5A9 00                   10518 	.db #0x00	; 0
      00D5AA 80                   10519 	.db #0x80	; 128
      00D5AB 00                   10520 	.db #0x00	; 0
      00D5AC 00                   10521 	.db #0x00	; 0
      00D5AD 00                   10522 	.db #0x00	; 0
      00D5AE 00                   10523 	.db #0x00	; 0
      00D5AF 00                   10524 	.db #0x00	; 0
      00D5B0 00                   10525 	.db #0x00	; 0
      00D5B1 00                   10526 	.db #0x00	; 0
      00D5B2 00                   10527 	.db #0x00	; 0
      00D5B3 00                   10528 	.db #0x00	; 0
      00D5B4 00                   10529 	.db #0x00	; 0
      00D5B5 00                   10530 	.db #0x00	; 0
      00D5B6 00                   10531 	.db #0x00	; 0
      00D5B7 00                   10532 	.db #0x00	; 0
      00D5B8 00                   10533 	.db #0x00	; 0
      00D5B9 C0                   10534 	.db #0xc0	; 192
      00D5BA 00                   10535 	.db #0x00	; 0
      00D5BB C0                   10536 	.db #0xc0	; 192
      00D5BC 00                   10537 	.db #0x00	; 0
      00D5BD 00                   10538 	.db #0x00	; 0
      00D5BE 00                   10539 	.db #0x00	; 0
      00D5BF 00                   10540 	.db #0x00	; 0
      00D5C0 00                   10541 	.db #0x00	; 0
      00D5C1 00                   10542 	.db #0x00	; 0
      00D5C2 00                   10543 	.db #0x00	; 0
      00D5C3 00                   10544 	.db #0x00	; 0
      00D5C4 00                   10545 	.db #0x00	; 0
      00D5C5 00                   10546 	.db #0x00	; 0
      00D5C6 00                   10547 	.db #0x00	; 0
      00D5C7 00                   10548 	.db #0x00	; 0
      00D5C8 00                   10549 	.db #0x00	; 0
      00D5C9 00                   10550 	.db #0x00	; 0
      00D5CA 00                   10551 	.db #0x00	; 0
      00D5CB 00                   10552 	.db #0x00	; 0
      00D5CC 40                   10553 	.db #0x40	; 64
      00D5CD 00                   10554 	.db #0x00	; 0
      00D5CE 7E                   10555 	.db #0x7e	; 126
      00D5CF 00                   10556 	.db #0x00	; 0
      00D5D0 00                   10557 	.db #0x00	; 0
      00D5D1 00                   10558 	.db #0x00	; 0
      00D5D2 00                   10559 	.db #0x00	; 0
      00D5D3 00                   10560 	.db #0x00	; 0
      00D5D4 00                   10561 	.db #0x00	; 0
      00D5D5 00                   10562 	.db #0x00	; 0
      00D5D6 00                   10563 	.db #0x00	; 0
      00D5D7 00                   10564 	.db #0x00	; 0
      00D5D8 00                   10565 	.db #0x00	; 0
      00D5D9 00                   10566 	.db #0x00	; 0
      00D5DA 00                   10567 	.db #0x00	; 0
      00D5DB 00                   10568 	.db #0x00	; 0
      00D5DC 00                   10569 	.db #0x00	; 0
      00D5DD 00                   10570 	.db #0x00	; 0
      00D5DE 42                   10571 	.db #0x42	; 66	'B'
      00D5DF 00                   10572 	.db #0x00	; 0
      00D5E0 52                   10573 	.db #0x52	; 82	'R'
      00D5E1 00                   10574 	.db #0x00	; 0
      00D5E2 52                   10575 	.db #0x52	; 82	'R'
      00D5E3 00                   10576 	.db #0x00	; 0
      00D5E4 52                   10577 	.db #0x52	; 82	'R'
      00D5E5 00                   10578 	.db #0x00	; 0
      00D5E6 6C                   10579 	.db #0x6c	; 108	'l'
      00D5E7 00                   10580 	.db #0x00	; 0
      00D5E8 00                   10581 	.db #0x00	; 0
      00D5E9 00                   10582 	.db #0x00	; 0
      00D5EA 00                   10583 	.db #0x00	; 0
      00D5EB 00                   10584 	.db #0x00	; 0
      00D5EC 00                   10585 	.db #0x00	; 0
      00D5ED 00                   10586 	.db #0x00	; 0
      00D5EE 00                   10587 	.db #0x00	; 0
      00D5EF 00                   10588 	.db #0x00	; 0
      00D5F0 00                   10589 	.db #0x00	; 0
      00D5F1 00                   10590 	.db #0x00	; 0
      00D5F2 42                   10591 	.db #0x42	; 66	'B'
      00D5F3 00                   10592 	.db #0x00	; 0
      00D5F4 46                   10593 	.db #0x46	; 70	'F'
      00D5F5 00                   10594 	.db #0x00	; 0
      00D5F6 4A                   10595 	.db #0x4a	; 74	'J'
      00D5F7 00                   10596 	.db #0x00	; 0
      00D5F8 4A                   10597 	.db #0x4a	; 74	'J'
      00D5F9 00                   10598 	.db #0x00	; 0
      00D5FA 32                   10599 	.db #0x32	; 50	'2'
      00D5FB 00                   10600 	.db #0x00	; 0
      00D5FC 00                   10601 	.db #0x00	; 0
      00D5FD 00                   10602 	.db #0x00	; 0
      00D5FE 00                   10603 	.db #0x00	; 0
      00D5FF 00                   10604 	.db #0x00	; 0
      00D600 00                   10605 	.db #0x00	; 0
      00D601 00                   10606 	.db #0x00	; 0
      00D602 00                   10607 	.db #0x00	; 0
      00D603 F8                   10608 	.db #0xf8	; 248
      00D604 07                   10609 	.db #0x07	; 7
      00D605 F8                   10610 	.db #0xf8	; 248
      00D606 07                   10611 	.db #0x07	; 7
      00D607 F8                   10612 	.db #0xf8	; 248
      00D608 07                   10613 	.db #0x07	; 7
      00D609 F8                   10614 	.db #0xf8	; 248
      00D60A 07                   10615 	.db #0x07	; 7
      00D60B F8                   10616 	.db #0xf8	; 248
      00D60C 07                   10617 	.db #0x07	; 7
      00D60D F8                   10618 	.db #0xf8	; 248
      00D60E 07                   10619 	.db #0x07	; 7
      00D60F F8                   10620 	.db #0xf8	; 248
      00D610 07                   10621 	.db #0x07	; 7
      00D611 F8                   10622 	.db #0xf8	; 248
      00D612 07                   10623 	.db #0x07	; 7
      00D613 00                   10624 	.db #0x00	; 0
      00D614 00                   10625 	.db #0x00	; 0
      00D615 00                   10626 	.db #0x00	; 0
      00D616 00                   10627 	.db #0x00	; 0
      00D617 00                   10628 	.db #0x00	; 0
      00D618 00                   10629 	.db #0x00	; 0
      00D619 00                   10630 	.db #0x00	; 0
      00D61A 00                   10631 	.db #0x00	; 0
      00D61B 00                   10632 	.db #0x00	; 0
      00D61C 00                   10633 	.db #0x00	; 0
      00D61D 00                   10634 	.db #0x00	; 0
      00D61E 00                   10635 	.db #0x00	; 0
      00D61F 00                   10636 	.db #0x00	; 0
      00D620 00                   10637 	.db #0x00	; 0
      00D621 00                   10638 	.db #0x00	; 0
      00D622 00                   10639 	.db #0x00	; 0
      00D623 00                   10640 	.db #0x00	; 0
      00D624 00                   10641 	.db #0x00	; 0
      00D625 00                   10642 	.db #0x00	; 0
      00D626 00                   10643 	.db #0x00	; 0
      00D627 00                   10644 	.db #0x00	; 0
      00D628 00                   10645 	.db #0x00	; 0
                                  10646 	.area CONST   (CODE)
      00D629                      10647 ___str_0:
      00D629 73 63 72 65 65 6E 20 10648 	.ascii "screen timeout %lu ticks :("
             74 69 6D 65 6F 75 74
             20 25 6C 75 20 74 69
             63 6B 73 20 3A 28
      00D644 0A                   10649 	.db 0x0a
      00D645 00                   10650 	.db 0x00
                                  10651 	.area CSEG    (CODE)
                                  10652 	.area CONST   (CODE)
      00D646                      10653 ___str_1:
      00D646 6C 75 74 20 73 69 7A 10654 	.ascii "lut size = %d"
             65 20 3D 20 25 64
      00D653 0A                   10655 	.db 0x0a
      00D654 00                   10656 	.db 0x00
                                  10657 	.area CSEG    (CODE)
                                  10658 	.area XINIT   (CODE)
      00EA48                      10659 __xinit__epdCharSize:
      00EA48 01                   10660 	.db #0x01	; 1
      00EA49                      10661 __xinit__directionY:
      00EA49 01                   10662 	.db #0x01	;  1
      00EA4A                      10663 __xinit__fontCurXpos:
      00EA4A 00 00                10664 	.byte #0x00, #0x00	; 0
      00EA4C                      10665 __xinit__fontCurYpos:
      00EA4C 00 00                10666 	.byte #0x00, #0x00	; 0
      00EA4E                      10667 __xinit__currentLut:
      00EA4E 00                   10668 	.db #0x00	; 0
      00EA4F                      10669 __xinit__dispLutSize:
      00EA4F 00                   10670 	.db #0x00	; 0
      00EA50                      10671 __xinit__isInited:
      00EA50 00                   10672 	.db #0x00	;  0
      00EA51                      10673 __xinit__epdGPIOActive:
      00EA51 00                   10674 	.db #0x00	;  0
      00EA52                      10675 __xinit__customLUT:
      00EA52 00                   10676 	.db #0x00	; 0
      00EA53 00                   10677 	.db 0x00
      00EA54 00                   10678 	.db 0x00
      00EA55 00                   10679 	.db 0x00
      00EA56 00                   10680 	.db 0x00
      00EA57 00                   10681 	.db 0x00
      00EA58 00                   10682 	.db 0x00
      00EA59 00                   10683 	.db 0x00
      00EA5A 00                   10684 	.db 0x00
      00EA5B 00                   10685 	.db 0x00
      00EA5C 00                   10686 	.db 0x00
      00EA5D 00                   10687 	.db 0x00
      00EA5E 00                   10688 	.db 0x00
      00EA5F 00                   10689 	.db 0x00
      00EA60 00                   10690 	.db 0x00
      00EA61 00                   10691 	.db 0x00
      00EA62 00                   10692 	.db 0x00
      00EA63 00                   10693 	.db 0x00
      00EA64 00                   10694 	.db 0x00
      00EA65 00                   10695 	.db 0x00
      00EA66 00                   10696 	.db 0x00
      00EA67 00                   10697 	.db 0x00
      00EA68 00                   10698 	.db 0x00
      00EA69 00                   10699 	.db 0x00
      00EA6A 00                   10700 	.db 0x00
      00EA6B 00                   10701 	.db 0x00
      00EA6C 00                   10702 	.db 0x00
      00EA6D 00                   10703 	.db 0x00
      00EA6E 00                   10704 	.db 0x00
      00EA6F 00                   10705 	.db 0x00
      00EA70 00                   10706 	.db 0x00
      00EA71 00                   10707 	.db 0x00
      00EA72 00                   10708 	.db 0x00
      00EA73 00                   10709 	.db 0x00
      00EA74 00                   10710 	.db 0x00
      00EA75 00                   10711 	.db 0x00
      00EA76 00                   10712 	.db 0x00
      00EA77 00                   10713 	.db 0x00
      00EA78 00                   10714 	.db 0x00
      00EA79 00                   10715 	.db 0x00
      00EA7A 00                   10716 	.db 0x00
      00EA7B 00                   10717 	.db 0x00
      00EA7C 00                   10718 	.db 0x00
      00EA7D 00                   10719 	.db 0x00
      00EA7E 00                   10720 	.db 0x00
      00EA7F 00                   10721 	.db 0x00
      00EA80 00                   10722 	.db 0x00
      00EA81 00                   10723 	.db 0x00
      00EA82 00                   10724 	.db 0x00
      00EA83 00                   10725 	.db 0x00
      00EA84 00                   10726 	.db 0x00
      00EA85 00                   10727 	.db 0x00
      00EA86 00                   10728 	.db 0x00
      00EA87 00                   10729 	.db 0x00
      00EA88 00                   10730 	.db 0x00
      00EA89 00                   10731 	.db 0x00
      00EA8A 00                   10732 	.db 0x00
      00EA8B 00                   10733 	.db 0x00
      00EA8C 00                   10734 	.db 0x00
      00EA8D 00                   10735 	.db 0x00
      00EA8E 00                   10736 	.db 0x00
      00EA8F 00                   10737 	.db 0x00
      00EA90 00                   10738 	.db 0x00
      00EA91 00                   10739 	.db 0x00
      00EA92 00                   10740 	.db 0x00
      00EA93 00                   10741 	.db 0x00
      00EA94 00                   10742 	.db 0x00
      00EA95 00                   10743 	.db 0x00
      00EA96 00                   10744 	.db 0x00
      00EA97 00                   10745 	.db 0x00
      00EA98 00                   10746 	.db 0x00
      00EA99 00                   10747 	.db 0x00
      00EA9A 00                   10748 	.db 0x00
      00EA9B 00                   10749 	.db 0x00
      00EA9C 00                   10750 	.db 0x00
      00EA9D 00                   10751 	.db 0x00
      00EA9E 00                   10752 	.db 0x00
      00EA9F 00                   10753 	.db 0x00
      00EAA0 00                   10754 	.db 0x00
      00EAA1 00                   10755 	.db 0x00
      00EAA2 00                   10756 	.db 0x00
      00EAA3 00                   10757 	.db 0x00
      00EAA4 00                   10758 	.db 0x00
      00EAA5 00                   10759 	.db 0x00
      00EAA6 00                   10760 	.db 0x00
      00EAA7 00                   10761 	.db 0x00
      00EAA8 00                   10762 	.db 0x00
      00EAA9 00                   10763 	.db 0x00
      00EAAA 00                   10764 	.db 0x00
      00EAAB 00                   10765 	.db 0x00
      00EAAC 00                   10766 	.db 0x00
      00EAAD 00                   10767 	.db 0x00
      00EAAE 00                   10768 	.db 0x00
      00EAAF 00                   10769 	.db 0x00
      00EAB0 00                   10770 	.db 0x00
      00EAB1 00                   10771 	.db 0x00
      00EAB2 00                   10772 	.db 0x00
      00EAB3 00                   10773 	.db 0x00
      00EAB4 00                   10774 	.db 0x00
      00EAB5 00                   10775 	.db 0x00
      00EAB6 00                   10776 	.db 0x00
      00EAB7 00                   10777 	.db 0x00
      00EAB8 00                   10778 	.db 0x00
      00EAB9 00                   10779 	.db 0x00
      00EABA 00                   10780 	.db 0x00
      00EABB 00                   10781 	.db 0x00
      00EABC 00                   10782 	.db 0x00
      00EABD 00                   10783 	.db 0x00
      00EABE 00                   10784 	.db 0x00
      00EABF 00                   10785 	.db 0x00
      00EAC0 00                   10786 	.db 0x00
      00EAC1 00                   10787 	.db 0x00
      00EAC2 00                   10788 	.db 0x00
      00EAC3 00                   10789 	.db 0x00
      00EAC4 00                   10790 	.db 0x00
      00EAC5 00                   10791 	.db 0x00
      00EAC6 00                   10792 	.db 0x00
      00EAC7 00                   10793 	.db 0x00
      00EAC8 00                   10794 	.db 0x00
      00EAC9 00                   10795 	.db 0x00
      00EACA 00                   10796 	.db 0x00
      00EACB 00                   10797 	.db 0x00
      00EACC 00                   10798 	.db 0x00
      00EACD 00                   10799 	.db 0x00
      00EACE 00                   10800 	.db 0x00
      00EACF 00                   10801 	.db 0x00
      00EAD0 00                   10802 	.db 0x00
      00EAD1 00                   10803 	.db 0x00
      00EAD2                      10804 __xinit__waveform10:
      00EAD2 AA E5 00             10805 	.byte _waveformbuffer, (_waveformbuffer >> 8),#0x00
      00EAD5                      10806 __xinit__waveform7:
      00EAD5 AA E5 00             10807 	.byte _waveformbuffer, (_waveformbuffer >> 8),#0x00
                                  10808 	.area CABS    (ABS,CODE)
